 wrkx86

 Timestamp is 6264f65f (Sun Apr 24 15:03:59 2022)

 Preferred load address is 00400000

 Start         Length     Name                   Class
 0001:00000000 00000158H .idata$5                CODE
 0001:00000180 0000b050H .rdata                  CODE
 0001:0000b1d0 00000050H .rdata$debug            CODE
 0001:0000b220 00000008H .rdata$sxdata           CODE
 0001:0000b230 00075659H .text                   CODE
 0001:00080890 00006079H .text$00                CODE
 0001:0008690c 0000027fH .text$01                CODE
 0002:00000000 000019d0H POOLCODE                CODE
 0003:00000000 00000668H MISYSPTE                CODE
 0004:00000000 00001a4eH POOLMI                  CODE
 0005:00000000 000092c4H .data                   DATA
 0005:00009300 00012ba0H .bss                    DATA
 0006:00000000 00000ac4H SPINLOCK                DATA
 0007:00000000 000e8c49H PAGE                    CODE
 0007:000e8c50 00002868H PAGECONST               CODE
 0007:000eb4b8 0000297bH _PAGE                   CODE
 0008:00000000 0000e7d7H PAGELK                  CODE
 0008:0000e7d8 00000088H PAGELKCONST             CODE
 0009:00000000 000144c2H PAGEVRFY                CODE
 000a:00000000 00003e1eH PAGEKD                  CODE
 000b:00000000 0000195fH PAGEWMI                 CODE
 000c:00000000 00001cd8H PAGEHDLS                CODE
 000d:00000000 00000d8aH PAGESPEC                CODE
 000e:00000000 0000c332H .edata                  DATA
 000f:00000000 000017b8H PAGEDATA                DATA
 0010:00000000 0000018cH PAGECONST               DATA
 0011:00000000 0000c031H PAGEKDD                 DATA
 0012:00000000 00001268H PAGEVRFD                DATA
 0013:00000000 000034c4H PAGEVRFC                DATA
 0014:00000000 00028ba8H INIT                    CODE
 0014:00028ba8 00000410H INIT                    CODE
 0014:00028fb8 00001a6fH INITCONST               CODE
 0014:0002aa28 00001660H INITDATA                CODE
 0014:0002c088 0000003cH .idata$2                CODE
 0014:0002c0c4 00000014H .idata$3                CODE
 0014:0002c0d8 00000158H .idata$4                CODE
 0014:0002c230 00000786H .idata$6                CODE
 0015:00000000 00000328H .rsrc$01                DATA
 0015:00000330 0001a800H .rsrc$02                DATA

  Address         Publics by Value              Rva+Base     Lib:Object

 0000:00000000       __except_list              00000000     <absolute>
 0000:00000002       ___safe_se_handler_count   00000002     <absolute>
 0000:00000800       _IDTLEN                    00000800     <absolute>
 0001:00000000       __imp__VidInitialize@4     00401000     bootvid:BOOTVID.dll
 0001:00000004       __imp__VidDisplayString@4  00401004     bootvid:BOOTVID.dll
 0001:00000008       __imp__VidSetTextColor@4   00401008     bootvid:BOOTVID.dll
 0001:0000000c       __imp__VidSolidColorFill@20 0040100c     bootvid:BOOTVID.dll
 0001:00000010       __imp__VidBitBlt@12        00401010     bootvid:BOOTVID.dll
 0001:00000014       __imp__VidBufferToScreenBlt@24 00401014     bootvid:BOOTVID.dll
 0001:00000018       __imp__VidScreenToBufferBlt@24 00401018     bootvid:BOOTVID.dll
 0001:0000001c       __imp__VidResetDisplay@4   0040101c     bootvid:BOOTVID.dll
 0001:00000020       __imp__VidCleanUp@0        00401020     bootvid:BOOTVID.dll
 0001:00000024       __imp__VidSetScrollRegion@16 00401024     bootvid:BOOTVID.dll
 0001:00000028       \177BOOTVID_NULL_THUNK_DATA 00401028     bootvid:BOOTVID.dll
 0001:0000002c       __imp__KeGetCurrentIrql@0  0040102c     hal:HAL.dll
 0001:00000030       __imp__KeQueryPerformanceCounter@4 00401030     hal:HAL.dll
 0001:00000034       __imp_@KeAcquireInStackQueuedSpinLockRaiseToSynch@8 00401034     hal:HAL.dll
 0001:00000038       __imp__HalInitSystem@8     00401038     hal:HAL.dll
 0001:0000003c       __imp__HalReportResourceUsage@0 0040103c     hal:HAL.dll
 0001:00000040       __imp__HalAllProcessorsStarted@0 00401040     hal:HAL.dll
 0001:00000044       __imp__HalQueryRealTimeClock@4 00401044     hal:HAL.dll
 0001:00000048       __imp__KeRaiseIrqlToDpcLevel@0 00401048     hal:HAL.dll
 0001:0000004c       __imp__HalAllocateAdapterChannel@16 0040104c     hal:HAL.dll
 0001:00000050       __imp__HalInitializeProcessor@8 00401050     hal:HAL.dll
 0001:00000054       __imp__HalHandleNMI@4      00401054     hal:HAL.dll
 0001:00000058       __imp__HalBeginSystemInterrupt@12 00401058     hal:HAL.dll
 0001:0000005c       __imp__HalEndSystemInterrupt@8 0040105c     hal:HAL.dll
 0001:00000060       __imp__HalCalibratePerformanceCounter@12 00401060     hal:HAL.dll
 0001:00000064       __imp__HalSetRealTimeClock@4 00401064     hal:HAL.dll
 0001:00000068       __imp_@HalRequestSoftwareInterrupt@4 00401068     hal:HAL.dll
 0001:0000006c       __imp__KeStallExecutionProcessor@4 0040106c     hal:HAL.dll
 0001:00000070       __imp_@HalSystemVectorDispatchEntry@12 00401070     hal:HAL.dll
 0001:00000074       __imp__HalDisableSystemInterrupt@8 00401074     hal:HAL.dll
 0001:00000078       __imp__HalEnableSystemInterrupt@12 00401078     hal:HAL.dll
 0001:0000007c       __imp__KeRaiseIrqlToSynchLevel@0 0040107c     hal:HAL.dll
 0001:00000080       __imp_@HalClearSoftwareInterrupt@4 00401080     hal:HAL.dll
 0001:00000084       __imp__HalRequestIpi@4     00401084     hal:HAL.dll
 0001:00000088       __imp__READ_PORT_UCHAR@4   00401088     hal:HAL.dll
 0001:0000008c       __imp__WRITE_PORT_UCHAR@8  0040108c     hal:HAL.dll
 0001:00000090       __imp__HalSetProfileInterval@4 00401090     hal:HAL.dll
 0001:00000094       __imp__HalStopProfileInterrupt@4 00401094     hal:HAL.dll
 0001:00000098       __imp_@KeAcquireQueuedSpinLockRaiseToSynch@4 00401098     hal:HAL.dll
 0001:0000009c       __imp_@KeAcquireSpinLockRaiseToSynch@4 0040109c     hal:HAL.dll
 0001:000000a0       __imp__KeFlushWriteBuffer@0 004010a0     hal:HAL.dll
 0001:000000a4       __imp__HalSetTimeIncrement@4 004010a4     hal:HAL.dll
 0001:000000a8       __imp__HalTranslateBusAddress@24 004010a8     hal:HAL.dll
 0001:000000ac       __imp__HalGetBusDataByOffset@24 004010ac     hal:HAL.dll
 0001:000000b0       __imp__HalSetBusDataByOffset@24 004010b0     hal:HAL.dll
 0001:000000b4       __imp__KeReleaseSpinLock@8 004010b4     hal:HAL.dll
 0001:000000b8       __imp__KeAcquireSpinLock@8 004010b8     hal:HAL.dll
 0001:000000bc       __imp__KeLowerIrql@4       004010bc     hal:HAL.dll
 0001:000000c0       __imp__KeRaiseIrql@8       004010c0     hal:HAL.dll
 0001:000000c4       __imp__HalGetEnvironmentVariable@12 004010c4     hal:HAL.dll
 0001:000000c8       __imp__HalStartNextProcessor@8 004010c8     hal:HAL.dll
 0001:000000cc       __imp__HalGetInterruptVector@24 004010cc     hal:HAL.dll
 0001:000000d0       __imp__READ_PORT_USHORT@4  004010d0     hal:HAL.dll
 0001:000000d4       __imp__READ_PORT_ULONG@4   004010d4     hal:HAL.dll
 0001:000000d8       __imp__WRITE_PORT_USHORT@8 004010d8     hal:HAL.dll
 0001:000000dc       __imp__WRITE_PORT_ULONG@8  004010dc     hal:HAL.dll
 0001:000000e0       __imp__HalReadDmaCounter@4 004010e0     hal:HAL.dll
 0001:000000e4       __imp__IoMapTransfer@24    004010e4     hal:HAL.dll
 0001:000000e8       __imp__IoFreeMapRegisters@12 004010e8     hal:HAL.dll
 0001:000000ec       __imp__IoFreeAdapterChannel@4 004010ec     hal:HAL.dll
 0001:000000f0       __imp__IoFlushAdapterBuffers@24 004010f0     hal:HAL.dll
 0001:000000f4       __imp__HalFreeCommonBuffer@24 004010f4     hal:HAL.dll
 0001:000000f8       __imp__HalAllocateCommonBuffer@16 004010f8     hal:HAL.dll
 0001:000000fc       __imp__HalAllocateCrashDumpRegisters@8 004010fc     hal:HAL.dll
 0001:00000100       __imp__HalGetAdapter@8     00401100     hal:HAL.dll
 0001:00000104       __imp__HalSetEnvironmentVariable@8 00401104     hal:HAL.dll
 0001:00000108       __imp__HalReturnToFirmware@4 00401108     hal:HAL.dll
 0001:0000010c       __imp_@KfRaiseIrql@4       0040110c     hal:HAL.dll
 0001:00000110       __imp_@KfLowerIrql@4       00401110     hal:HAL.dll
 0001:00000114       __imp_@KeAcquireInStackQueuedSpinLock@8 00401114     hal:HAL.dll
 0001:00000118       __imp_@KeReleaseInStackQueuedSpinLock@4 00401118     hal:HAL.dll
 0001:0000011c       __imp_@KfAcquireSpinLock@4 0040111c     hal:HAL.dll
 0001:00000120       __imp_@KfReleaseSpinLock@8 00401120     hal:HAL.dll
 0001:00000124       __imp_@KeAcquireQueuedSpinLock@4 00401124     hal:HAL.dll
 0001:00000128       __imp__HalStartProfileInterrupt@4 00401128     hal:HAL.dll
 0001:0000012c       __imp_@KeReleaseQueuedSpinLock@8 0040112c     hal:HAL.dll
 0001:00000130       \177HAL_NULL_THUNK_DATA    00401130     hal:HAL.dll
 0001:00000134       __imp__KdDebuggerInitialize1@4 00401134     kdcom:KDCOM.dll
 0001:00000138       __imp__KdSave@4            00401138     kdcom:KDCOM.dll
 0001:0000013c       __imp__KdRestore@4         0040113c     kdcom:KDCOM.dll
 0001:00000140       __imp__KdSendPacket@16     00401140     kdcom:KDCOM.dll
 0001:00000144       __imp__KdD0Transition@0    00401144     kdcom:KDCOM.dll
 0001:00000148       __imp__KdD3Transition@0    00401148     kdcom:KDCOM.dll
 0001:0000014c       __imp__KdReceivePacket@20  0040114c     kdcom:KDCOM.dll
 0001:00000150       __imp__KdDebuggerInitialize0@4 00401150     kdcom:KDCOM.dll
 0001:00000154       \177KDCOM_NULL_THUNK_DATA  00401154     kdcom:KDCOM.dll
 0001:000001c0       _KiFindFirstSetRight       004011c0     cache:copysup.obj
 0001:000002c0       _KiFindFirstSetLeft        004012c0     cache:copysup.obj
 0001:000003c0       _KiMask32Array             004013c0     cache:copysup.obj
 0001:00000440       _RtlDosPathSeparatorsString 00401440     cache:copysup.obj
 0001:00000448       ??_C@_15MNCACJLI@?$AA?2?$AA?1?$AA?$AA@ 00401448     cache:copysup.obj
 0001:000004a0       ??_C@_0FA@OGCCJEAN@CC?3?5SharedCacheMap?9?$DOOpenCount?5?$DN?$DN@ 004014a0     cache:cachesub.obj
 0001:00000a64       _ExpCallBackReturnRefs     00401a64     ex:callback.obj
 0001:00000b08       ??_C@_1BI@BPNBDDHK@?$AAE?$AAn?$AAa?$AAb?$AAl?$AAe?$AA6?$AA4?$AAB?$AAi?$AAt?$AA?$AA@ 00401b08     ex:sysinfo.obj
 0001:00000b28       ??_C@_1GG@ELAGJLFC@?$AA?2?$AAR?$AAe?$AAg?$AAi?$AAs?$AAt?$AAr?$AAy?$AA?2?$AAM?$AAa?$AAc?$AAh?$AAi?$AAn?$AAe?$AA?2?$AAS?$AAO@ 00401b28     ex:sysinfo.obj
 0001:00000e78       _ExpLuidIncrement          00401e78     ex:luid.obj
 0001:000011c0       _FsRtlLegalAnsiCharacterArray 004021c0     fsrtl:FsRtlPc.obj
 0001:000012b8       _FsRtlHalfSecond           004022b8     fsrtl:FsFilter.obj
 0001:0000133c       ??_C@_0BO@CIDILEI@?2REGISTRY?2MACHINE?2SYSTEM?2DISK?$AA@ 0040233c     fstub:drivesup.obj
 0001:0000135c       ??_C@_0BP@MDCLODBD@?2Device?2Harddisk?$CFd?2Partition?$CFd?$AA@ 0040235c     fstub:drivesup.obj
 0001:0000137c       _PARTITION_ENTRY_UNUSED_GUID 0040237c     io:ioguid.obj
 0001:0000138c       _PARTITION_SYSTEM_GUID     0040238c     io:ioguid.obj
 0001:0000139c       _PARTITION_MSFT_RESERVED_GUID 0040239c     io:ioguid.obj
 0001:000013ac       _PARTITION_BASIC_DATA_GUID 004023ac     io:ioguid.obj
 0001:000013bc       _PARTITION_LDM_METADATA_GUID 004023bc     io:ioguid.obj
 0001:000013cc       _PARTITION_LDM_DATA_GUID   004023cc     io:ioguid.obj
 0001:000013dc       _GUID_DEVCLASS_1394        004023dc     io:ioguid.obj
 0001:000013ec       _GUID_DEVCLASS_1394DEBUG   004023ec     io:ioguid.obj
 0001:000013fc       _GUID_DEVCLASS_61883       004023fc     io:ioguid.obj
 0001:0000140c       _GUID_DEVCLASS_ADAPTER     0040240c     io:ioguid.obj
 0001:0000141c       _GUID_DEVCLASS_APMSUPPORT  0040241c     io:ioguid.obj
 0001:0000142c       _GUID_DEVCLASS_AVC         0040242c     io:ioguid.obj
 0001:0000143c       _GUID_DEVCLASS_BATTERY     0040243c     io:ioguid.obj
 0001:0000144c       _GUID_DEVCLASS_BIOMETRIC   0040244c     io:ioguid.obj
 0001:0000145c       _GUID_DEVCLASS_BLUETOOTH   0040245c     io:ioguid.obj
 0001:0000146c       _GUID_DEVCLASS_CDROM       0040246c     io:ioguid.obj
 0001:0000147c       _GUID_DEVCLASS_COMPUTER    0040247c     io:ioguid.obj
 0001:0000148c       _GUID_DEVCLASS_DECODER     0040248c     io:ioguid.obj
 0001:0000149c       _GUID_DEVCLASS_DISKDRIVE   0040249c     io:ioguid.obj
 0001:000014ac       _GUID_DEVCLASS_DISPLAY     004024ac     io:ioguid.obj
 0001:000014bc       _GUID_DEVCLASS_DOT4        004024bc     io:ioguid.obj
 0001:000014cc       _GUID_DEVCLASS_DOT4PRINT   004024cc     io:ioguid.obj
 0001:000014dc       _GUID_DEVCLASS_ENUM1394    004024dc     io:ioguid.obj
 0001:000014ec       _GUID_DEVCLASS_FDC         004024ec     io:ioguid.obj
 0001:000014fc       _GUID_DEVCLASS_FLOPPYDISK  004024fc     io:ioguid.obj
 0001:0000150c       _GUID_DEVCLASS_GPS         0040250c     io:ioguid.obj
 0001:0000151c       _GUID_DEVCLASS_HDC         0040251c     io:ioguid.obj
 0001:0000152c       _GUID_DEVCLASS_HIDCLASS    0040252c     io:ioguid.obj
 0001:0000153c       _GUID_DEVCLASS_IMAGE       0040253c     io:ioguid.obj
 0001:0000154c       _GUID_DEVCLASS_INFINIBAND  0040254c     io:ioguid.obj
 0001:0000155c       _GUID_DEVCLASS_INFRARED    0040255c     io:ioguid.obj
 0001:0000156c       _GUID_DEVCLASS_KEYBOARD    0040256c     io:ioguid.obj
 0001:0000157c       _GUID_DEVCLASS_LEGACYDRIVER 0040257c     io:ioguid.obj
 0001:0000158c       _GUID_DEVCLASS_MEDIA       0040258c     io:ioguid.obj
 0001:0000159c       _GUID_DEVCLASS_MEDIUM_CHANGER 0040259c     io:ioguid.obj
 0001:000015ac       _GUID_DEVCLASS_MODEM       004025ac     io:ioguid.obj
 0001:000015bc       _GUID_DEVCLASS_MONITOR     004025bc     io:ioguid.obj
 0001:000015cc       _GUID_DEVCLASS_MOUSE       004025cc     io:ioguid.obj
 0001:000015dc       _GUID_DEVCLASS_MTD         004025dc     io:ioguid.obj
 0001:000015ec       _GUID_DEVCLASS_MULTIFUNCTION 004025ec     io:ioguid.obj
 0001:000015fc       _GUID_DEVCLASS_MULTIPORTSERIAL 004025fc     io:ioguid.obj
 0001:0000160c       _GUID_DEVCLASS_NET         0040260c     io:ioguid.obj
 0001:0000161c       _GUID_DEVCLASS_NETCLIENT   0040261c     io:ioguid.obj
 0001:0000162c       _GUID_DEVCLASS_NETSERVICE  0040262c     io:ioguid.obj
 0001:0000163c       _GUID_DEVCLASS_NETTRANS    0040263c     io:ioguid.obj
 0001:0000164c       _GUID_DEVCLASS_NODRIVER    0040264c     io:ioguid.obj
 0001:0000165c       _GUID_DEVCLASS_PCMCIA      0040265c     io:ioguid.obj
 0001:0000166c       _GUID_DEVCLASS_PNPPRINTERS 0040266c     io:ioguid.obj
 0001:0000167c       _GUID_DEVCLASS_PORTS       0040267c     io:ioguid.obj
 0001:0000168c       _GUID_DEVCLASS_PRINTER     0040268c     io:ioguid.obj
 0001:0000169c       _GUID_DEVCLASS_PRINTERUPGRADE 0040269c     io:ioguid.obj
 0001:000016ac       _GUID_DEVCLASS_PROCESSOR   004026ac     io:ioguid.obj
 0001:000016bc       _GUID_DEVCLASS_SBP2        004026bc     io:ioguid.obj
 0001:000016cc       _GUID_DEVCLASS_SCSIADAPTER 004026cc     io:ioguid.obj
 0001:000016dc       _GUID_DEVCLASS_SECURITYACCELERATOR 004026dc     io:ioguid.obj
 0001:000016ec       _GUID_DEVCLASS_SMARTCARDREADER 004026ec     io:ioguid.obj
 0001:000016fc       _GUID_DEVCLASS_SOUND       004026fc     io:ioguid.obj
 0001:0000170c       _GUID_DEVCLASS_SYSTEM      0040270c     io:ioguid.obj
 0001:0000171c       _GUID_DEVCLASS_TAPEDRIVE   0040271c     io:ioguid.obj
 0001:0000172c       _GUID_DEVCLASS_UNKNOWN     0040272c     io:ioguid.obj
 0001:0000173c       _GUID_DEVCLASS_USB         0040273c     io:ioguid.obj
 0001:0000174c       _GUID_DEVCLASS_VOLUME      0040274c     io:ioguid.obj
 0001:0000175c       _GUID_DEVCLASS_VOLUMESNAPSHOT 0040275c     io:ioguid.obj
 0001:0000176c       _GUID_DEVCLASS_WCEUSBS     0040276c     io:ioguid.obj
 0001:0000177c       _GUID_DEVCLASS_FSFILTER_ACTIVITYMONITOR 0040277c     io:ioguid.obj
 0001:0000178c       _GUID_DEVCLASS_FSFILTER_UNDELETE 0040278c     io:ioguid.obj
 0001:0000179c       _GUID_DEVCLASS_FSFILTER_ANTIVIRUS 0040279c     io:ioguid.obj
 0001:000017ac       _GUID_DEVCLASS_FSFILTER_REPLICATION 004027ac     io:ioguid.obj
 0001:000017bc       _GUID_DEVCLASS_FSFILTER_CONTINUOUSBACKUP 004027bc     io:ioguid.obj
 0001:000017cc       _GUID_DEVCLASS_FSFILTER_CONTENTSCREENER 004027cc     io:ioguid.obj
 0001:000017dc       _GUID_DEVCLASS_FSFILTER_QUOTAMANAGEMENT 004027dc     io:ioguid.obj
 0001:000017ec       _GUID_DEVCLASS_FSFILTER_SYSTEMRECOVERY 004027ec     io:ioguid.obj
 0001:000017fc       _GUID_DEVCLASS_FSFILTER_CFSMETADATASERVER 004027fc     io:ioguid.obj
 0001:0000180c       _GUID_DEVCLASS_FSFILTER_HSM 0040280c     io:ioguid.obj
 0001:0000181c       _GUID_DEVCLASS_FSFILTER_COMPRESSION 0040281c     io:ioguid.obj
 0001:0000182c       _GUID_DEVCLASS_FSFILTER_ENCRYPTION 0040282c     io:ioguid.obj
 0001:0000183c       _GUID_DEVCLASS_FSFILTER_PHYSICALQUOTAMANAGEMENT 0040283c     io:ioguid.obj
 0001:0000184c       _GUID_DEVCLASS_FSFILTER_OPENFILEBACKUP 0040284c     io:ioguid.obj
 0001:0000185c       _GUID_DEVCLASS_FSFILTER_SECURITYENHANCER 0040285c     io:ioguid.obj
 0001:0000186c       _GUID_DEVCLASS_FSFILTER_COPYPROTECTION 0040286c     io:ioguid.obj
 0001:0000187c       _GUID_DEVCLASS_FSFILTER_SYSTEM 0040287c     io:ioguid.obj
 0001:0000188c       _GUID_DEVCLASS_FSFILTER_INFRASTRUCTURE 0040288c     io:ioguid.obj
 0001:0000189c       _GUID_IO_VOLUME_CHANGE     0040289c     io:ioguid.obj
 0001:000018ac       _GUID_IO_VOLUME_DISMOUNT   004028ac     io:ioguid.obj
 0001:000018bc       _GUID_IO_VOLUME_DISMOUNT_FAILED 004028bc     io:ioguid.obj
 0001:000018cc       _GUID_IO_VOLUME_MOUNT      004028cc     io:ioguid.obj
 0001:000018dc       _GUID_IO_VOLUME_LOCK       004028dc     io:ioguid.obj
 0001:000018ec       _GUID_IO_VOLUME_LOCK_FAILED 004028ec     io:ioguid.obj
 0001:000018fc       _GUID_IO_VOLUME_UNLOCK     004028fc     io:ioguid.obj
 0001:0000190c       _GUID_IO_VOLUME_NAME_CHANGE 0040290c     io:ioguid.obj
 0001:0000191c       _GUID_IO_VOLUME_PHYSICAL_CONFIGURATION_CHANGE 0040291c     io:ioguid.obj
 0001:0000192c       _GUID_IO_VOLUME_DEVICE_INTERFACE 0040292c     io:ioguid.obj
 0001:0000193c       _GUID_IO_MEDIA_ARRIVAL     0040293c     io:ioguid.obj
 0001:0000194c       _GUID_IO_MEDIA_REMOVAL     0040294c     io:ioguid.obj
 0001:0000195c       _GUID_IO_DEVICE_BECOMING_READY 0040295c     io:ioguid.obj
 0001:0000196c       _GUID_IO_DEVICE_EXTERNAL_REQUEST 0040296c     io:ioguid.obj
 0001:0000197c       _GUID_IO_MEDIA_EJECT_REQUEST 0040297c     io:ioguid.obj
 0001:0000198c       _GUID_IO_DRIVE_REQUIRES_CLEANING 0040298c     io:ioguid.obj
 0001:0000199c       _GUID_IO_TAPE_ERASE        0040299c     io:ioguid.obj
 0001:000019ac       _GUID_DEVICE_EVENT_RBC     004029ac     io:ioguid.obj
 0001:000019bc       _GUID_IO_DISK_CLONE_ARRIVAL 004029bc     io:ioguid.obj
 0001:000019cc       _GUID_IO_DISK_LAYOUT_CHANGE 004029cc     io:ioguid.obj
 0001:000019dc       _GUID_HWPROFILE_QUERY_CHANGE 004029dc     io:ioguid.obj
 0001:000019ec       _GUID_HWPROFILE_CHANGE_CANCELLED 004029ec     io:ioguid.obj
 0001:000019fc       _GUID_HWPROFILE_CHANGE_COMPLETE 004029fc     io:ioguid.obj
 0001:00001a0c       _GUID_DEVICE_INTERFACE_ARRIVAL 00402a0c     io:ioguid.obj
 0001:00001a1c       _GUID_DEVICE_INTERFACE_REMOVAL 00402a1c     io:ioguid.obj
 0001:00001a2c       _GUID_TARGET_DEVICE_QUERY_REMOVE 00402a2c     io:ioguid.obj
 0001:00001a3c       _GUID_TARGET_DEVICE_REMOVE_CANCELLED 00402a3c     io:ioguid.obj
 0001:00001a4c       _GUID_TARGET_DEVICE_REMOVE_COMPLETE 00402a4c     io:ioguid.obj
 0001:00001a5c       _GUID_PNP_CUSTOM_NOTIFICATION 00402a5c     io:ioguid.obj
 0001:00001a6c       _GUID_PNP_POWER_NOTIFICATION 00402a6c     io:ioguid.obj
 0001:00001a7c       _GUID_BUS_INTERFACE_STANDARD 00402a7c     io:ioguid.obj
 0001:00001a8c       _GUID_PCI_BUS_INTERFACE_STANDARD 00402a8c     io:ioguid.obj
 0001:00001a9c       _GUID_AGP_TARGET_BUS_INTERFACE_STANDARD 00402a9c     io:ioguid.obj
 0001:00001aac       _GUID_ARBITER_INTERFACE_STANDARD 00402aac     io:ioguid.obj
 0001:00001abc       _GUID_TRANSLATOR_INTERFACE_STANDARD 00402abc     io:ioguid.obj
 0001:00001acc       _GUID_ACPI_INTERFACE_STANDARD 00402acc     io:ioguid.obj
 0001:00001adc       _GUID_INT_ROUTE_INTERFACE_STANDARD 00402adc     io:ioguid.obj
 0001:00001aec       _GUID_PCMCIA_BUS_INTERFACE_STANDARD 00402aec     io:ioguid.obj
 0001:00001afc       _GUID_ACPI_REGS_INTERFACE_STANDARD 00402afc     io:ioguid.obj
 0001:00001b0c       _GUID_LEGACY_DEVICE_DETECTION_STANDARD 00402b0c     io:ioguid.obj
 0001:00001b1c       _GUID_PCI_DEVICE_PRESENT_INTERFACE 00402b1c     io:ioguid.obj
 0001:00001b2c       _GUID_MF_ENUMERATION_INTERFACE 00402b2c     io:ioguid.obj
 0001:00001b3c       _GUID_ACPI_CMOS_INTERFACE_STANDARD 00402b3c     io:ioguid.obj
 0001:00001b4c       _GUID_ACPI_PORT_RANGES_INTERFACE_STANDARD 00402b4c     io:ioguid.obj
 0001:00001b5c       _GUID_PNP_LOCATION_INTERFACE 00402b5c     io:ioguid.obj
 0001:00001b6c       _GUID_BUS_TYPE_INTERNAL    00402b6c     io:ioguid.obj
 0001:00001b7c       _GUID_BUS_TYPE_PCMCIA      00402b7c     io:ioguid.obj
 0001:00001b8c       _GUID_BUS_TYPE_PCI         00402b8c     io:ioguid.obj
 0001:00001b9c       _GUID_BUS_TYPE_ISAPNP      00402b9c     io:ioguid.obj
 0001:00001bac       _GUID_BUS_TYPE_EISA        00402bac     io:ioguid.obj
 0001:00001bbc       _GUID_BUS_TYPE_MCA         00402bbc     io:ioguid.obj
 0001:00001bcc       _GUID_BUS_TYPE_LPTENUM     00402bcc     io:ioguid.obj
 0001:00001bdc       _GUID_BUS_TYPE_USBPRINT    00402bdc     io:ioguid.obj
 0001:00001bec       _GUID_BUS_TYPE_DOT4PRT     00402bec     io:ioguid.obj
 0001:00001bfc       _GUID_BUS_TYPE_SERENUM     00402bfc     io:ioguid.obj
 0001:00001c0c       _GUID_BUS_TYPE_USB         00402c0c     io:ioguid.obj
 0001:00001c1c       _GUID_BUS_TYPE_1394        00402c1c     io:ioguid.obj
 0001:00001c2c       _GUID_BUS_TYPE_HID         00402c2c     io:ioguid.obj
 0001:00001c3c       _GUID_BUS_TYPE_AVC         00402c3c     io:ioguid.obj
 0001:00001c4c       _GUID_BUS_TYPE_IRDA        00402c4c     io:ioguid.obj
 0001:00001c5c       _GUID_BUS_TYPE_SD          00402c5c     io:ioguid.obj
 0001:00001c6c       _GUID_POWER_DEVICE_ENABLE  00402c6c     io:ioguid.obj
 0001:00001c7c       _GUID_POWER_DEVICE_TIMEOUTS 00402c7c     io:ioguid.obj
 0001:00001c8c       _GUID_POWER_DEVICE_WAKE_ENABLE 00402c8c     io:ioguid.obj
 0001:00001c9c       _GUID_DEVICE_ARRIVAL       00402c9c     io:ioguid.obj
 0001:00001cac       _GUID_DEVICE_ENUMERATED    00402cac     io:ioguid.obj
 0001:00001cbc       _GUID_DEVICE_ENUMERATE_REQUEST 00402cbc     io:ioguid.obj
 0001:00001ccc       _GUID_DEVICE_START_REQUEST 00402ccc     io:ioguid.obj
 0001:00001cdc       _GUID_DEVICE_REMOVE_PENDING 00402cdc     io:ioguid.obj
 0001:00001cec       _GUID_DEVICE_QUERY_AND_REMOVE 00402cec     io:ioguid.obj
 0001:00001cfc       _GUID_DEVICE_EJECT         00402cfc     io:ioguid.obj
 0001:00001d0c       _GUID_DEVICE_NOOP          00402d0c     io:ioguid.obj
 0001:00001d1c       _GUID_DEVICE_SURPRISE_REMOVAL 00402d1c     io:ioguid.obj
 0001:00001d2c       _GUID_DEVICE_SAFE_REMOVAL  00402d2c     io:ioguid.obj
 0001:00001d3c       _GUID_DEVICE_EJECT_VETOED  00402d3c     io:ioguid.obj
 0001:00001d4c       _GUID_DEVICE_REMOVAL_VETOED 00402d4c     io:ioguid.obj
 0001:00001d5c       _GUID_DEVICE_WARM_EJECT_VETOED 00402d5c     io:ioguid.obj
 0001:00001d6c       _GUID_DEVICE_STANDBY_VETOED 00402d6c     io:ioguid.obj
 0001:00001d7c       _GUID_DEVICE_HIBERNATE_VETOED 00402d7c     io:ioguid.obj
 0001:00001d8c       _GUID_DEVICE_KERNEL_INITIATED_EJECT 00402d8c     io:ioguid.obj
 0001:00001d9c       _GUID_DEVICE_INVALID_ID    00402d9c     io:ioguid.obj
 0001:00001dac       _GUID_DRIVER_BLOCKED       00402dac     io:ioguid.obj
 0001:00001dbc       _GUID_SETUP_DEVICE_ARRIVAL 00402dbc     io:ioguid.obj
 0001:00001dcc       _GUID_DEVINTERFACE_DISK    00402dcc     io:ioguid.obj
 0001:00001ddc       _GUID_DEVINTERFACE_CDROM   00402ddc     io:ioguid.obj
 0001:00001dec       _GUID_DEVINTERFACE_PARTITION 00402dec     io:ioguid.obj
 0001:00001dfc       _GUID_DEVINTERFACE_TAPE    00402dfc     io:ioguid.obj
 0001:00001e0c       _GUID_DEVINTERFACE_WRITEONCEDISK 00402e0c     io:ioguid.obj
 0001:00001e1c       _GUID_DEVINTERFACE_VOLUME  00402e1c     io:ioguid.obj
 0001:00001e2c       _GUID_DEVINTERFACE_MEDIUMCHANGER 00402e2c     io:ioguid.obj
 0001:00001e3c       _GUID_DEVINTERFACE_FLOPPY  00402e3c     io:ioguid.obj
 0001:00001e4c       _GUID_DEVINTERFACE_CDCHANGER 00402e4c     io:ioguid.obj
 0001:00001e5c       _GUID_DEVINTERFACE_STORAGEPORT 00402e5c     io:ioguid.obj
 0001:00001e6c       _GUID_DOCK_INTERFACE       00402e6c     io:ioguid.obj
 0001:000023c4       _KiDebugRegisterTrapOffsets 004033c4     ke:misc.obj
 0001:000023e4       _KiDebugRegisterContextOffsets 004033e4     ke:misc.obj
 0001:00002430       __real@4147ffff80000000    00403430     ke:kernlini.obj
 0001:00002438       __real@4150017ec0000000    00403438     ke:kernlini.obj
 0001:00002628       _MmClaimParameterAdjustUpTime 00403628     mm:wsmanage.obj
 0001:00002630       _MmClaimParameterAdjustDownTime 00403630     mm:wsmanage.obj
 0001:00002638       _MMSECT                    00403638     mm:miglobal.obj
 0001:00002640       _MmSevenMinutes            00403640     mm:miglobal.obj
 0001:00002648       _MmOneSecond               00403648     mm:miglobal.obj
 0001:00002650       _MmTwentySeconds           00403650     mm:miglobal.obj
 0001:00002658       _MmSeventySeconds          00403658     mm:miglobal.obj
 0001:00002660       _MmShortTime               00403660     mm:miglobal.obj
 0001:00002668       _MmHalfSecond              00403668     mm:miglobal.obj
 0001:00002670       _Mm30Milliseconds          00403670     mm:miglobal.obj
 0001:00002678       ??_C@_04OHJIHAFH@None?$AA@ 00403678     mm:iosup.obj
 0001:00002680       ??_C@_0O@HEKOFAMI@writecombined?$AA@ 00403680     mm:iosup.obj
 0001:00002690       ??_C@_06HEOINPBP@cached?$AA@ 00403690     mm:iosup.obj
 0001:00002698       ??_C@_09IDJLKACI@noncached?$AA@ 00403698     mm:iosup.obj
 0001:000026c4       _MMVADKEY                  004036c4     mm:allocvm.obj
 0001:000026f8       _MMCONTROL                 004036f8     mm:creasect.obj
 0001:000026fc       _MMTEMPORARY               004036fc     mm:creasect.obj
 0001:000027d8       _MMDB                      004037d8     mm:mapview.obj
 0001:00002a7c       _ZeroPte                   00403a7c     mm:data386.obj
 0001:00002a80       _ZeroKernelPte             00403a80     mm:data386.obj
 0001:00002a84       _ValidKernelPteLocal       00403a84     mm:data386.obj
 0001:00002a88       _ValidUserPte              00403a88     mm:data386.obj
 0001:00002a8c       _ValidPtePte               00403a8c     mm:data386.obj
 0001:00002a90       _ValidPdePde               00403a90     mm:data386.obj
 0001:00002a94       _ValidKernelPdeLocal       00403a94     mm:data386.obj
 0001:00002a98       _DemandZeroPte             00403a98     mm:data386.obj
 0001:00002a9c       _TransitionPde             00403a9c     mm:data386.obj
 0001:00002aa0       _NoAccessPte               00403aa0     mm:data386.obj
 0001:00002bc8       _RtlpBitsClearAnywhere     00403bc8     ntosrtl:bitmap.obj
 0001:00002cc8       _RtlpBitsClearLow          00403cc8     ntosrtl:bitmap.obj
 0001:00002dc8       _RtlpBitsClearHigh         00403dc8     ntosrtl:bitmap.obj
 0001:00002ec8       _RtlpBitsClearTotal        00403ec8     ntosrtl:bitmap.obj
 0001:000030e0       _RtlpStatusTable           004040e0     ntosrtl:error.obj
 0001:000039b8       _RtlpRunTable              004049b8     ntosrtl:error.obj
 0001:00003e58       _LeapYearDayToMonth        00404e58     ntosrtl:time.obj
 0001:00003fc8       _NormalYearDayToMonth      00404fc8     ntosrtl:time.obj
 0001:00004138       _LeapYearDaysPrecedingMonth 00405138     ntosrtl:time.obj
 0001:00004154       _NormalYearDaysPrecedingMonth 00405154     ntosrtl:time.obj
 0001:00004170       _SecondsToStartOf1970      00405170     ntosrtl:time.obj
 0001:00004178       _SecondsToStartOf1980      00405178     ntosrtl:time.obj
 0001:00004180       _Magic10000                00405180     ntosrtl:time.obj
 0001:00004188       _Magic10000000             00405188     ntosrtl:time.obj
 0001:00004190       _Magic86400000             00405190     ntosrtl:time.obj
 0001:0000471c       _ObpObjectBuckets          0040571c     ob:obref.obj
 0001:00004720       _ObpMaxStacks              00405720     ob:obref.obj
 0001:00004724       _ObpStacksPerObject        00405724     ob:obref.obj
 0001:00004728       _ObpTraceDepth             00405728     ob:obref.obj
 0001:0000484c       _ObWatchHandles            0040584c     ob:obcreate.obj
 0001:000049b4       _PerfNullHookHandle        004059b4     perf:perfdata.obj
 0001:00005128       _WmiOneSecond              00406128     wmi:wmidata.obj
 0001:00005130       _WmiShortTime              00406130     wmi:wmidata.obj
 0001:00005138       _NtdllTraceGuid            00406138     wmi:wmidata.obj
 0001:00005148       _CritSecGuid               00406148     wmi:wmidata.obj
 0001:00005158       _HeapGuid                  00406158     wmi:wmidata.obj
 0001:00005168       _SystemTraceControlGuid    00406168     wmi:wmidata.obj
 0001:00005184       _WmipDataProviderPnpidGuid 00406184     wmi:register.obj
 0001:00005194       _WmipDataProviderPnPIdInstanceNamesGuid 00406194     wmi:register.obj
 0001:000051f4       _abWPAStringKey            004061f4     ntoswrk:SYSTIME.obj
 0001:00005280       _NtMajorVersion            00406280     ntoswrk:INIT.obj
 0001:00005284       _NtMinorVersion            00406284     ntoswrk:INIT.obj
 0001:00005288       _NtBuildLab                00406288     ntoswrk:INIT.obj
 0001:000052a3       ??_C@_00CNPNBAHC@?$AA@     004062a3     ntoswrk:INIT.obj
 0001:000052d8       _LsapEvent                 004062d8     ntoswrk:austub.obj
 0001:0000532c       _LsapPort                  0040632c     ntoswrk:austub.obj
 0001:0000535c       ??_C@_0BB@NAIGLFPK@ZwYieldExecution?$AA@ 0040635c     ntoswrk:VERIFIER.obj
 0001:00005370       ??_C@_0M@EHICNDGI@ZwWriteFile?$AA@ 00406370     ntoswrk:VERIFIER.obj
 0001:0000537c       ??_C@_0BG@DJNHKNCA@ZwWaitForSingleObject?$AA@ 0040637c     ntoswrk:VERIFIER.obj
 0001:00005394       ??_C@_0BJ@ODAMPGLM@ZwWaitForMultipleObjects?$AA@ 00406394     ntoswrk:VERIFIER.obj
 0001:000053b0       ??_C@_0BF@IPAHFEPJ@ZwUnmapViewOfSection?$AA@ 004063b0     ntoswrk:VERIFIER.obj
 0001:000053c8       ??_C@_0M@OHLHELHF@ZwUnloadKey?$AA@ 004063c8     ntoswrk:VERIFIER.obj
 0001:000053d4       ??_C@_0P@IBIICCAK@ZwUnloadDriver?$AA@ 004063d4     ntoswrk:VERIFIER.obj
 0001:000053e4       ??_C@_0BE@KMEIDNLK@ZwTranslateFilePath?$AA@ 004063e4     ntoswrk:VERIFIER.obj
 0001:000053f8       ??_C@_0BD@KGKBMFPI@ZwTerminateProcess?$AA@ 004063f8     ntoswrk:VERIFIER.obj
 0001:0000540c       ??_C@_0BF@MNDFANJG@ZwTerminateJobObject?$AA@ 0040640c     ntoswrk:VERIFIER.obj
 0001:00005424       ??_C@_0BL@EBHBPCHL@ZwSetVolumeInformationFile?$AA@ 00406424     ntoswrk:VERIFIER.obj
 0001:00005440       ??_C@_0O@COONLEMJ@ZwSetValueKey?$AA@ 00406440     ntoswrk:VERIFIER.obj
 0001:00005450       ??_C@_0L@EIGLBALK@ZwSetTimer?$AA@ 00406450     ntoswrk:VERIFIER.obj
 0001:0000545c       ??_C@_0BA@GJOBDCAM@ZwSetSystemTime?$AA@ 0040645c     ntoswrk:VERIFIER.obj
 0001:0000546c       ??_C@_0BH@DOPPEBEJ@ZwSetSystemInformation?$AA@ 0040646c     ntoswrk:VERIFIER.obj
 0001:00005484       ??_C@_0BE@JGCEKJAC@ZwSetSecurityObject?$AA@ 00406484     ntoswrk:VERIFIER.obj
 0001:00005498       ??_C@_0BH@JHOFABAM@ZwSetInformationThread?$AA@ 00406498     ntoswrk:VERIFIER.obj
 0001:000054b0       ??_C@_0BI@OMNEIICC@ZwSetInformationProcess?$AA@ 004064b0     ntoswrk:VERIFIER.obj
 0001:000054c8       ??_C@_0BH@EKHBPACC@ZwSetInformationObject?$AA@ 004064c8     ntoswrk:VERIFIER.obj
 0001:000054e0       ??_C@_0BK@LOIPFHFL@ZwSetInformationJobObject?$AA@ 004064e0     ntoswrk:VERIFIER.obj
 0001:000054fc       ??_C@_0BF@IOCOIHLM@ZwSetInformationFile?$AA@ 004064fc     ntoswrk:VERIFIER.obj
 0001:00005514       ??_C@_0L@PNOKKBFP@ZwSetEvent?$AA@ 00406514     ntoswrk:VERIFIER.obj
 0001:00005520       ??_C@_0M@PEPDJEKA@ZwSetEaFile?$AA@ 00406520     ntoswrk:VERIFIER.obj
 0001:0000552c       ??_C@_0BG@EMHFEHPC@ZwSetDriverEntryOrder?$AA@ 0040652c     ntoswrk:VERIFIER.obj
 0001:00005544       ??_C@_0BH@KHNFJKFB@ZwSetDefaultUILanguage?$AA@ 00406544     ntoswrk:VERIFIER.obj
 0001:0000555c       ??_C@_0BD@BJMMIMNH@ZwSetDefaultLocale?$AA@ 0040655c     ntoswrk:VERIFIER.obj
 0001:00005570       ??_C@_0BB@COOOOIJN@ZwSetBootOptions?$AA@ 00406570     ntoswrk:VERIFIER.obj
 0001:00005584       ??_C@_0BE@MMAIHNII@ZwSetBootEntryOrder?$AA@ 00406584     ntoswrk:VERIFIER.obj
 0001:00005598       ??_C@_0M@JMDIMOCF@ZwSaveKeyEx?$AA@ 00406598     ntoswrk:VERIFIER.obj
 0001:000055a4       ??_C@_09KALEJOMJ@ZwSaveKey?$AA@ 004065a4     ntoswrk:VERIFIER.obj
 0001:000055b0       ??_C@_0N@PDJGDHEJ@ZwRestoreKey?$AA@ 004065b0     ntoswrk:VERIFIER.obj
 0001:000055c0       ??_C@_0N@OBHHFNCO@ZwResetEvent?$AA@ 004065c0     ntoswrk:VERIFIER.obj
 0001:000055d0       ??_C@_0BH@IAKOPMKC@ZwRequestWaitReplyPort?$AA@ 004065d0     ntoswrk:VERIFIER.obj
 0001:000055e8       ??_C@_0N@PNPAILHB@ZwReplaceKey?$AA@ 004065e8     ntoswrk:VERIFIER.obj
 0001:000055f8       ??_C@_0L@KICNCAKG@ZwReadFile?$AA@ 004065f8     ntoswrk:VERIFIER.obj
 0001:00005604       ??_C@_0BN@LODIJCKM@ZwQueryVolumeInformationFile?$AA@ 00406604     ntoswrk:VERIFIER.obj
 0001:00005624       ??_C@_0BA@BEBJGGBP@ZwQueryValueKey?$AA@ 00406624     ntoswrk:VERIFIER.obj
 0001:00005634       ??_C@_0BJ@CIAKDCJK@ZwQuerySystemInformation?$AA@ 00406634     ntoswrk:VERIFIER.obj
 0001:00005650       ??_C@_0BK@OAMNJJCG@ZwQuerySymbolicLinkObject?$AA@ 00406650     ntoswrk:VERIFIER.obj
 0001:0000566c       ??_C@_0BG@IBIOJLLP@ZwQuerySecurityObject?$AA@ 0040666c     ntoswrk:VERIFIER.obj
 0001:00005684       ??_C@_0P@NHBMKANJ@ZwQuerySection?$AA@ 00406684     ntoswrk:VERIFIER.obj
 0001:00005694       ??_C@_0O@EHBHKBHL@ZwQueryObject?$AA@ 00406694     ntoswrk:VERIFIER.obj
 0001:000056a4       ??_C@_0L@MDHMGON@ZwQueryKey?$AA@ 004066a4     ntoswrk:VERIFIER.obj
 0001:000056b0       ??_C@_0BI@PMBCGPFP@ZwQueryInformationToken?$AA@ 004066b0     ntoswrk:VERIFIER.obj
 0001:000056c8       ??_C@_0BJ@IBBAHCNP@ZwQueryInformationThread?$AA@ 004066c8     ntoswrk:VERIFIER.obj
 0001:000056e4       ??_C@_0BK@PDBIPODP@ZwQueryInformationProcess?$AA@ 004066e4     ntoswrk:VERIFIER.obj
 0001:00005700       ??_C@_0BM@PIIFPAIC@ZwQueryInformationJobObject?$AA@ 00406700     ntoswrk:VERIFIER.obj
 0001:0000571c       ??_C@_0BH@DLOJOCLP@ZwQueryInformationFile?$AA@ 0040671c     ntoswrk:VERIFIER.obj
 0001:00005734       ??_C@_0BK@BDBDIBMH@ZwQueryFullAttributesFile?$AA@ 00406734     ntoswrk:VERIFIER.obj
 0001:00005750       ??_C@_0O@HDJBJFAL@ZwQueryEaFile?$AA@ 00406750     ntoswrk:VERIFIER.obj
 0001:00005760       ??_C@_0BH@BBJALJBF@ZwQueryDirectoryObject?$AA@ 00406760     ntoswrk:VERIFIER.obj
 0001:00005778       ??_C@_0BF@NMACOFBK@ZwQueryDirectoryFile?$AA@ 00406778     ntoswrk:VERIFIER.obj
 0001:00005790       ??_C@_0BJ@GJJANIEK@ZwQueryInstallUILanguage?$AA@ 00406790     ntoswrk:VERIFIER.obj
 0001:000057ac       ??_C@_0BI@NFMJNBCN@ZwQueryDriverEntryOrder?$AA@ 004067ac     ntoswrk:VERIFIER.obj
 0001:000057c4       ??_C@_0BJ@LBCAOJIC@ZwQueryDefaultUILanguage?$AA@ 004067c4     ntoswrk:VERIFIER.obj
 0001:000057e0       ??_C@_0BF@EEAHCEJ@ZwQueryDefaultLocale?$AA@ 004067e0     ntoswrk:VERIFIER.obj
 0001:000057f8       ??_C@_0BD@KODEDALN@ZwQueryBootOptions?$AA@ 004067f8     ntoswrk:VERIFIER.obj
 0001:0000580c       ??_C@_0BG@NLKCEPDF@ZwQueryBootEntryOrder?$AA@ 0040680c     ntoswrk:VERIFIER.obj
 0001:00005824       ??_C@_0N@JGLBEHHB@ZwPulseEvent?$AA@ 00406824     ntoswrk:VERIFIER.obj
 0001:00005834       ??_C@_0BD@FJKHNGHL@ZwPowerInformation?$AA@ 00406834     ntoswrk:VERIFIER.obj
 0001:00005848       ??_C@_0M@MAILKIKO@ZwOpenTimer?$AA@ 00406848     ntoswrk:VERIFIER.obj
 0001:00005854       ??_C@_0BE@ONNANPEN@ZwOpenThreadTokenEx?$AA@ 00406854     ntoswrk:VERIFIER.obj
 0001:00005868       ??_C@_0BC@IHGIMNLF@ZwOpenThreadToken?$AA@ 00406868     ntoswrk:VERIFIER.obj
 0001:0000587c       ??_C@_0N@HLDGFDL@ZwOpenThread?$AA@ 0040687c     ntoswrk:VERIFIER.obj
 0001:0000588c       ??_C@_0BJ@CLLKOGDP@ZwOpenSymbolicLinkObject?$AA@ 0040688c     ntoswrk:VERIFIER.obj
 0001:000058a8       ??_C@_0O@HNILNMLD@ZwOpenSection?$AA@ 004068a8     ntoswrk:VERIFIER.obj
 0001:000058b8       ??_C@_0BF@GEAAJNAA@ZwOpenProcessTokenEx?$AA@ 004068b8     ntoswrk:VERIFIER.obj
 0001:000058d0       ??_C@_0BD@FICHFIDH@ZwOpenProcessToken?$AA@ 004068d0     ntoswrk:VERIFIER.obj
 0001:000058e4       ??_C@_0O@FEPJHLEJ@ZwOpenProcess?$AA@ 004068e4     ntoswrk:VERIFIER.obj
 0001:000058f4       ??_C@_09LIJLGMPD@ZwOpenKey?$AA@ 004068f4     ntoswrk:VERIFIER.obj
 0001:00005900       ??_C@_0BA@BMDCPOLM@ZwOpenJobObject?$AA@ 00406900     ntoswrk:VERIFIER.obj
 0001:00005910       ??_C@_0L@JECNLNLK@ZwOpenFile?$AA@ 00406910     ntoswrk:VERIFIER.obj
 0001:0000591c       ??_C@_0M@HFAKBJEL@ZwOpenEvent?$AA@ 0040691c     ntoswrk:VERIFIER.obj
 0001:00005928       ??_C@_0BG@EBIHBOPF@ZwOpenDirectoryObject?$AA@ 00406928     ntoswrk:VERIFIER.obj
 0001:00005940       ??_C@_0BC@JHKPHPDB@ZwNotifyChangeKey?$AA@ 00406940     ntoswrk:VERIFIER.obj
 0001:00005954       ??_C@_0BE@MACMJJBB@ZwModifyDriverEntry?$AA@ 00406954     ntoswrk:VERIFIER.obj
 0001:00005968       ??_C@_0BC@JMHOIME@ZwModifyBootEntry?$AA@ 00406968     ntoswrk:VERIFIER.obj
 0001:0000597c       ??_C@_0BD@PPCCBCGB@ZwMapViewOfSection?$AA@ 0040697c     ntoswrk:VERIFIER.obj
 0001:00005990       ??_C@_0BG@CKOEGIOA@ZwMakeTemporaryObject?$AA@ 00406990     ntoswrk:VERIFIER.obj
 0001:000059a8       ??_C@_09HGKDNNIA@ZwLoadKey?$AA@ 004069a8     ntoswrk:VERIFIER.obj
 0001:000059b4       ??_C@_0N@PEGGKEB@ZwLoadDriver?$AA@ 004069b4     ntoswrk:VERIFIER.obj
 0001:000059c4       ??_C@_0BB@HJCDFOCC@ZwIsProcessInJob?$AA@ 004069c4     ntoswrk:VERIFIER.obj
 0001:000059d8       ??_C@_0BG@KKKBEHBC@ZwInitiatePowerAction?$AA@ 004069d8     ntoswrk:VERIFIER.obj
 0001:000059f0       ??_C@_0BA@MOGBMDLL@ZwFsControlFile?$AA@ 004069f0     ntoswrk:VERIFIER.obj
 0001:00005a00       ??_C@_0BE@KMLKHMJK@ZwFreeVirtualMemory?$AA@ 00406a00     ntoswrk:VERIFIER.obj
 0001:00005a14       ??_C@_0BF@PEDIMKOI@ZwFlushVirtualMemory?$AA@ 00406a14     ntoswrk:VERIFIER.obj
 0001:00005a2c       ??_C@_0L@FGGADCAM@ZwFlushKey?$AA@ 00406a2c     ntoswrk:VERIFIER.obj
 0001:00005a38       ??_C@_0BI@LEEJKIGN@ZwFlushInstructionCache?$AA@ 00406a38     ntoswrk:VERIFIER.obj
 0001:00005a50       ??_C@_0BE@IIIKCKBL@ZwEnumerateValueKey?$AA@ 00406a50     ntoswrk:VERIFIER.obj
 0001:00005a64       ??_C@_0P@GMGACGJD@ZwEnumerateKey?$AA@ 00406a64     ntoswrk:VERIFIER.obj
 0001:00005a74       ??_C@_0BJ@IOALJHII@ZwEnumerateDriverEntries?$AA@ 00406a74     ntoswrk:VERIFIER.obj
 0001:00005a90       ??_C@_0BH@ENILHPP@ZwEnumerateBootEntries?$AA@ 00406a90     ntoswrk:VERIFIER.obj
 0001:00005aa8       ??_C@_0BB@KLKOBDFJ@ZwDuplicateToken?$AA@ 00406aa8     ntoswrk:VERIFIER.obj
 0001:00005abc       ??_C@_0BC@LFLAJKLI@ZwDuplicateObject?$AA@ 00406abc     ntoswrk:VERIFIER.obj
 0001:00005ad0       ??_C@_0BA@NCONONMM@ZwDisplayString?$AA@ 00406ad0     ntoswrk:VERIFIER.obj
 0001:00005ae0       ??_C@_0BG@HMIJCKHG@ZwDeviceIoControlFile?$AA@ 00406ae0     ntoswrk:VERIFIER.obj
 0001:00005af8       ??_C@_0BB@NOBGMBBD@ZwDeleteValueKey?$AA@ 00406af8     ntoswrk:VERIFIER.obj
 0001:00005b0c       ??_C@_0M@GHIFNKKI@ZwDeleteKey?$AA@ 00406b0c     ntoswrk:VERIFIER.obj
 0001:00005b18       ??_C@_0N@GIELCLHA@ZwDeleteFile?$AA@ 00406b18     ntoswrk:VERIFIER.obj
 0001:00005b28       ??_C@_0BE@JFIEIPOO@ZwDeleteDriverEntry?$AA@ 00406b28     ntoswrk:VERIFIER.obj
 0001:00005b3c       ??_C@_0BC@FOJPBJKO@ZwDeleteBootEntry?$AA@ 00406b3c     ntoswrk:VERIFIER.obj
 0001:00005b50       ??_C@_0O@OJGKKHJH@ZwCreateTimer?$AA@ 00406b50     ntoswrk:VERIFIER.obj
 0001:00005b60       ??_C@_0BL@IMDBMKPE@ZwCreateSymbolicLinkObject?$AA@ 00406b60     ntoswrk:VERIFIER.obj
 0001:00005b7c       ??_C@_0BA@ODLAGFHJ@ZwCreateSection?$AA@ 00406b7c     ntoswrk:VERIFIER.obj
 0001:00005b8c       ??_C@_0M@KGPINBFB@ZwCreateKey?$AA@ 00406b8c     ntoswrk:VERIFIER.obj
 0001:00005b98       ??_C@_0BC@JPJKFEGL@ZwCreateJobObject?$AA@ 00406b98     ntoswrk:VERIFIER.obj
 0001:00005bac       ??_C@_0N@KMOLBMMD@ZwCreateFile?$AA@ 00406bac     ntoswrk:VERIFIER.obj
 0001:00005bbc       ??_C@_0O@FMOLBGHC@ZwCreateEvent?$AA@ 00406bbc     ntoswrk:VERIFIER.obj
 0001:00005bcc       ??_C@_0BI@BPIHCBGG@ZwCreateDirectoryObject?$AA@ 00406bcc     ntoswrk:VERIFIER.obj
 0001:00005be4       ??_C@_0O@DGDHBLML@ZwConnectPort?$AA@ 00406be4     ntoswrk:VERIFIER.obj
 0001:00005bf4       ??_C@_0BI@IDLCOIHA@ZwCloseObjectAuditAlarm?$AA@ 00406bf4     ntoswrk:VERIFIER.obj
 0001:00005c0c       ??_C@_07IPICGNAN@ZwClose?$AA@ 00406c0c     ntoswrk:VERIFIER.obj
 0001:00005c14       ??_C@_0N@EKFKGNNE@ZwClearEvent?$AA@ 00406c14     ntoswrk:VERIFIER.obj
 0001:00005c24       ??_C@_0O@CNOBKCEK@ZwCancelTimer?$AA@ 00406c24     ntoswrk:VERIFIER.obj
 0001:00005c34       ??_C@_0P@LEIBOHAK@ZwCancelIoFile?$AA@ 00406c34     ntoswrk:VERIFIER.obj
 0001:00005c44       ??_C@_0BL@OEDEBAMI@ZwAssignProcessToJobObject?$AA@ 00406c44     ntoswrk:VERIFIER.obj
 0001:00005c60       ??_C@_0BI@HKENIFPC@ZwAllocateVirtualMemory?$AA@ 00406c60     ntoswrk:VERIFIER.obj
 0001:00005c78       ??_C@_0O@NICFFCDG@ZwAlertThread?$AA@ 00406c78     ntoswrk:VERIFIER.obj
 0001:00005c88       ??_C@_0BI@PGLJEMKC@ZwAdjustPrivilegesToken?$AA@ 00406c88     ntoswrk:VERIFIER.obj
 0001:00005ca0       ??_C@_0BB@KIFBPAKN@ZwAddDriverEntry?$AA@ 00406ca0     ntoswrk:VERIFIER.obj
 0001:00005cb4       ??_C@_0P@NJGBECCE@ZwAddBootEntry?$AA@ 00406cb4     ntoswrk:VERIFIER.obj
 0001:00005cc4       ??_C@_0BL@LBCFAPLA@ZwAccessCheckAndAuditAlarm?$AA@ 00406cc4     ntoswrk:VERIFIER.obj
 0001:00005ce0       ??_C@_0BD@HKGBGMOG@IoFreeMapRegisters?$AA@ 00406ce0     ntoswrk:VERIFIER.obj
 0001:00005cf4       ??_C@_0BF@GLOANGCD@IoFreeAdapterChannel?$AA@ 00406cf4     ntoswrk:VERIFIER.obj
 0001:00005d0c       ??_C@_0BJ@KFCEPHJG@IoAllocateAdapterChannel?$AA@ 00406d0c     ntoswrk:VERIFIER.obj
 0001:00005d28       ??_C@_0BE@LEBEIBPC@HalFreeCommonBuffer?$AA@ 00406d28     ntoswrk:VERIFIER.obj
 0001:00005d3c       ??_C@_0BI@NNECMFPB@HalAllocateCommonBuffer?$AA@ 00406d3c     ntoswrk:VERIFIER.obj
 0001:00005d54       ??_C@_0BG@ICCJOPAF@IoFlushAdapterBuffers?$AA@ 00406d54     ntoswrk:VERIFIER.obj
 0001:00005d6c       ??_C@_0O@MCJHEAP@IoMapTransfer?$AA@ 00406d6c     ntoswrk:VERIFIER.obj
 0001:00005d7c       ??_C@_0O@NAJHKPON@HalGetAdapter?$AA@ 00406d7c     ntoswrk:VERIFIER.obj
 0001:00005d8c       ??_C@_0BK@PAFEOPMG@ObReferenceObjectByHandle?$AA@ 00406d8c     ntoswrk:VERIFIER.obj
 0001:00005da8       ??_C@_0BO@OCNLMHJA@HalAllocateCrashDumpRegisters?$AA@ 00406da8     ntoswrk:VERIFIER.obj
 0001:00005dc8       ??_C@_0BA@PIHPIHIM@IoGetDmaAdapter?$AA@ 00406dc8     ntoswrk:VERIFIER.obj
 0001:00005dd8       ??_C@_0BK@IPDOLKNL@KeQueryPerformanceCounter?$AA@ 00406dd8     ntoswrk:VERIFIER.obj
 0001:00005df4       ??_C@_0BC@JEDLPOL@IoInitializeTimer?$AA@ 00406df4     ntoswrk:VERIFIER.obj
 0001:00005e08       ??_C@_0BO@PAOFNJIG@IoBuildAsynchronousFsdRequest?$AA@ 00406e08     ntoswrk:VERIFIER.obj
 0001:00005e28       ??_C@_0BO@CPCKJMEP@IoBuildDeviceIoControlRequest?$AA@ 00406e28     ntoswrk:VERIFIER.obj
 0001:00005e48       ??_C@_0BD@CIFKDNMJ@IofCompleteRequest?$AA@ 00406e48     ntoswrk:VERIFIER.obj
 0001:00005e5c       ??_C@_09POLIELFF@IoFreeIrp?$AA@ 00406e5c     ntoswrk:VERIFIER.obj
 0001:00005f50       ??_C@_1EK@NOHGIPMN@?$AA?2?$AAR?$AAE?$AAG?$AAI?$AAS?$AAT?$AAR?$AAY?$AA?2?$AAM?$AAA?$AAC?$AAH?$AAI?$AAN?$AAE?$AA?2?$AAS?$AAO@ 00406f50     ntoswrk:CMSYSINI2.obj
 0001:00006084       _RamdiskBootDiskGuid       00407084     ntoswrk:PNPINIT.obj
 0001:0000629c       ??_C@_0BL@FGKGDOEE@GUID_DEVICE_REMOVAL_VETOED?$AA@ 0040729c     ntoswrk:PNPEVENT.obj
 0001:000062b8       ??_C@_0BJ@PAKKLNFE@GUID_DEVICE_EJECT_VETOED?$AA@ 004072b8     ntoswrk:PNPEVENT.obj
 0001:000062d4       ??_C@_0BJ@FHOCGFHL@GUID_DEVICE_SAFE_REMOVAL?$AA@ 004072d4     ntoswrk:PNPEVENT.obj
 0001:000062f0       ??_C@_0BN@BEIGAFIO@GUID_DEVICE_SURPRISE_REMOVAL?$AA@ 004072f0     ntoswrk:PNPEVENT.obj
 0001:00006310       ??_C@_0BB@MINDJCFK@GUID_DEVICE_NOOP?$AA@ 00407310     ntoswrk:PNPEVENT.obj
 0001:00006324       ??_C@_0BC@IGFLHBNG@GUID_DEVICE_EJECT?$AA@ 00407324     ntoswrk:PNPEVENT.obj
 0001:00006338       ??_C@_0BN@JAOBBMGK@GUID_DEVICE_QUERY_AND_REMOVE?$AA@ 00407338     ntoswrk:PNPEVENT.obj
 0001:00006358       ??_C@_0BL@ENCCPAMK@GUID_DEVICE_REMOVE_PENDING?$AA@ 00407358     ntoswrk:PNPEVENT.obj
 0001:00006374       ??_C@_0BK@OJHAPPFL@GUID_DEVICE_START_REQUEST?$AA@ 00407374     ntoswrk:PNPEVENT.obj
 0001:00006390       ??_C@_0BO@KOIOMFAB@GUID_DEVICE_ENUMERATE_REQUEST?$AA@ 00407390     ntoswrk:PNPEVENT.obj
 0001:000063b0       ??_C@_0BH@CLPAFBAF@GUID_DEVICE_ENUMERATED?$AA@ 004073b0     ntoswrk:PNPEVENT.obj
 0001:000063c8       ??_C@_0BE@PDOFHMMM@GUID_DEVICE_ARRIVAL?$AA@ 004073c8     ntoswrk:PNPEVENT.obj
 0001:000063dc       ??_C@_0BN@CAJJEMII@GUID_PNP_CUSTOM_NOTIFICATION?$AA@ 004073dc     ntoswrk:PNPEVENT.obj
 0001:000063fc       ??_C@_0CD@DENGAMJK@GUID_TARGET_DEVICE_REMOVE_COMPLE@ 004073fc     ntoswrk:PNPEVENT.obj
 0001:00006420       ??_C@_0CE@CLDCDALM@GUID_TARGET_DEVICE_REMOVE_CANCEL@ 00407420     ntoswrk:PNPEVENT.obj
 0001:00006444       ??_C@_0CA@EBOIGJEJ@GUID_TARGET_DEVICE_QUERY_REMOVE?$AA@ 00407444     ntoswrk:PNPEVENT.obj
 0001:00006464       ??_C@_0BO@KCMLDAEA@GUID_DEVICE_INTERFACE_REMOVAL?$AA@ 00407464     ntoswrk:PNPEVENT.obj
 0001:00006484       ??_C@_0BO@IPEGOBCG@GUID_DEVICE_INTERFACE_ARRIVAL?$AA@ 00407484     ntoswrk:PNPEVENT.obj
 0001:000064a4       ??_C@_0BP@FJNKBBFE@GUID_HWPROFILE_CHANGE_COMPLETE?$AA@ 004074a4     ntoswrk:PNPEVENT.obj
 0001:000064c4       ??_C@_0CA@FHIDNDBG@GUID_HWPROFILE_CHANGE_CANCELLED?$AA@ 004074c4     ntoswrk:PNPEVENT.obj
 0001:000064e4       ??_C@_0BM@FFGLHJN@GUID_HWPROFILE_QUERY_CHANGE?$AA@ 004074e4     ntoswrk:PNPEVENT.obj
 0001:00006658       ??_C@_1BG@KMCBNDPK@?$AAA?$AAu?$AAt?$AAo?$AAR?$AAe?$AAb?$AAo?$AAo?$AAt?$AA?$AA@ 00407658     ntoswrk:CMDAT3.obj
 0001:00006670       ??_C@_1BK@FINFFJHL@?$AAC?$AAr?$AAa?$AAs?$AAh?$AAC?$AAo?$AAn?$AAt?$AAr?$AAo?$AAl?$AA?$AA@ 00407670     ntoswrk:CMDAT3.obj
 0001:0000668c       ??_C@_1DA@FIAIHGJJ@?$AAK?$AAe?$AAr?$AAn?$AAe?$AAl?$AAO?$AAn?$AAl?$AAy?$AAC?$AAo?$AAn?$AAf?$AAi?$AAg?$AAu?$AAr?$AAa?$AAt@ 0040768c     ntoswrk:CMDAT3.obj
 0001:000066bc       ??_C@_1CK@CPCDFBHM@?$AAE?$AAm?$AAb?$AAe?$AAd?$AAd?$AAe?$AAd?$AAN?$AAT?$AA?2?$AAE?$AAx?$AAe?$AAc?$AAu?$AAt?$AAi?$AAv?$AAe@ 004076bc     ntoswrk:CMDAT3.obj
 0001:000066e8       ??_C@_1CA@OFLGMBEF@?$AAI?$AAn?$AAi?$AAt?$AAi?$AAa?$AAl?$AA?5?$AAP?$AAr?$AAo?$AAc?$AAe?$AAs?$AAs?$AA?$AA@ 004076e8     ntoswrk:CMDAT3.obj
 0001:00006708       ??_C@_1BO@NKKJJFP@?$AAT?$AAr?$AAa?$AAc?$AAe?$AAA?$AAl?$AAi?$AAg?$AAn?$AAm?$AAe?$AAn?$AAt?$AA?$AA@ 00407708     ntoswrk:CMDAT3.obj
 0001:00006728       ??_C@_1CI@BMLADFAI@?$AAU?$AAs?$AAe?$AAP?$AAe?$AAr?$AAf?$AAo?$AAr?$AAm?$AAa?$AAn?$AAc?$AAe?$AAC?$AAl?$AAo?$AAc?$AAk?$AA?$AA@ 00407728     ntoswrk:CMDAT3.obj
 0001:00006750       ??_C@_1BE@CAJFDKPL@?$AAW?$AAM?$AAI?$AA?2?$AAT?$AAr?$AAa?$AAc?$AAe?$AA?$AA@ 00407750     ntoswrk:CMDAT3.obj
 0001:00006764       ??_C@_1BK@MGJBEAIM@?$AAM?$AAa?$AAx?$AAE?$AAv?$AAe?$AAn?$AAt?$AAS?$AAi?$AAz?$AAe?$AA?$AA@ 00407764     ntoswrk:CMDAT3.obj
 0001:00006780       ??_C@_17JAOENEEM@?$AAW?$AAM?$AAI?$AA?$AA@ 00407780     ntoswrk:CMDAT3.obj
 0001:00006788       ??_C@_1M@FBPBKHKH@?$AAW?$AAO?$AAW?$AA6?$AA4?$AA?$AA@ 00407788     ntoswrk:CMDAT3.obj
 0001:00006794       ??_C@_19GHGNHGLD@?$AAD?$AAF?$AAS?$AAC?$AA?$AA@ 00407794     ntoswrk:CMDAT3.obj
 0001:000067a0       ??_C@_15JEIFMHAO@?$AAM?$AAM?$AA?$AA@ 004077a0     ntoswrk:CMDAT3.obj
 0001:000067a8       ??_C@_1BA@JKCEKNLO@?$AAD?$AAF?$AAR?$AAG?$AAI?$AAF?$AAC?$AA?$AA@ 004077a8     ntoswrk:CMDAT3.obj
 0001:000067b8       ??_C@_1BA@OMLIOJCN@?$AAV?$AAD?$AAS?$AAU?$AAT?$AAI?$AAL?$AA?$AA@ 004077b8     ntoswrk:CMDAT3.obj
 0001:000067c8       ??_C@_1BC@BMCNIKPF@?$AAV?$AAD?$AAS?$AAD?$AAY?$AAN?$AAD?$AAR?$AA?$AA@ 004077c8     ntoswrk:CMDAT3.obj
 0001:000067dc       ??_C@_1O@OGMPALMC@?$AAV?$AAD?$AAS?$AAB?$AAA?$AAS?$AA?$AA@ 004077dc     ntoswrk:CMDAT3.obj
 0001:000067ec       ??_C@_17EEOFDCOB@?$AAV?$AAD?$AAS?$AA?$AA@ 004077ec     ntoswrk:CMDAT3.obj
 0001:000067f4       ??_C@_1BC@KGNJPLCF@?$AAV?$AAE?$AAR?$AAI?$AAF?$AAI?$AAE?$AAR?$AA?$AA@ 004077f4     ntoswrk:CMDAT3.obj
 0001:00006808       ??_C@_1BG@IPGNPLMN@?$AAV?$AAS?$AAS?$AAD?$AAY?$AAN?$AAD?$AAI?$AAS?$AAK?$AA?$AA@ 00407808     ntoswrk:CMDAT3.obj
 0001:00006820       ??_C@_1BK@MCMLANOK@?$AAP?$AAR?$AAI?$AAN?$AAT?$AAS?$AAP?$AAO?$AAO?$AAL?$AAE?$AAR?$AA?$AA@ 00407820     ntoswrk:CMDAT3.obj
 0001:0000683c       ??_C@_1BK@CEBCMCDO@?$AAS?$AAT?$AAO?$AAR?$AAM?$AAI?$AAN?$AAI?$AAP?$AAO?$AAR?$AAT?$AA?$AA@ 0040783c     ntoswrk:CMDAT3.obj
 0001:00006858       ??_C@_1BC@HBMJKFNP@?$AAS?$AAT?$AAO?$AAR?$AAP?$AAO?$AAR?$AAT?$AA?$AA@ 00407858     ntoswrk:CMDAT3.obj
 0001:0000686c       ??_C@_19DBABIMLO@?$AAS?$AAH?$AAP?$AAC?$AA?$AA@ 0040786c     ntoswrk:CMDAT3.obj
 0001:00006878       ??_C@_1O@FAEPPNJD@?$AAI?$AAS?$AAA?$AAP?$AAN?$AAP?$AA?$AA@ 00407878     ntoswrk:CMDAT3.obj
 0001:00006888       ??_C@_1O@BBGFHLK@?$AAT?$AAC?$AAP?$AAI?$AAP?$AA6?$AA?$AA@ 00407888     ntoswrk:CMDAT3.obj
 0001:00006898       ??_C@_17BBCCHIGH@?$AAL?$AAD?$AAR?$AA?$AA@ 00407898     ntoswrk:CMDAT3.obj
 0001:000068a0       ??_C@_1BM@IFPGFGF@?$AAR?$AAT?$AAL?$AAT?$AAH?$AAR?$AAE?$AAA?$AAD?$AAP?$AAO?$AAO?$AAL?$AA?$AA@ 004078a0     ntoswrk:CMDAT3.obj
 0001:000068bc       ??_C@_17LFJDFBHF@?$AAH?$AAP?$AAS?$AA?$AA@ 004078bc     ntoswrk:CMDAT3.obj
 0001:000068c4       ??_C@_1O@KNINEFBA@?$AAI?$AAH?$AAV?$AAB?$AAU?$AAS?$AA?$AA@ 004078c4     ntoswrk:CMDAT3.obj
 0001:000068d4       ??_C@_1BK@GJFHDEAF@?$AAI?$AAH?$AAV?$AAS?$AAT?$AAR?$AAE?$AAA?$AAM?$AAI?$AAN?$AAG?$AA?$AA@ 004078d4     ntoswrk:CMDAT3.obj
 0001:000068f0       ??_C@_1BG@FDDPAKEP@?$AAI?$AAH?$AAV?$AAN?$AAE?$AAT?$AAW?$AAO?$AAR?$AAK?$AA?$AA@ 004078f0     ntoswrk:CMDAT3.obj
 0001:00006908       ??_C@_1BC@OKMCNIOK@?$AAI?$AAH?$AAV?$AAA?$AAU?$AAD?$AAI?$AAO?$AA?$AA@ 00407908     ntoswrk:CMDAT3.obj
 0001:0000691c       ??_C@_1BC@NIBCHNIE@?$AAI?$AAH?$AAV?$AAV?$AAI?$AAD?$AAE?$AAO?$AA?$AA@ 0040791c     ntoswrk:CMDAT3.obj
 0001:00006930       ??_C@_1BE@EMFIGANI@?$AAI?$AAH?$AAV?$AAD?$AAR?$AAI?$AAV?$AAE?$AAR?$AA?$AA@ 00407930     ntoswrk:CMDAT3.obj
 0001:00006944       ??_C@_1BG@CBLDGOCA@?$AAI?$AAN?$AAF?$AAI?$AAN?$AAI?$AAB?$AAA?$AAN?$AAD?$AA?$AA@ 00407944     ntoswrk:CMDAT3.obj
 0001:0000695c       ??_C@_15KFCDODCM@?$AAS?$AAR?$AA?$AA@ 0040795c     ntoswrk:CMDAT3.obj
 0001:00006964       ??_C@_1BC@ONGGPNBD@?$AAD?$AAM?$AAS?$AAE?$AAR?$AAV?$AAE?$AAR?$AA?$AA@ 00407964     ntoswrk:CMDAT3.obj
 0001:00006978       ??_C@_1BE@JHOCBNEO@?$AAP?$AAR?$AAO?$AAC?$AAE?$AAS?$AAS?$AAO?$AAR?$AA?$AA@ 00407978     ntoswrk:CMDAT3.obj
 0001:0000698c       ??_C@_1O@ONHKGDAA@?$AAP?$AAN?$AAP?$AAM?$AAE?$AAM?$AA?$AA@ 0040798c     ntoswrk:CMDAT3.obj
 0001:0000699c       ??_C@_17FKDGAAMC@?$AAV?$AAS?$AAS?$AA?$AA@ 0040799c     ntoswrk:CMDAT3.obj
 0001:000069a4       ??_C@_1BO@CMPFHEFK@?$AAW?$AAS?$AAO?$AAC?$AAK?$AAT?$AAR?$AAA?$AAN?$AAS?$AAP?$AAO?$AAR?$AAT?$AA?$AA@ 004079a4     ntoswrk:CMDAT3.obj
 0001:000069c4       ??_C@_1BA@MCNLHGKO@?$AAD?$AAM?$AAA?$AAD?$AAM?$AAI?$AAN?$AA?$AA@ 004079c4     ntoswrk:CMDAT3.obj
 0001:000069d4       ??_C@_1BC@DAMPBOIF@?$AAD?$AAM?$AAC?$AAO?$AAN?$AAF?$AAI?$AAG?$AA?$AA@ 004079d4     ntoswrk:CMDAT3.obj
 0001:000069e8       ??_C@_19NCJMPEKA@?$AAD?$AAM?$AAI?$AAO?$AA?$AA@ 004079e8     ntoswrk:CMDAT3.obj
 0001:000069f4       ??_C@_17KACLLMCF@?$AAP?$AAC?$AAI?$AA?$AA@ 004079f4     ntoswrk:CMDAT3.obj
 0001:000069fc       ??_C@_1O@JMECDIHP@?$AAF?$AAC?$AAP?$AAO?$AAR?$AAT?$AA?$AA@ 004079fc     ntoswrk:CMDAT3.obj
 0001:00006a0c       ??_C@_1BC@JHEFHMBN@?$AAR?$AAS?$AAF?$AAI?$AAL?$AAT?$AAE?$AAR?$AA?$AA@ 00407a0c     ntoswrk:CMDAT3.obj
 0001:00006a20       ??_C@_1BG@EDAEBFFN@?$AAP?$AAR?$AAE?$AAF?$AAE?$AAT?$AAC?$AAH?$AAE?$AAR?$AA?$AA@ 00407a20     ntoswrk:CMDAT3.obj
 0001:00006a38       ??_C@_1BA@JAGAADAG@?$AAW?$AA3?$AA2?$AAT?$AAI?$AAM?$AAE?$AA?$AA@ 00407a38     ntoswrk:CMDAT3.obj
 0001:00006a48       ??_C@_1BA@FLLOMPB@?$AAT?$AAE?$AAR?$AAM?$AAS?$AAR?$AAV?$AA?$AA@ 00407a48     ntoswrk:CMDAT3.obj
 0001:00006a58       ??_C@_17GIEHFEFF@?$AAF?$AAD?$AAC?$AA?$AA@ 00407a58     ntoswrk:CMDAT3.obj
 0001:00006a60       ??_C@_1O@CCEKCHDK@?$AAF?$AAL?$AAO?$AAP?$AAP?$AAY?$AA?$AA@ 00407a60     ntoswrk:CMDAT3.obj
 0001:00006a70       ??_C@_1O@CCMMDNHM@?$AAP?$AAC?$AAI?$AAI?$AAD?$AAE?$AA?$AA@ 00407a70     ntoswrk:CMDAT3.obj
 0001:00006a80       ??_C@_19EHJFODIJ@?$AAI?$AAD?$AAE?$AAP?$AA?$AA@ 00407a80     ntoswrk:CMDAT3.obj
 0001:00006a8c       ??_C@_1M@NGEKBHII@?$AAM?$AAC?$AAH?$AAG?$AAR?$AA?$AA@ 00407a8c     ntoswrk:CMDAT3.obj
 0001:00006a98       ??_C@_19OJPJNDDA@?$AAT?$AAA?$AAP?$AAE?$AA?$AA@ 00407a98     ntoswrk:CMDAT3.obj
 0001:00006aa4       ??_C@_1BA@LAKPCDKK@?$AAS?$AAO?$AAF?$AAT?$AAP?$AAC?$AAI?$AA?$AA@ 00407aa4     ntoswrk:CMDAT3.obj
 0001:00006ab4       ??_C@_1BC@HAGOAFFK@?$AAI?$AAD?$AAL?$AAE?$AAT?$AAA?$AAS?$AAK?$AA?$AA@ 00407ab4     ntoswrk:CMDAT3.obj
 0001:00006ac8       ??_C@_1O@NCNDGEFJ@?$AAF?$AAU?$AAS?$AAI?$AAO?$AAN?$AA?$AA@ 00407ac8     ntoswrk:CMDAT3.obj
 0001:00006ad8       ??_C@_17HIBBPOGF@?$AAS?$AAX?$AAS?$AA?$AA@ 00407ad8     ntoswrk:CMDAT3.obj
 0001:00006ae0       ??_C@_1M@ENABOFNC@?$AAI?$AAM?$AAA?$AAP?$AAI?$AA?$AA@ 00407ae0     ntoswrk:CMDAT3.obj
 0001:00006aec       ??_C@_1BA@BLONPGFC@?$AAB?$AAU?$AAR?$AAN?$AAE?$AAN?$AAG?$AA?$AA@ 00407aec     ntoswrk:CMDAT3.obj
 0001:00006afc       ??_C@_1BA@BFNBODGB@?$AAW?$AAM?$AAI?$AAC?$AAO?$AAR?$AAE?$AA?$AA@ 00407afc     ntoswrk:CMDAT3.obj
 0001:00006b0c       ??_C@_1O@NDGIMMPN@?$AAF?$AAL?$AAT?$AAM?$AAG?$AAR?$AA?$AA@ 00407b0c     ntoswrk:CMDAT3.obj
 0001:00006b1c       ??_C@_17LAJLCPFL@?$AAS?$AAI?$AAS?$AA?$AA@ 00407b1c     ntoswrk:CMDAT3.obj
 0001:00006b24       ??_C@_1BC@FDGCEING@?$AAU?$AAN?$AAI?$AAM?$AAO?$AAD?$AAE?$AAM?$AA?$AA@ 00407b24     ntoswrk:CMDAT3.obj
 0001:00006b38       ??_C@_1O@LPCHMKNG@?$AAD?$AAC?$AAO?$AAM?$AAS?$AAS?$AA?$AA@ 00407b38     ntoswrk:CMDAT3.obj
 0001:00006b48       ??_C@_1BA@GIDKNJFM@?$AAA?$AAU?$AAT?$AAO?$AAC?$AAH?$AAK?$AA?$AA@ 00407b48     ntoswrk:CMDAT3.obj
 0001:00006b58       ??_C@_1BC@NLGAHLIN@?$AAR?$AAP?$AAC?$AAP?$AAR?$AAO?$AAX?$AAY?$AA?$AA@ 00407b58     ntoswrk:CMDAT3.obj
 0001:00006b6c       ??_C@_19CEIKLEHF@?$AAU?$AAH?$AAC?$AAD?$AA?$AA@ 00407b6c     ntoswrk:CMDAT3.obj
 0001:00006b78       ??_C@_1BA@JGDGJAKM@?$AAS?$AAE?$AAR?$AAE?$AAN?$AAU?$AAM?$AA?$AA@ 00407b78     ntoswrk:CMDAT3.obj
 0001:00006b88       ??_C@_1O@EDBLBJGB@?$AAS?$AAE?$AAR?$AAI?$AAA?$AAL?$AA?$AA@ 00407b88     ntoswrk:CMDAT3.obj
 0001:00006b98       ??_C@_1BC@JLKELIPB@?$AAS?$AAC?$AAC?$AAL?$AAI?$AAE?$AAN?$AAT?$AA?$AA@ 00407b98     ntoswrk:CMDAT3.obj
 0001:00006bac       ??_C@_1BC@CGJFNME@?$AAS?$AAC?$AAS?$AAE?$AAR?$AAV?$AAE?$AAR?$AA?$AA@ 00407bac     ntoswrk:CMDAT3.obj
 0001:00006bc0       ??_C@_1O@LDPMBPKI@?$AAN?$AAE?$AAT?$AAA?$AAP?$AAI?$AA?$AA@ 00407bc0     ntoswrk:CMDAT3.obj
 0001:00006bd0       ??_C@_1O@KIMIIFMC@?$AAP?$AAN?$AAP?$AAM?$AAG?$AAR?$AA?$AA@ 00407bd0     ntoswrk:CMDAT3.obj
 0001:00006be0       ??_C@_1M@FPINNANL@?$AAS?$AAA?$AAM?$AAS?$AAS?$AA?$AA@ 00407be0     ntoswrk:CMDAT3.obj
 0001:00006bec       ??_C@_1BA@CGJOBJKL@?$AAF?$AAA?$AAS?$AAT?$AAF?$AAA?$AAT?$AA?$AA@ 00407bec     ntoswrk:CMDAT3.obj
 0001:00006bfc       ??_C@_1BA@JILCHCMP@?$AAN?$AAT?$AAO?$AAS?$AAP?$AAN?$AAP?$AA?$AA@ 00407bfc     ntoswrk:CMDAT3.obj
 0001:00006c0c       ??_C@_1BA@OEAEEGOP@?$AAD?$AAM?$AAS?$AAY?$AAN?$AAT?$AAH?$AA?$AA@ 00407c0c     ntoswrk:CMDAT3.obj
 0001:00006c1c       ??_C@_1M@HIKGEDIA@?$AAT?$AAC?$AAP?$AAI?$AAP?$AA?$AA@ 00407c1c     ntoswrk:CMDAT3.obj
 0001:00006c28       ??_C@_1BC@DONIHOID@?$AAV?$AAI?$AAD?$AAE?$AAO?$AAP?$AAR?$AAT?$AA?$AA@ 00407c28     ntoswrk:CMDAT3.obj
 0001:00006c3c       ??_C@_1BA@NJEEFIKO@?$AAS?$AAV?$AAC?$AAH?$AAO?$AAS?$AAT?$AA?$AA@ 00407c3c     ntoswrk:CMDAT3.obj
 0001:00006c4c       ??_C@_1M@EPGPFLF@?$AAV?$AAI?$AAD?$AAE?$AAO?$AA?$AA@ 00407c4c     ntoswrk:CMDAT3.obj
 0001:00006c58       ??_C@_1BA@INAEFELG@?$AAH?$AAA?$AAL?$AAI?$AAA?$AA6?$AA4?$AA?$AA@ 00407c58     ntoswrk:CMDAT3.obj
 0001:00006c68       ??_C@_19EBBDPBIL@?$AAA?$AAM?$AAL?$AAI?$AA?$AA@ 00407c68     ntoswrk:CMDAT3.obj
 0001:00006c74       ??_C@_19CAINCBFJ@?$AAA?$AAC?$AAP?$AAI?$AA?$AA@ 00407c74     ntoswrk:CMDAT3.obj
 0001:00006c80       ??_C@_1O@MHJJGBKB@?$AAW?$AAM?$AAI?$AAL?$AAI?$AAB?$AA?$AA@ 00407c80     ntoswrk:CMDAT3.obj
 0001:00006c90       ??_C@_1BC@IHJNOKFB@?$AAT?$AAW?$AAO?$AAT?$AAR?$AAA?$AAC?$AAK?$AA?$AA@ 00407c90     ntoswrk:CMDAT3.obj
 0001:00006ca4       ??_C@_1BC@KHBACBEB@?$AAM?$AAO?$AAU?$AAC?$AAL?$AAA?$AAS?$AAS?$AA?$AA@ 00407ca4     ntoswrk:CMDAT3.obj
 0001:00006cb8       ??_C@_1BC@FLJLACIH@?$AAK?$AAB?$AAD?$AAC?$AAL?$AAA?$AAS?$AAS?$AA?$AA@ 00407cb8     ntoswrk:CMDAT3.obj
 0001:00006ccc       ??_C@_1O@DJECJIJ@?$AAM?$AAO?$AAU?$AAH?$AAI?$AAD?$AA?$AA@ 00407ccc     ntoswrk:CMDAT3.obj
 0001:00006cdc       ??_C@_1O@KNJFIJAH@?$AAK?$AAB?$AAD?$AAH?$AAI?$AAD?$AA?$AA@ 00407cdc     ntoswrk:CMDAT3.obj
 0001:00006cec       ??_C@_1BC@NEFJHNBI@?$AAL?$AAS?$AAE?$AAR?$AAM?$AAO?$AAU?$AAS?$AA?$AA@ 00407cec     ntoswrk:CMDAT3.obj
 0001:00006d00       ??_C@_1BC@IOGFCALD@?$AAS?$AAE?$AAR?$AAM?$AAO?$AAU?$AAS?$AAE?$AA?$AA@ 00407d00     ntoswrk:CMDAT3.obj
 0001:00006d14       ??_C@_1BC@NIJBFLJG@?$AAI?$AA8?$AA0?$AA4?$AA2?$AAP?$AAR?$AAT?$AA?$AA@ 00407d14     ntoswrk:CMDAT3.obj
 0001:00006d28       ??_C@_1O@BAHOLLMK@?$AAC?$AAO?$AAN?$AAF?$AAI?$AAG?$AA?$AA@ 00407d28     ntoswrk:CMDAT3.obj
 0001:00006d38       ??_C@_1BK@PEMAEFGI@?$AAS?$AAC?$AAS?$AAI?$AAM?$AAI?$AAN?$AAI?$AAP?$AAO?$AAR?$AAT?$AA?$AA@ 00407d38     ntoswrk:CMDAT3.obj
 0001:00006d54       ??_C@_1BC@FLNKIHIH@?$AAS?$AAC?$AAS?$AAI?$AAP?$AAO?$AAR?$AAT?$AA?$AA@ 00407d54     ntoswrk:CMDAT3.obj
 0001:00006d68       ??_C@_1BC@KGFNAHDH@?$AAS?$AAT?$AAO?$AAR?$AAP?$AAR?$AAO?$AAP?$AA?$AA@ 00407d68     ntoswrk:CMDAT3.obj
 0001:00006d7c       ??_C@_1BA@HCCLCMOH@?$AAR?$AAE?$AAD?$AAB?$AAO?$AAO?$AAK?$AA?$AA@ 00407d7c     ntoswrk:CMDAT3.obj
 0001:00006d8c       ??_C@_19HLPJEMPA@?$AAD?$AAI?$AAS?$AAK?$AA?$AA@ 00407d8c     ntoswrk:CMDAT3.obj
 0001:00006d98       ??_C@_1BC@CPLKIMMK@?$AAC?$AAL?$AAA?$AAS?$AAS?$AAP?$AAN?$AAP?$AA?$AA@ 00407d98     ntoswrk:CMDAT3.obj
 0001:00006dac       ??_C@_1M@NEPFDHKI@?$AAC?$AAD?$AAR?$AAO?$AAM?$AA?$AA@ 00407dac     ntoswrk:CMDAT3.obj
 0001:00006db8       ??_C@_1BA@POOLOHAD@?$AAC?$AAD?$AAA?$AAU?$AAD?$AAI?$AAO?$AA?$AA@ 00407db8     ntoswrk:CMDAT3.obj
 0001:00006dc8       ??_C@_1BE@OEMOMKBO@?$AAC?$AAR?$AAA?$AAS?$AAH?$AAD?$AAU?$AAM?$AAP?$AA?$AA@ 00407dc8     ntoswrk:CMDAT3.obj
 0001:00006ddc       ??_C@_1M@LFGFOCAF@?$AAF?$AAS?$AAT?$AAU?$AAB?$AA?$AA@ 00407ddc     ntoswrk:CMDAT3.obj
 0001:00006de8       ??_C@_19ENNDBEJL@?$AAN?$AAT?$AAF?$AAS?$AA?$AA@ 00407de8     ntoswrk:CMDAT3.obj
 0001:00006df4       ??_C@_1M@PBHOBGFC@?$AAS?$AAE?$AAT?$AAU?$AAP?$AA?$AA@ 00407df4     ntoswrk:CMDAT3.obj
 0001:00006e00       ??_C@_19KPGMKHOL@?$AAS?$AAM?$AAS?$AAS?$AA?$AA@ 00407e00     ntoswrk:CMDAT3.obj
 0001:00006e0c       ??_C@_1BA@NMDBGJA@?$AAW?$AAI?$AAN?$AA2?$AA0?$AA0?$AA0?$AA?$AA@ 00407e0c     ntoswrk:CMDAT3.obj
 0001:00006e20       ??_C@_1EG@IBJIGFPH@?$AAS?$AAe?$AAs?$AAs?$AAi?$AAo?$AAn?$AA?5?$AAM?$AAa?$AAn?$AAa?$AAg?$AAe?$AAr?$AA?2?$AAD?$AAe?$AAb?$AAu@ 00407e20     ntoswrk:CMDAT3.obj
 0001:00006e68       ??_C@_1CC@OEFBDJFJ@?$AAD?$AAe?$AAb?$AAu?$AAg?$AAg?$AAe?$AAr?$AA?5?$AAR?$AAe?$AAt?$AAr?$AAi?$AAe?$AAs?$AA?$AA@ 00407e68     ntoswrk:CMDAT3.obj
 0001:00006e8c       ??_C@_1DA@LIECLLEO@?$AAW?$AAi?$AAn?$AA3?$AA2?$AAP?$AAr?$AAi?$AAo?$AAr?$AAi?$AAt?$AAy?$AAS?$AAe?$AAp?$AAa?$AAr?$AAa?$AAt@ 00407e8c     ntoswrk:CMDAT3.obj
 0001:00006ebc       ??_C@_1CA@EJHPIDFK@?$AAP?$AAr?$AAi?$AAo?$AAr?$AAi?$AAt?$AAy?$AAC?$AAo?$AAn?$AAt?$AAr?$AAo?$AAl?$AA?$AA@ 00407ebc     ntoswrk:CMDAT3.obj
 0001:00006edc       ??_C@_1BK@DFILMBJE@?$AAS?$AAh?$AAu?$AAt?$AAd?$AAo?$AAw?$AAn?$AAT?$AAi?$AAm?$AAe?$AA?$AA@ 00407edc     ntoswrk:CMDAT3.obj
 0001:00006ef8       ??_C@_1DO@MDCOAGDG@?$AAM?$AAa?$AAx?$AAT?$AAi?$AAm?$AAe?$AAS?$AAe?$AAp?$AAa?$AAr?$AAa?$AAt?$AAi?$AAo?$AAn?$AAB?$AAe?$AAf@ 00407ef8     ntoswrk:CMDAT3.obj
 0001:00006f38       ??_C@_1CI@CEOPHINK@?$AAP?$AAo?$AAw?$AAe?$AAr?$AAP?$AAo?$AAl?$AAi?$AAc?$AAy?$AAS?$AAi?$AAm?$AAu?$AAl?$AAa?$AAt?$AAe?$AA?$AA@ 00407f38     ntoswrk:CMDAT3.obj
 0001:00006f60       ??_C@_1CG@KKOPEABL@?$AAL?$AAi?$AAc?$AAe?$AAn?$AAs?$AAe?$AAd?$AAP?$AAr?$AAo?$AAc?$AAe?$AAs?$AAs?$AAo?$AAr?$AAs?$AA?$AA@ 00407f60     ntoswrk:CMDAT3.obj
 0001:00006f88       ??_C@_1CK@MGFKENMJ@?$AAR?$AAe?$AAg?$AAi?$AAs?$AAt?$AAe?$AAr?$AAe?$AAd?$AAP?$AAr?$AAo?$AAc?$AAe?$AAs?$AAs?$AAo?$AAr?$AAs@ 00407f88     ntoswrk:CMDAT3.obj
 0001:00006fb4       ??_C@_1DG@LHEPEEHN@?$AAR?$AAe?$AAg?$AAi?$AAs?$AAt?$AAr?$AAy?$AAL?$AAa?$AAz?$AAy?$AAF?$AAl?$AAu?$AAs?$AAh?$AAH?$AAi?$AAv@ 00407fb4     ntoswrk:CMDAT3.obj
 0001:00006fec       ??_C@_1DE@BEFLENJI@?$AAR?$AAe?$AAg?$AAi?$AAs?$AAt?$AAr?$AAy?$AAL?$AAa?$AAz?$AAy?$AAF?$AAl?$AAu?$AAs?$AAh?$AAI?$AAn?$AAt@ 00407fec     ntoswrk:CMDAT3.obj
 0001:00007020       ??_C@_1CG@GEGOGCNE@?$AAS?$AAe?$AAl?$AAf?$AAH?$AAe?$AAa?$AAl?$AAi?$AAn?$AAg?$AAE?$AAn?$AAa?$AAb?$AAl?$AAe?$AAd?$AA?$AA@ 00408020     ntoswrk:CMDAT3.obj
 0001:00007048       ??_C@_1CK@FFMPONLC@?$AAR?$AAe?$AAg?$AAi?$AAs?$AAt?$AAr?$AAy?$AAL?$AAo?$AAg?$AAS?$AAi?$AAz?$AAe?$AAL?$AAi?$AAm?$AAi?$AAt@ 00408048     ntoswrk:CMDAT3.obj
 0001:00007078       ??_C@_1EM@GLLAFOJP@?$AAS?$AAe?$AAs?$AAs?$AAi?$AAo?$AAn?$AA?5?$AAM?$AAa?$AAn?$AAa?$AAg?$AAe?$AAr?$AA?2?$AAC?$AAo?$AAn?$AAf@ 00408078     ntoswrk:CMDAT3.obj
 0001:000070c4       ??_C@_1CE@LLLFBDPK@?$AAR?$AAe?$AAg?$AAi?$AAs?$AAt?$AAr?$AAy?$AAS?$AAi?$AAz?$AAe?$AAL?$AAi?$AAm?$AAi?$AAt?$AA?$AA@ 004080c4     ntoswrk:CMDAT3.obj
 0001:000070e8       ??_C@_15EODNFOFM@?$AA?$AA?$AA?$AA?$AA?$AA@ 004080e8     ntoswrk:CMDAT3.obj
 0001:000070f0       ??_C@_1CA@HNCMOGDF@?$AAI?$AAn?$AAs?$AAt?$AAa?$AAl?$AAl?$AAL?$AAa?$AAn?$AAg?$AAu?$AAa?$AAg?$AAe?$AA?$AA@ 004080f0     ntoswrk:CMDAT3.obj
 0001:00007110       ??_C@_1BA@GHOECOCL@?$AAD?$AAe?$AAf?$AAa?$AAu?$AAl?$AAt?$AA?$AA@ 00408110     ntoswrk:CMDAT3.obj
 0001:00007120       ??_C@_1BK@HGJAIMGI@?$AAN?$AAl?$AAs?$AA?2?$AAL?$AAa?$AAn?$AAg?$AAu?$AAa?$AAg?$AAe?$AA?$AA@ 00408120     ntoswrk:CMDAT3.obj
 0001:0000713c       ??_C@_1BO@PKBACOLK@?$AAC?$AAS?$AAD?$AAR?$AAe?$AAl?$AAe?$AAa?$AAs?$AAe?$AAT?$AAy?$AAp?$AAe?$AA?$AA@ 0040813c     ntoswrk:CMDAT3.obj
 0001:0000715c       ??_C@_1BG@MEBEMGBM@?$AAC?$AAS?$AAD?$AAV?$AAe?$AAr?$AAs?$AAi?$AAo?$AAn?$AA?$AA@ 0040815c     ntoswrk:CMDAT3.obj
 0001:00007174       ??_C@_1BA@HLGGGPNC@?$AAW?$AAi?$AAn?$AAd?$AAo?$AAw?$AAs?$AA?$AA@ 00408174     ntoswrk:CMDAT3.obj
 0001:00007184       ??_C@_1BI@LIHNICPI@?$AAT?$AAS?$AAA?$AAp?$AAp?$AAC?$AAo?$AAm?$AAp?$AAa?$AAt?$AA?$AA@ 00408184     ntoswrk:CMDAT3.obj
 0001:0000719c       ??_C@_1BE@LOMDLCE@?$AAT?$AAS?$AAE?$AAn?$AAa?$AAb?$AAl?$AAe?$AAd?$AA?$AA@ 0040819c     ntoswrk:CMDAT3.obj
 0001:000071b0       ??_C@_1M@DADFOLAB@?$AAB?$AAr?$AAa?$AAn?$AAd?$AA?$AA@ 004081b0     ntoswrk:CMDAT3.obj
 0001:000071bc       ??_C@_1BO@EDPDEJHE@?$AAP?$AAr?$AAo?$AAd?$AAu?$AAc?$AAt?$AAO?$AAp?$AAt?$AAi?$AAo?$AAn?$AAs?$AA?$AA@ 004081bc     ntoswrk:CMDAT3.obj
 0001:000071dc       ??_C@_1DO@PIGCMHBI@?$AAH?$AAe?$AAa?$AAp?$AAD?$AAe?$AAC?$AAo?$AAm?$AAm?$AAi?$AAt?$AAF?$AAr?$AAe?$AAe?$AAB?$AAl?$AAo?$AAc@ 004081dc     ntoswrk:CMDAT3.obj
 0001:0000721c       ??_C@_1DO@OACFDBCF@?$AAH?$AAe?$AAa?$AAp?$AAD?$AAe?$AAC?$AAo?$AAm?$AAm?$AAi?$AAt?$AAT?$AAo?$AAt?$AAa?$AAl?$AAF?$AAr?$AAe@ 0040821c     ntoswrk:CMDAT3.obj
 0001:0000725c       ??_C@_1CE@BDMILKLE@?$AAH?$AAe?$AAa?$AAp?$AAS?$AAe?$AAg?$AAm?$AAe?$AAn?$AAt?$AAC?$AAo?$AAm?$AAm?$AAi?$AAt?$AA?$AA@ 0040825c     ntoswrk:CMDAT3.obj
 0001:00007280       ??_C@_1CG@KHHKKCCD@?$AAH?$AAe?$AAa?$AAp?$AAS?$AAe?$AAg?$AAm?$AAe?$AAn?$AAt?$AAR?$AAe?$AAs?$AAe?$AAr?$AAv?$AAe?$AA?$AA@ 00408280     ntoswrk:CMDAT3.obj
 0001:000072a8       ??_C@_1CO@KFGOODJE@?$AAC?$AAr?$AAi?$AAt?$AAi?$AAc?$AAa?$AAl?$AAS?$AAe?$AAc?$AAt?$AAi?$AAo?$AAn?$AAT?$AAi?$AAm?$AAe?$AAo@ 004082a8     ntoswrk:CMDAT3.obj
 0001:000072d8       ??_C@_1CG@NEPCKEJL@?$AAR?$AAe?$AAs?$AAo?$AAu?$AAr?$AAc?$AAe?$AAC?$AAh?$AAe?$AAc?$AAk?$AAF?$AAl?$AAa?$AAg?$AAs?$AA?$AA@ 004082d8     ntoswrk:CMDAT3.obj
 0001:00007300       ??_C@_1CK@KMFCKJPP@?$AAR?$AAe?$AAs?$AAo?$AAu?$AAr?$AAc?$AAe?$AAT?$AAi?$AAm?$AAe?$AAo?$AAu?$AAt?$AAC?$AAo?$AAu?$AAn?$AAt@ 00408300     ntoswrk:CMDAT3.obj
 0001:0000732c       ??_C@_1CO@MFHFIDKO@?$AAI?$AAo?$AAF?$AAa?$AAi?$AAl?$AAZ?$AAe?$AAr?$AAo?$AAA?$AAc?$AAc?$AAe?$AAs?$AAs?$AAC?$AAr?$AAe?$AAa@ 0040832c     ntoswrk:CMDAT3.obj
 0001:0000735c       ??_C@_1CA@CPEOMDEM@?$AAI?$AAo?$AAV?$AAe?$AAr?$AAi?$AAf?$AAi?$AAe?$AAr?$AAL?$AAe?$AAv?$AAe?$AAl?$AA?$AA@ 0040835c     ntoswrk:CMDAT3.obj
 0001:0000737c       ??_C@_1CO@MCPKDEEK@?$AAL?$AAa?$AAr?$AAg?$AAe?$AAI?$AAr?$AAp?$AAS?$AAt?$AAa?$AAc?$AAk?$AAL?$AAo?$AAc?$AAa?$AAt?$AAi?$AAo@ 0040837c     ntoswrk:CMDAT3.obj
 0001:000073ac       ??_C@_1CA@FNJCKJAF@?$AAC?$AAo?$AAu?$AAn?$AAt?$AAO?$AAp?$AAe?$AAr?$AAa?$AAt?$AAi?$AAo?$AAn?$AAs?$AA?$AA@ 004083ac     ntoswrk:CMDAT3.obj
 0001:000073cc       ??_C@_1DG@DNIHPMPB@?$AAS?$AAe?$AAs?$AAs?$AAi?$AAo?$AAn?$AA?5?$AAM?$AAa?$AAn?$AAa?$AAg?$AAe?$AAr?$AA?2?$AAI?$AA?1?$AAO?$AA?5@ 004083cc     ntoswrk:CMDAT3.obj
 0001:00007404       ??_C@_1CE@OHLELLPC@?$AAO?$AAb?$AAC?$AAa?$AAs?$AAe?$AAI?$AAn?$AAs?$AAe?$AAn?$AAs?$AAi?$AAt?$AAi?$AAv?$AAe?$AA?$AA@ 00408404     ntoswrk:CMDAT3.obj
 0001:00007428       ??_C@_1DC@NFJCCEEE@?$AAP?$AAe?$AAr?$AAf?$AAB?$AAu?$AAs?$AAy?$AAA?$AAd?$AAj?$AAm?$AAe?$AAn?$AAt?$AAT?$AAh?$AAr?$AAe?$AAs@ 00408428     ntoswrk:CMDAT3.obj
 0001:0000745c       ??_C@_1CG@KDMPMEJG@?$AAP?$AAe?$AAr?$AAf?$AAM?$AAa?$AAx?$AAC?$AA3?$AAF?$AAr?$AAe?$AAq?$AAu?$AAe?$AAn?$AAc?$AAy?$AA?$AA@ 0040845c     ntoswrk:CMDAT3.obj
 0001:00007488       ??_C@_1EA@JJMCMOOG@?$AAP?$AAe?$AAr?$AAf?$AAD?$AAe?$AAg?$AAr?$AAa?$AAd?$AAe?$AAT?$AAh?$AAr?$AAo?$AAt?$AAt?$AAl?$AAe?$AAM@ 00408488     ntoswrk:CMDAT3.obj
 0001:000074c8       ??_C@_1DO@CFPIGLJP@?$AAP?$AAe?$AAr?$AAf?$AAD?$AAe?$AAg?$AAr?$AAa?$AAd?$AAe?$AAT?$AAh?$AAr?$AAo?$AAt?$AAt?$AAl?$AAe?$AAM@ 004084c8     ntoswrk:CMDAT3.obj
 0001:00007508       ??_C@_1DA@GHAFCEPB@?$AAP?$AAe?$AAr?$AAf?$AAD?$AAe?$AAc?$AAr?$AAe?$AAa?$AAs?$AAe?$AAM?$AAi?$AAn?$AAi?$AAm?$AAu?$AAm?$AAT@ 00408508     ntoswrk:CMDAT3.obj
 0001:00007538       ??_C@_1CM@DNGNOLDG@?$AAP?$AAe?$AAr?$AAf?$AAD?$AAe?$AAc?$AAr?$AAe?$AAa?$AAs?$AAe?$AAT?$AAi?$AAm?$AAe?$AAV?$AAa?$AAl?$AAu@ 00408538     ntoswrk:CMDAT3.obj
 0001:00007564       ??_C@_1DA@JIDKIOGH@?$AAP?$AAe?$AAr?$AAf?$AAI?$AAn?$AAc?$AAr?$AAe?$AAa?$AAs?$AAe?$AAM?$AAi?$AAn?$AAi?$AAm?$AAu?$AAm?$AAT@ 00408564     ntoswrk:CMDAT3.obj
 0001:00007594       ??_C@_1CM@HCAIKKLB@?$AAP?$AAe?$AAr?$AAf?$AAI?$AAn?$AAc?$AAr?$AAe?$AAa?$AAs?$AAe?$AAT?$AAi?$AAm?$AAe?$AAV?$AAa?$AAl?$AAu@ 00408594     ntoswrk:CMDAT3.obj
 0001:000075c0       ??_C@_1DK@ONPCFGDN@?$AAP?$AAe?$AAr?$AAf?$AAD?$AAe?$AAc?$AAr?$AAe?$AAa?$AAs?$AAe?$AAA?$AAb?$AAs?$AAo?$AAl?$AAu?$AAt?$AAe@ 004085c0     ntoswrk:CMDAT3.obj
 0001:000075fc       ??_C@_1DI@NDMEFCNB@?$AAP?$AAe?$AAr?$AAf?$AAD?$AAe?$AAc?$AAr?$AAe?$AAa?$AAs?$AAe?$AAP?$AAe?$AAr?$AAc?$AAe?$AAn?$AAt?$AAM@ 004085fc     ntoswrk:CMDAT3.obj
 0001:00007634       ??_C@_1DK@JOBGKNAA@?$AAP?$AAe?$AAr?$AAf?$AAI?$AAn?$AAc?$AAr?$AAe?$AAa?$AAs?$AAe?$AAA?$AAb?$AAs?$AAo?$AAl?$AAu?$AAt?$AAe@ 00408634     ntoswrk:CMDAT3.obj
 0001:00007670       ??_C@_1DI@OGLIBBHD@?$AAP?$AAe?$AAr?$AAf?$AAI?$AAn?$AAc?$AAr?$AAe?$AAa?$AAs?$AAe?$AAP?$AAe?$AAr?$AAc?$AAe?$AAn?$AAt?$AAM@ 00408670     ntoswrk:CMDAT3.obj
 0001:000076a8       ??_C@_1DG@IIGCGBDG@?$AAP?$AAe?$AAr?$AAf?$AAC?$AAr?$AAi?$AAt?$AAi?$AAc?$AAa?$AAl?$AAF?$AAr?$AAe?$AAq?$AAu?$AAe?$AAn?$AAc@ 004086a8     ntoswrk:CMDAT3.obj
 0001:000076e0       ??_C@_1CM@FCIICEOF@?$AAP?$AAe?$AAr?$AAf?$AAC?$AAr?$AAi?$AAt?$AAi?$AAc?$AAa?$AAl?$AAT?$AAi?$AAm?$AAe?$AAD?$AAe?$AAl?$AAt@ 004086e0     ntoswrk:CMDAT3.obj
 0001:0000770c       ??_C@_1BM@ONPLJCJH@?$AAP?$AAe?$AAr?$AAf?$AAT?$AAi?$AAm?$AAe?$AAD?$AAe?$AAl?$AAt?$AAa?$AA?$AA@ 0040870c     ntoswrk:CMDAT3.obj
 0001:00007728       ??_C@_1DC@PLHEJCPM@?$AAS?$AAe?$AAs?$AAs?$AAi?$AAo?$AAn?$AA?5?$AAM?$AAa?$AAn?$AAa?$AAg?$AAe?$AAr?$AA?2?$AAT?$AAh?$AAr?$AAo@ 00408728     ntoswrk:CMDAT3.obj
 0001:0000775c       ??_C@_1CO@MOGIBLOG@?$AAI?$AAd?$AAl?$AAe?$AAD?$AAe?$AAf?$AAa?$AAu?$AAl?$AAt?$AAP?$AAr?$AAo?$AAm?$AAo?$AAt?$AAe?$AAT?$AAi@ 0040875c     ntoswrk:CMDAT3.obj
 0001:0000778c       ??_C@_1DE@HBHABCPE@?$AAI?$AAd?$AAl?$AAe?$AAD?$AAe?$AAf?$AAa?$AAu?$AAl?$AAt?$AAP?$AAr?$AAo?$AAm?$AAo?$AAt?$AAe?$AAP?$AAe@ 0040878c     ntoswrk:CMDAT3.obj
 0001:000077c0       ??_C@_1CM@FOPEDKLI@?$AAI?$AAd?$AAl?$AAe?$AAD?$AAe?$AAf?$AAa?$AAu?$AAl?$AAt?$AAD?$AAe?$AAm?$AAo?$AAt?$AAe?$AAT?$AAi?$AAm@ 004087c0     ntoswrk:CMDAT3.obj
 0001:000077ec       ??_C@_1DC@LBNAJLCL@?$AAI?$AAd?$AAl?$AAe?$AAD?$AAe?$AAf?$AAa?$AAu?$AAl?$AAt?$AAD?$AAe?$AAm?$AAo?$AAt?$AAe?$AAP?$AAe?$AAr@ 004087ec     ntoswrk:CMDAT3.obj
 0001:00007820       ??_C@_1BO@NJOIKJEN@?$AAI?$AAd?$AAl?$AAe?$AAT?$AAo?$AA0?$AAP?$AAe?$AAr?$AAc?$AAe?$AAn?$AAt?$AA?$AA@ 00408820     ntoswrk:CMDAT3.obj
 0001:00007840       ??_C@_1BM@NGMHOHOF@?$AAI?$AAd?$AAl?$AAe?$AAT?$AAi?$AAm?$AAe?$AAC?$AAh?$AAe?$AAc?$AAk?$AA?$AA@ 00408840     ntoswrk:CMDAT3.obj
 0001:0000785c       ??_C@_1BO@FICHANLL@?$AAI?$AAd?$AAl?$AAe?$AA0?$AAT?$AAi?$AAm?$AAe?$AAC?$AAh?$AAe?$AAc?$AAk?$AA?$AA@ 0040885c     ntoswrk:CMDAT3.obj
 0001:0000787c       ??_C@_1CK@NHPCKBME@?$AAI?$AAd?$AAl?$AAe?$AAF?$AAr?$AAo?$AAm?$AA0?$AAI?$AAd?$AAl?$AAe?$AAP?$AAe?$AAr?$AAc?$AAe?$AAn?$AAt@ 0040887c     ntoswrk:CMDAT3.obj
 0001:000078a8       ??_C@_1BO@NLAKDPNO@?$AAI?$AAd?$AAl?$AAe?$AAF?$AAr?$AAo?$AAm?$AA0?$AAD?$AAe?$AAl?$AAa?$AAy?$AA?$AA@ 004088a8     ntoswrk:CMDAT3.obj
 0001:000078c8       ??_C@_1DC@PHHOMKNE@?$AAI?$AAd?$AAl?$AAe?$AAT?$AAh?$AAr?$AAo?$AAt?$AAt?$AAl?$AAe?$AAC?$AAh?$AAe?$AAc?$AAk?$AAT?$AAi?$AAm@ 004088c8     ntoswrk:CMDAT3.obj
 0001:000078fc       ??_C@_1CM@HJFPLHFG@?$AAI?$AAd?$AAl?$AAe?$AAT?$AAh?$AAr?$AAo?$AAt?$AAt?$AAl?$AAe?$AAC?$AAh?$AAe?$AAc?$AAk?$AAR?$AAa?$AAt@ 004088fc     ntoswrk:CMDAT3.obj
 0001:00007928       ??_C@_1CO@MANDAKLC@?$AAI?$AAd?$AAl?$AAe?$AAD?$AAe?$AAf?$AAa?$AAu?$AAl?$AAt?$AAM?$AAi?$AAn?$AAT?$AAh?$AAr?$AAo?$AAt?$AAt@ 00408928     ntoswrk:CMDAT3.obj
 0001:00007958       ??_C@_1CM@JGIJKPEK@?$AAS?$AAe?$AAs?$AAs?$AAi?$AAo?$AAn?$AA?5?$AAM?$AAa?$AAn?$AAa?$AAg?$AAe?$AAr?$AA?2?$AAP?$AAo?$AAw?$AAe@ 00408958     ntoswrk:CMDAT3.obj
 0001:00007984       ??_C@_1CA@FOJGKJED@?$AAT?$AAi?$AAm?$AAe?$AAr?$AAC?$AAh?$AAe?$AAc?$AAk?$AAF?$AAl?$AAa?$AAg?$AAs?$AA?$AA@ 00408984     ntoswrk:CMDAT3.obj
 0001:000079a4       ??_C@_1DC@CGMFLPCJ@?$AAT?$AAi?$AAm?$AAe?$AAL?$AAi?$AAm?$AAi?$AAt?$AAI?$AAs?$AAr?$AAM?$AAi?$AAc?$AAr?$AAo?$AAs?$AAe?$AAc@ 004089a4     ntoswrk:CMDAT3.obj
 0001:000079d8       ??_C@_1DC@BLMKJNCI@?$AAT?$AAi?$AAm?$AAe?$AAL?$AAi?$AAm?$AAi?$AAt?$AAD?$AAp?$AAc?$AAM?$AAi?$AAc?$AAr?$AAo?$AAs?$AAe?$AAc@ 004089d8     ntoswrk:CMDAT3.obj
 0001:00007a0c       ??_C@_1CM@OOPLPMFL@?$AAO?$AAb?$AAU?$AAn?$AAs?$AAe?$AAc?$AAu?$AAr?$AAe?$AAG?$AAl?$AAo?$AAb?$AAa?$AAl?$AAN?$AAa?$AAm?$AAe@ 00408a0c     ntoswrk:CMDAT3.obj
 0001:00007a38       ??_C@_1CK@HJJNPICP@?$AAP?$AAo?$AAC?$AAl?$AAe?$AAa?$AAn?$AAS?$AAh?$AAu?$AAt?$AAd?$AAo?$AAw?$AAn?$AAF?$AAl?$AAa?$AAg?$AAs@ 00408a38     ntoswrk:CMDAT3.obj
 0001:00007a64       ??_C@_1CI@EEJPJOAB@?$AAO?$AAb?$AAT?$AAr?$AAa?$AAc?$AAe?$AAN?$AAo?$AAD?$AAe?$AAr?$AAe?$AAg?$AAi?$AAs?$AAt?$AAe?$AAr?$AA?$AA@ 00408a64     ntoswrk:CMDAT3.obj
 0001:00007a8c       ??_C@_1CA@PPHAONLB@?$AAO?$AAb?$AAT?$AAr?$AAa?$AAc?$AAe?$AAP?$AAo?$AAo?$AAl?$AAT?$AAa?$AAg?$AAs?$AA?$AA@ 00408a8c     ntoswrk:CMDAT3.obj
 0001:00007aac       ??_C@_1CE@MKEAJFPJ@?$AAX?$AAM?$AAM?$AAI?$AAZ?$AAe?$AAr?$AAo?$AAi?$AAn?$AAg?$AAE?$AAn?$AAa?$AAb?$AAl?$AAe?$AA?$AA@ 00408aac     ntoswrk:CMDAT3.obj
 0001:00007ad0       ??_C@_1CM@CMJCCIHC@?$AAF?$AAa?$AAs?$AAt?$AAS?$AAy?$AAs?$AAt?$AAe?$AAm?$AAC?$AAa?$AAl?$AAl?$AAD?$AAi?$AAs?$AAa?$AAb?$AAl@ 00408ad0     ntoswrk:CMDAT3.obj
 0001:00007afc       ??_C@_1BK@FNPPACOG@?$AAI?$AAd?$AAe?$AAa?$AAl?$AAD?$AAp?$AAc?$AAR?$AAa?$AAt?$AAe?$AA?$AA@ 00408afc     ntoswrk:CMDAT3.obj
 0001:00007b18       ??_C@_1CG@CLKJBFLP@?$AAA?$AAd?$AAj?$AAu?$AAs?$AAt?$AAD?$AAp?$AAc?$AAT?$AAh?$AAr?$AAe?$AAs?$AAh?$AAo?$AAl?$AAd?$AA?$AA@ 00408b18     ntoswrk:CMDAT3.obj
 0001:00007b40       ??_C@_1BO@NNJLCINI@?$AAM?$AAi?$AAn?$AAi?$AAm?$AAu?$AAm?$AAD?$AAp?$AAc?$AAR?$AAa?$AAt?$AAe?$AA?$AA@ 00408b40     ntoswrk:CMDAT3.obj
 0001:00007b60       ??_C@_1BM@INBNPIKC@?$AAD?$AAp?$AAc?$AAQ?$AAu?$AAe?$AAu?$AAe?$AAD?$AAe?$AAp?$AAt?$AAh?$AA?$AA@ 00408b60     ntoswrk:CMDAT3.obj
 0001:00007b7c       ??_C@_1CA@MFKJFOCE@?$AAT?$AAh?$AAr?$AAe?$AAa?$AAd?$AAD?$AAp?$AAc?$AAE?$AAn?$AAa?$AAb?$AAl?$AAe?$AA?$AA@ 00408b7c     ntoswrk:CMDAT3.obj
 0001:00007b9c       ??_C@_1CA@NGFDFFBA@?$AAS?$AAp?$AAi?$AAn?$AAl?$AAo?$AAc?$AAk?$AAT?$AAi?$AAm?$AAe?$AAo?$AAu?$AAt?$AA?$AA@ 00408b9c     ntoswrk:CMDAT3.obj
 0001:00007bbc       ??_C@_1BG@ENKFBHBP@?$AAD?$AAP?$AAC?$AAT?$AAi?$AAm?$AAe?$AAo?$AAu?$AAt?$AA?$AA@ 00408bbc     ntoswrk:CMDAT3.obj
 0001:00007bd4       ??_C@_1CO@FLCCMNBF@?$AAS?$AAe?$AAs?$AAs?$AAi?$AAo?$AAn?$AA?5?$AAM?$AAa?$AAn?$AAa?$AAg?$AAe?$AAr?$AA?2?$AAK?$AAe?$AAr?$AAn@ 00408bd4     ntoswrk:CMDAT3.obj
 0001:00007c04       ??_C@_1CM@KBLGGFAD@?$AAP?$AAr?$AAi?$AAo?$AAr?$AAi?$AAt?$AAy?$AAQ?$AAu?$AAa?$AAn?$AAt?$AAu?$AAm?$AAM?$AAa?$AAt?$AAr?$AAi@ 00408c04     ntoswrk:CMDAT3.obj
 0001:00007c30       ??_C@_1DO@PPCLEAKI@?$AAA?$AAd?$AAd?$AAi?$AAt?$AAi?$AAo?$AAn?$AAa?$AAl?$AAD?$AAe?$AAl?$AAa?$AAy?$AAe?$AAd?$AAW?$AAo?$AAr@ 00408c30     ntoswrk:CMDAT3.obj
 0001:00007c70       ??_C@_1EA@FEILHEOL@?$AAA?$AAd?$AAd?$AAi?$AAt?$AAi?$AAo?$AAn?$AAa?$AAl?$AAC?$AAr?$AAi?$AAt?$AAi?$AAc?$AAa?$AAl?$AAW?$AAo@ 00408c70     ntoswrk:CMDAT3.obj
 0001:00007cb0       ??_C@_1DE@GGNOAJBP@?$AAS?$AAe?$AAs?$AAs?$AAi?$AAo?$AAn?$AA?5?$AAM?$AAa?$AAn?$AAa?$AAg?$AAe?$AAr?$AA?2?$AAE?$AAx?$AAe?$AAc@ 00408cb0     ntoswrk:CMDAT3.obj
 0001:00007ce4       ??_C@_1DE@GMADOGDK@?$AAM?$AAi?$AAn?$AAi?$AAm?$AAu?$AAm?$AAS?$AAt?$AAa?$AAc?$AAk?$AAC?$AAo?$AAm?$AAm?$AAi?$AAt?$AAI?$AAn@ 00408ce4     ntoswrk:CMDAT3.obj
 0001:00007d18       ??_C@_1DC@GCHOLFMB@?$AAD?$AAe?$AAa?$AAd?$AAl?$AAo?$AAc?$AAk?$AAS?$AAe?$AAa?$AAr?$AAc?$AAh?$AAN?$AAo?$AAd?$AAe?$AAs?$AAL@ 00408d18     ntoswrk:CMDAT3.obj
 0001:00007d4c       ??_C@_1DI@JHEJPBNI@?$AAD?$AAe?$AAa?$AAd?$AAl?$AAo?$AAc?$AAk?$AAR?$AAe?$AAc?$AAu?$AAr?$AAs?$AAi?$AAo?$AAn?$AAD?$AAe?$AAp@ 00408d4c     ntoswrk:CMDAT3.obj
 0001:00007d84       ??_C@_1BM@BDGNAFP@?$AAM?$AAa?$AAk?$AAe?$AAL?$AAo?$AAw?$AAM?$AAe?$AAm?$AAo?$AAr?$AAy?$AA?$AA@ 00408d84     ntoswrk:CMDAT3.obj
 0001:00007da0       ??_C@_1CO@BEMNDCMB@?$AAE?$AAn?$AAf?$AAo?$AAr?$AAc?$AAe?$AAW?$AAr?$AAi?$AAt?$AAe?$AAP?$AAr?$AAo?$AAt?$AAe?$AAc?$AAt?$AAi@ 00408da0     ntoswrk:CMDAT3.obj
 0001:00007dd0       ??_C@_1CC@CCBGCEEO@?$AAL?$AAa?$AAr?$AAg?$AAe?$AAP?$AAa?$AAg?$AAe?$AAM?$AAi?$AAn?$AAi?$AAm?$AAu?$AAm?$AA?$AA@ 00408dd0     ntoswrk:CMDAT3.obj
 0001:00007df4       ??_C@_1BG@FKHICKAJ@?$AAV?$AAe?$AAr?$AAi?$AAf?$AAy?$AAM?$AAo?$AAd?$AAe?$AA?$AA@ 00408df4     ntoswrk:CMDAT3.obj
 0001:00007e0c       ??_C@_1CE@OMAJLJIP@?$AAV?$AAe?$AAr?$AAi?$AAf?$AAy?$AAD?$AAr?$AAi?$AAv?$AAe?$AAr?$AAL?$AAe?$AAv?$AAe?$AAl?$AA?$AA@ 00408e0c     ntoswrk:CMDAT3.obj
 0001:00007e30       ??_C@_1BM@JKLADBPD@?$AAV?$AAe?$AAr?$AAi?$AAf?$AAy?$AAD?$AAr?$AAi?$AAv?$AAe?$AAr?$AAs?$AA?$AA@ 00408e30     ntoswrk:CMDAT3.obj
 0001:00007e4c       ??_C@_1BE@CJKNINII@?$AAT?$AAr?$AAa?$AAc?$AAk?$AAP?$AAt?$AAe?$AAs?$AA?$AA@ 00408e4c     ntoswrk:CMDAT3.obj
 0001:00007e60       ??_C@_1CC@DDDDJONN@?$AAT?$AAr?$AAa?$AAc?$AAk?$AAL?$AAo?$AAc?$AAk?$AAe?$AAd?$AAP?$AAa?$AAg?$AAe?$AAs?$AA?$AA@ 00408e60     ntoswrk:CMDAT3.obj
 0001:00007e84       ??_C@_1CI@LPIFAHFA@?$AAP?$AAr?$AAo?$AAt?$AAe?$AAc?$AAt?$AAN?$AAo?$AAn?$AAP?$AAa?$AAg?$AAe?$AAd?$AAP?$AAo?$AAo?$AAl?$AA?$AA@ 00408e84     ntoswrk:CMDAT3.obj
 0001:00007eac       ??_C@_1BI@FJKDNIFM@?$AAS?$AAn?$AAa?$AAp?$AAU?$AAn?$AAl?$AAo?$AAa?$AAd?$AAs?$AA?$AA@ 00408eac     ntoswrk:CMDAT3.obj
 0001:00007ec4       ??_C@_1CA@GKCKBGIO@?$AAP?$AAo?$AAo?$AAl?$AAT?$AAa?$AAg?$AAO?$AAv?$AAe?$AAr?$AAr?$AAu?$AAn?$AAs?$AA?$AA@ 00408ec4     ntoswrk:CMDAT3.obj
 0001:00007ee4       ??_C@_1BA@CEHMLOOP@?$AAP?$AAo?$AAo?$AAl?$AAT?$AAa?$AAg?$AA?$AA@ 00408ee4     ntoswrk:CMDAT3.obj
 0001:00007ef4       ??_C@_1CI@GFCNHOJC@?$AAP?$AAo?$AAo?$AAl?$AAT?$AAa?$AAg?$AAB?$AAi?$AAg?$AAT?$AAa?$AAb?$AAl?$AAe?$AAS?$AAi?$AAz?$AAe?$AA?$AA@ 00408ef4     ntoswrk:CMDAT3.obj
 0001:00007f1c       ??_C@_1CM@EKIOMBNO@?$AAP?$AAo?$AAo?$AAl?$AAT?$AAa?$AAg?$AAS?$AAm?$AAa?$AAl?$AAl?$AAT?$AAa?$AAb?$AAl?$AAe?$AAS?$AAi?$AAz@ 00408f1c     ntoswrk:CMDAT3.obj
 0001:00007f48       ??_C@_1DA@JJABBNCH@?$AAC?$AAl?$AAe?$AAa?$AAr?$AAP?$AAa?$AAg?$AAe?$AAF?$AAi?$AAl?$AAe?$AAA?$AAt?$AAS?$AAh?$AAu?$AAt?$AAd@ 00408f48     ntoswrk:CMDAT3.obj
 0001:00007f78       ??_C@_1CK@LBICFBMM@?$AAS?$AAe?$AAc?$AAo?$AAn?$AAd?$AAL?$AAe?$AAv?$AAe?$AAl?$AAD?$AAa?$AAt?$AAa?$AAC?$AAa?$AAc?$AAh?$AAe@ 00408f78     ntoswrk:CMDAT3.obj
 0001:00007fa4       ??_C@_1CC@HOHLGPCL@?$AAM?$AAo?$AAd?$AAi?$AAf?$AAi?$AAe?$AAd?$AAP?$AAa?$AAg?$AAe?$AAL?$AAi?$AAf?$AAe?$AA?$AA@ 00408fa4     ntoswrk:CMDAT3.obj
 0001:00007fc8       ??_C@_1CO@FMBGNOIE@?$AAD?$AAi?$AAs?$AAa?$AAb?$AAl?$AAe?$AAP?$AAa?$AAg?$AAi?$AAn?$AAg?$AAE?$AAx?$AAe?$AAc?$AAu?$AAt?$AAi@ 00408fc8     ntoswrk:CMDAT3.obj
 0001:00007ff8       ??_C@_1CI@IKEANOOE@?$AAH?$AAi?$AAg?$AAh?$AAM?$AAe?$AAm?$AAo?$AAr?$AAy?$AAT?$AAh?$AAr?$AAe?$AAs?$AAh?$AAo?$AAl?$AAd?$AA?$AA@ 00408ff8     ntoswrk:CMDAT3.obj
 0001:00008020       ??_C@_1CG@NHIOIKKP@?$AAL?$AAo?$AAw?$AAM?$AAe?$AAm?$AAo?$AAr?$AAy?$AAT?$AAh?$AAr?$AAe?$AAs?$AAh?$AAo?$AAl?$AAd?$AA?$AA@ 00409020     ntoswrk:CMDAT3.obj
 0001:00008048       ??_C@_1CC@KPMBFFK@?$AAL?$AAa?$AAr?$AAg?$AAe?$AAP?$AAa?$AAg?$AAe?$AAD?$AAr?$AAi?$AAv?$AAe?$AAr?$AAs?$AA?$AA@ 00409048     ntoswrk:CMDAT3.obj
 0001:0000806c       ??_C@_1BI@DLINFHNO@?$AAS?$AAy?$AAs?$AAt?$AAe?$AAm?$AAP?$AAa?$AAg?$AAe?$AAs?$AA?$AA@ 0040906c     ntoswrk:CMDAT3.obj
 0001:00008084       ??_C@_1BO@NNCDNKDO@?$AAL?$AAa?$AAr?$AAg?$AAe?$AAS?$AAt?$AAa?$AAc?$AAk?$AAS?$AAi?$AAz?$AAe?$AA?$AA@ 00409084     ntoswrk:CMDAT3.obj
 0001:000080a4       ??_C@_1CC@ICNJJBPB@?$AAL?$AAa?$AAr?$AAg?$AAe?$AAS?$AAy?$AAs?$AAt?$AAe?$AAm?$AAC?$AAa?$AAc?$AAh?$AAe?$AA?$AA@ 004090a4     ntoswrk:CMDAT3.obj
 0001:000080c8       ??_C@_1DG@HHNHDENM@?$AAN?$AAo?$AAn?$AAP?$AAa?$AAg?$AAe?$AAd?$AAP?$AAo?$AAo?$AAl?$AAM?$AAa?$AAx?$AAi?$AAm?$AAu?$AAm?$AAP@ 004090c8     ntoswrk:CMDAT3.obj
 0001:00008100       ??_C@_1CC@OEIAPMKE@?$AAN?$AAo?$AAn?$AAP?$AAa?$AAg?$AAe?$AAd?$AAP?$AAo?$AAo?$AAl?$AAS?$AAi?$AAz?$AAe?$AA?$AA@ 00409100     ntoswrk:CMDAT3.obj
 0001:00008124       ??_C@_1BM@MLEMHCGF@?$AAP?$AAa?$AAg?$AAe?$AAd?$AAP?$AAo?$AAo?$AAl?$AAS?$AAi?$AAz?$AAe?$AA?$AA@ 00409124     ntoswrk:CMDAT3.obj
 0001:00008140       ??_C@_1CM@KCNKCMNL@?$AAM?$AAa?$AAp?$AAA?$AAl?$AAl?$AAo?$AAc?$AAa?$AAt?$AAi?$AAo?$AAn?$AAF?$AAr?$AAa?$AAg?$AAm?$AAe?$AAn@ 00409140     ntoswrk:CMDAT3.obj
 0001:0000816c       ??_C@_1CC@BJKKJNPK@?$AAP?$AAo?$AAo?$AAl?$AAU?$AAs?$AAa?$AAg?$AAe?$AAM?$AAa?$AAx?$AAi?$AAm?$AAu?$AAm?$AA?$AA@ 0040916c     ntoswrk:CMDAT3.obj
 0001:00008190       ??_C@_1CA@OOKAPJHG@?$AAS?$AAe?$AAs?$AAs?$AAi?$AAo?$AAn?$AAP?$AAo?$AAo?$AAl?$AAS?$AAi?$AAz?$AAe?$AA?$AA@ 00409190     ntoswrk:CMDAT3.obj
 0001:000081b0       ??_C@_1CC@EHJJJKNO@?$AAS?$AAe?$AAs?$AAs?$AAi?$AAo?$AAn?$AAI?$AAm?$AAa?$AAg?$AAe?$AAS?$AAi?$AAz?$AAe?$AA?$AA@ 004091b0     ntoswrk:CMDAT3.obj
 0001:000081d4       ??_C@_1CA@BMPALPHO@?$AAS?$AAe?$AAs?$AAs?$AAi?$AAo?$AAn?$AAV?$AAi?$AAe?$AAw?$AAS?$AAi?$AAz?$AAe?$AA?$AA@ 004091d4     ntoswrk:CMDAT3.obj
 0001:000081f4       ??_C@_1BO@MPJAAPMB@?$AAS?$AAy?$AAs?$AAt?$AAe?$AAm?$AAV?$AAi?$AAe?$AAw?$AAS?$AAi?$AAz?$AAe?$AA?$AA@ 004091f4     ntoswrk:CMDAT3.obj
 0001:00008214       ??_C@_1BM@FCEHOMH@?$AAD?$AAy?$AAn?$AAa?$AAm?$AAi?$AAc?$AAM?$AAe?$AAm?$AAo?$AAr?$AAy?$AA?$AA@ 00409214     ntoswrk:CMDAT3.obj
 0001:00008230       ??_C@_1CK@IPKNCGG@?$AAA?$AAl?$AAl?$AAo?$AAc?$AAa?$AAt?$AAi?$AAo?$AAn?$AAP?$AAr?$AAe?$AAf?$AAe?$AAr?$AAe?$AAn?$AAc?$AAe@ 00409230     ntoswrk:CMDAT3.obj
 0001:0000825c       ??_C@_1CA@OFCCNLFJ@?$AAP?$AAa?$AAg?$AAi?$AAn?$AAg?$AAF?$AAi?$AAl?$AAe?$AAQ?$AAu?$AAo?$AAt?$AAa?$AA?$AA@ 0040925c     ntoswrk:CMDAT3.obj
 0001:0000827c       ??_C@_1CE@NAICKCLE@?$AAN?$AAo?$AAn?$AAP?$AAa?$AAg?$AAe?$AAd?$AAP?$AAo?$AAo?$AAl?$AAQ?$AAu?$AAo?$AAt?$AAa?$AA?$AA@ 0040927c     ntoswrk:CMDAT3.obj
 0001:000082a0       ??_C@_1BO@IGDMFFA@?$AAP?$AAa?$AAg?$AAe?$AAd?$AAP?$AAo?$AAo?$AAl?$AAQ?$AAu?$AAo?$AAt?$AAa?$AA?$AA@ 004092a0     ntoswrk:CMDAT3.obj
 0001:000082c0       ??_C@_1EE@LFCJNLIB@?$AAS?$AAe?$AAs?$AAs?$AAi?$AAo?$AAn?$AA?5?$AAM?$AAa?$AAn?$AAa?$AAg?$AAe?$AAr?$AA?2?$AAM?$AAe?$AAm?$AAo@ 004092c0     ntoswrk:CMDAT3.obj
 0001:00008304       ??_C@_1BG@OGBFMEDC@?$AAG?$AAl?$AAo?$AAb?$AAa?$AAl?$AAF?$AAl?$AAa?$AAg?$AA?$AA@ 00409304     ntoswrk:CMDAT3.obj
 0001:0000831c       ??_C@_1CI@GACLFHFI@?$AAR?$AAe?$AAa?$AAl?$AAT?$AAi?$AAm?$AAe?$AAI?$AAs?$AAU?$AAn?$AAi?$AAv?$AAe?$AAr?$AAs?$AAa?$AAl?$AA?$AA@ 0040931c     ntoswrk:CMDAT3.obj
 0001:00008344       ??_C@_19PDLMCIAJ@?$AAB?$AAi?$AAa?$AAs?$AA?$AA@ 00409344     ntoswrk:CMDAT3.obj
 0001:00008350       ??_C@_1BO@EAFFNCKE@?$AAA?$AAc?$AAt?$AAi?$AAv?$AAe?$AAT?$AAi?$AAm?$AAe?$AAB?$AAi?$AAa?$AAs?$AA?$AA@ 00409350     ntoswrk:CMDAT3.obj
 0001:00008370       ??_C@_1CI@GMLPCOJB@?$AAT?$AAi?$AAm?$AAe?$AAZ?$AAo?$AAn?$AAe?$AAI?$AAn?$AAf?$AAo?$AAr?$AAm?$AAa?$AAt?$AAi?$AAo?$AAn?$AA?$AA@ 00409370     ntoswrk:CMDAT3.obj
 0001:00008398       ??_C@_1CO@DHIOJFAB@?$AAP?$AAr?$AAo?$AAc?$AAe?$AAs?$AAs?$AAA?$AAc?$AAc?$AAe?$AAs?$AAs?$AAe?$AAs?$AAT?$AAo?$AAA?$AAu?$AAd@ 00409398     ntoswrk:CMDAT3.obj
 0001:000083c8       ??_C@_1BE@NJDEJMON@?$AAL?$AAS?$AAA?$AA?2?$AAa?$AAu?$AAd?$AAi?$AAt?$AA?$AA@ 004093c8     ntoswrk:CMDAT3.obj
 0001:000083dc       ??_C@_1CC@MBGHAOD@?$AAA?$AAu?$AAd?$AAi?$AAt?$AAB?$AAa?$AAs?$AAe?$AAO?$AAb?$AAj?$AAe?$AAc?$AAt?$AAs?$AA?$AA@ 004093dc     ntoswrk:CMDAT3.obj
 0001:00008400       ??_C@_1CK@JDMEECLM@?$AAA?$AAu?$AAd?$AAi?$AAt?$AAB?$AAa?$AAs?$AAe?$AAD?$AAi?$AAr?$AAe?$AAc?$AAt?$AAo?$AAr?$AAi?$AAe?$AAs@ 00409400     ntoswrk:CMDAT3.obj
 0001:0000842c       ??_C@_17ENFNLCDF@?$AAL?$AAS?$AAA?$AA?$AA@ 0040942c     ntoswrk:CMDAT3.obj
 0001:00008434       ??_C@_1CO@JGCFELKE@?$AAL?$AAU?$AAI?$AAD?$AAD?$AAe?$AAv?$AAi?$AAc?$AAe?$AAM?$AAa?$AAp?$AAs?$AAD?$AAi?$AAs?$AAa?$AAb?$AAl@ 00409434     ntoswrk:CMDAT3.obj
 0001:00008464       ??_C@_1CG@FFOEBBPF@?$AAO?$AAb?$AAj?$AAe?$AAc?$AAt?$AAS?$AAe?$AAc?$AAu?$AAr?$AAi?$AAt?$AAy?$AAM?$AAo?$AAd?$AAe?$AA?$AA@ 00409464     ntoswrk:CMDAT3.obj
 0001:0000848c       ??_C@_1BO@JFJHGLBJ@?$AAP?$AAr?$AAo?$AAt?$AAe?$AAc?$AAt?$AAi?$AAo?$AAn?$AAM?$AAo?$AAd?$AAe?$AA?$AA@ 0040948c     ntoswrk:CMDAT3.obj
 0001:000084ac       ??_C@_1CA@NGDFGHGA@?$AAS?$AAe?$AAs?$AAs?$AAi?$AAo?$AAn?$AA?5?$AAM?$AAa?$AAn?$AAa?$AAg?$AAe?$AAr?$AA?$AA@ 004094ac     ntoswrk:CMDAT3.obj
 0001:00008518       ??_C@_0EB@CFDEEOMC@?$CK?5?$CK?5?$CK?5?$CK?5?$CK?5?$CK?5?$CK?5?$CK?5?$CK?5?$CK?5?$CK?5?$CK?5?$CK?5?$CK?5?$CK?5?$CK?5@ 00409518     ntoswrk:VFHAL.obj
 0001:0000855c       ??_C@_01EEMJAFIK@?6?$AA@   0040955c     ntoswrk:VFHAL.obj
 0001:00008560       ??_C@_0CI@LPKOBHGO@?$CK?$CK?$CK?$CK?5Bad?5IRQL?5?9?9?5needed?5?$CFx?0?5got?5@ 00409560     ntoswrk:VFHAL.obj
 0001:00008588       ??_C@_08COGKJLLA@?$CK?5?$CK?5VF?3?5?$AA@ 00409588     ntoswrk:VFHAL.obj
 0001:00008594       ??_C@_04NNKLLLMF@?$CK?5?$CK?6?$AA@ 00409594     ntoswrk:VFHAL.obj
 0001:000085a0       ??_C@_0EB@HOCPBIB@?$CK?5?$CK?5?$CK?5?$CK?5?$CK?5?$CK?5?$CK?5?$CK?5HAL?5Verifier?5Det@ 004095a0     ntoswrk:VFHAL.obj
 0001:000085e4       ??_C@_0DA@NANFLFMK@?$CK?$CK?$CK?$CK?5Bad?5IRQL?5?9?9?5needed?5?$CFx?5or?5le@ 004095e4     ntoswrk:VFHAL.obj
 0001:00008614       ??_C@_0CP@GCEBIDHB@Allocated?5too?5many?5map?5registers@ 00409614     ntoswrk:VFHAL.obj
 0001:00008644       ??_C@_0DJ@NFLGEACC@Allocating?5too?5many?5map?5register@ 00409644     ntoswrk:VFHAL.obj
 0001:00008680       ??_C@_0CB@EMEBLIHP@Freed?5too?5many?5map?5registers?3?5?$CFx@ 00409680     ntoswrk:VFHAL.obj
 0001:000086a4       ??_C@_0BO@COFABPEI@Freed?5too?5many?5common?5buffers?$AA@ 004096a4     ntoswrk:VFHAL.obj
 0001:000086c8       ??_C@_0EC@LPIEIOLF@Driver?5did?5not?5flush?5adapter?5buf@ 004096c8     ntoswrk:VFHAL.obj
 0001:0000870c       ??_C@_0DM@BHAJFAGE@Driver?5has?5allocated?5too?5many?5si@ 0040970c     ntoswrk:VFHAL.obj
 0001:00008748       ??_C@_0DI@GNIMOCNC@Driver?5has?5freed?5too?5many?5simult@ 00409748     ntoswrk:VFHAL.obj
 0001:00008780       ??_C@_0EG@HEIMMNH@Driver?5has?5freed?5too?5many?5scatte@ 00409780     ntoswrk:VFHAL.obj
 0001:000087c8       ??_C@_0DA@PBDCNONJ@DMA?5Pages?5Not?5Locked?$CB?5MDL?5?$CFp?5for@ 004097c8     ntoswrk:VFHAL.obj
 0001:000097f8       __DEFAULT_CW_in_mem        0040a7f8     ntoswrk:common.obj
 0001:000097fa       __pi_by_2_to_61            0040a7fa     ntoswrk:common.obj
 0001:00009838       ___lookuptable             0040a838     ntoswrk:output.obj
 0001:00009894       ??_C@_1O@CEDCILHN@?$AA?$CI?$AAn?$AAu?$AAl?$AAl?$AA?$CJ?$AA?$AA@ 0040a894     ntoswrk:output.obj
 0001:000098a4       ??_C@_06OJHGLDPL@?$CInull?$CJ?$AA@ 0040a8a4     ntoswrk:output.obj
 0001:000098b0       ___newctype                0040a8b0     ntoswrk:ctype.obj
 0001:00009bb0       __wctype                   0040abb0     ntoswrk:ctype.obj
 0001:00009db4       ??_C@_1BA@EOKOFGEP@?$AAI?$AAn?$AAv?$AAa?$AAl?$AAi?$AAd?$AA?$AA@ 0040adb4     ntoswrk:PREFPARM.obj
 0001:00009dc4       ??_C@_19JCAOHIEH@?$AAB?$AAo?$AAo?$AAt?$AA?$AA@ 0040adc4     ntoswrk:PREFPARM.obj
 0001:00009dd0       ??_C@_1BE@MLPDMAIF@?$AAA?$AAp?$AAp?$AAL?$AAa?$AAu?$AAn?$AAc?$AAh?$AA?$AA@ 0040add0     ntoswrk:PREFPARM.obj
 0001:00009e2c       ??_C@_0L@KDOEJCKC@_nextafter?$AA@ 0040ae2c     ntoswrk:fpexcept.obj
 0001:00009e38       ??_C@_05JGDBENOH@_logb?$AA@ 0040ae38     ntoswrk:fpexcept.obj
 0001:00009e40       ??_C@_03ONILCKOB@_yn?$AA@  0040ae40     ntoswrk:fpexcept.obj
 0001:00009e44       ??_C@_03NAKIGLHK@_y1?$AA@  0040ae44     ntoswrk:fpexcept.obj
 0001:00009e48       ??_C@_03MJLDFKDL@_y0?$AA@  0040ae48     ntoswrk:fpexcept.obj
 0001:00009e4c       ??_C@_05GKKHEGJL@frexp?$AA@ 0040ae4c     ntoswrk:fpexcept.obj
 0001:00009e54       ??_C@_04KEPJIHGP@fmod?$AA@ 0040ae54     ntoswrk:fpexcept.obj
 0001:00009e5c       ??_C@_06MEIMCGCF@_hypot?$AA@ 0040ae5c     ntoswrk:fpexcept.obj
 0001:00009e64       ??_C@_05KBKMEMPO@_cabs?$AA@ 0040ae64     ntoswrk:fpexcept.obj
 0001:00009e6c       ??_C@_05CEJMAHNP@ldexp?$AA@ 0040ae6c     ntoswrk:fpexcept.obj
 0001:00009e74       ??_C@_04EHEDPDJG@modf?$AA@ 0040ae74     ntoswrk:fpexcept.obj
 0001:00009e7c       ??_C@_04ODHECPBC@fabs?$AA@ 0040ae7c     ntoswrk:fpexcept.obj
 0001:00009e84       ??_C@_05PBJFFIGL@floor?$AA@ 0040ae84     ntoswrk:fpexcept.obj
 0001:00009e8c       ??_C@_04GFPJNGEK@ceil?$AA@ 0040ae8c     ntoswrk:fpexcept.obj
 0001:00009e94       ??_C@_03IIINPABG@tan?$AA@  0040ae94     ntoswrk:fpexcept.obj
 0001:00009e98       ??_C@_03LALBNOCG@cos?$AA@  0040ae98     ntoswrk:fpexcept.obj
 0001:00009e9c       ??_C@_03BLEJJJBH@sin?$AA@  0040ae9c     ntoswrk:fpexcept.obj
 0001:00009ea0       ??_C@_04EIAKFFMI@sqrt?$AA@ 0040aea0     ntoswrk:fpexcept.obj
 0001:00009ea8       ??_C@_05KNGEOGJB@atan2?$AA@ 0040aea8     ntoswrk:fpexcept.obj
 0001:00009eb0       ??_C@_04MLLJIGOK@atan?$AA@ 0040aeb0     ntoswrk:fpexcept.obj
 0001:00009eb8       ??_C@_04PDIFKINK@acos?$AA@ 0040aeb8     ntoswrk:fpexcept.obj
 0001:00009ec0       ??_C@_04FIHNOPOL@asin?$AA@ 0040aec0     ntoswrk:fpexcept.obj
 0001:00009ec8       ??_C@_04FJHINJAO@tanh?$AA@ 0040aec8     ntoswrk:fpexcept.obj
 0001:00009ed0       ??_C@_04HPJJNFIM@cosh?$AA@ 0040aed0     ntoswrk:fpexcept.obj
 0001:00009ed8       ??_C@_04COOMCNPB@sinh?$AA@ 0040aed8     ntoswrk:fpexcept.obj
 0001:00009ee0       ??_C@_05HGHHAHAP@log10?$AA@ 0040aee0     ntoswrk:fpexcept.obj
 0001:00009ee8       ??_C@_03MGHMBJCF@log?$AA@  0040aee8     ntoswrk:fpexcept.obj
 0001:00009eec       ??_C@_03JGHBODFD@pow?$AA@  0040aeec     ntoswrk:fpexcept.obj
 0001:00009ef0       ??_C@_03KHJOGHMM@exp?$AA@  0040aef0     ntoswrk:fpexcept.obj
 0001:00009ef8       __real@0000000000000000    0040aef8     ntoswrk:fpexcept.obj
 0001:00009f00       ??_C@_1BO@GBCFPCKI@?$AAA?$AAp?$AAp?$AAC?$AAo?$AAm?$AAp?$AAa?$AAt?$AAC?$AAa?$AAc?$AAh?$AAe?$AA?$AA@ 0040af00     sdbapint:ahcache.obj
 0001:00009f20       ??_C@_1KE@IPDIKBLN@?$AA?2?$AAR?$AAe?$AAg?$AAi?$AAs?$AAt?$AAr?$AAy?$AA?2?$AAM?$AAA?$AAC?$AAH?$AAI?$AAN?$AAE?$AA?2?$AAS?$AAy@ 0040af20     sdbapint:ahcache.obj
 0001:00009fc8       ??_C@_1KM@HEAAFHCD@?$AA?2?$AAR?$AAe?$AAg?$AAi?$AAs?$AAt?$AAr?$AAy?$AA?2?$AAM?$AAa?$AAc?$AAh?$AAi?$AAn?$AAe?$AA?2?$AAS?$AAo@ 0040afc8     sdbapint:ahcache.obj
 0001:0000a078       ??_C@_1II@GHBLLJNI@?$AA?2?$AAS?$AAo?$AAf?$AAt?$AAw?$AAa?$AAr?$AAe?$AA?2?$AAM?$AAi?$AAc?$AAr?$AAo?$AAs?$AAo?$AAf?$AAt?$AA?2@ 0040b078     sdbapint:ahcache.obj
 0001:0000a10c       ??_C@_09GLCGFILD@SAFEBOOT?3?$AA@ 0040b10c     sdbapint:ahcache.obj
 0001:0000a124       _g_bDBG                    0040b124     sdbapint:sdbapi.obj
 0001:0000a12c       ??_C@_1O@PFKKKDLL@?$AAN?$AAo?$AAr?$AAm?$AAa?$AAl?$AA?$AA@ 0040b12c     sdbapint:sdbapi.obj
 0001:0000a13c       ??_C@_1BE@DJHAJDEM@?$AAE?$AAx?$AAc?$AAl?$AAu?$AAs?$AAi?$AAv?$AAe?$AA?$AA@ 0040b13c     sdbapint:sdbapi.obj
 0001:0000a150       ??_C@_1BC@OBEEBGAH@?$AAA?$AAd?$AAd?$AAi?$AAt?$AAi?$AAv?$AAe?$AA?$AA@ 0040b150     sdbapint:sdbapi.obj
 0001:0000a164       ??_C@_1BA@LEPJIIOK@?$AAU?$AAn?$AAk?$AAn?$AAo?$AAw?$AAn?$AA?$AA@ 0040b164     sdbapint:sdbapi.obj
 0001:0000a174       ??_C@_1CK@OMMACOCP@?$AA0?$AAx?$AA?$CF?$AA?4?$AA2?$AAx?$AA?$CF?$AA?4?$AA2?$AAx?$AA?5?$AA?$FL?$AAM?$AAo?$AAd?$AAe?$AA?3?$AA?5?$AA?$CF?$AAs@ 0040b174     sdbapint:sdbapi.obj
 0001:0000a1b8       ??_C@_1JM@LJOFIBLK@?$AA?2?$AAR?$AAe?$AAg?$AAi?$AAs?$AAt?$AAr?$AAy?$AA?2?$AAM?$AAa?$AAc?$AAh?$AAi?$AAn?$AAe?$AA?2?$AAS?$AAo@ 0040b1b8     sdbapint:ntbase.obj
 0001:0000a254       ??_C@_1BO@DAFANMIE@?$AAL?$AAe?$AAg?$AAa?$AAl?$AAC?$AAo?$AAp?$AAy?$AAr?$AAi?$AAg?$AAh?$AAt?$AA?$AA@ 0040b254     sdbapint:attributes.obj
 0001:0000a274       ??_C@_1BK@OCJLMIBB@?$AAI?$AAn?$AAt?$AAe?$AAr?$AAn?$AAa?$AAl?$AAN?$AAa?$AAm?$AAe?$AA?$AA@ 0040b274     sdbapint:attributes.obj
 0001:0000a290       ??_C@_1CC@CHBCEHAO@?$AAO?$AAr?$AAi?$AAg?$AAi?$AAn?$AAa?$AAl?$AAF?$AAi?$AAl?$AAe?$AAn?$AAa?$AAm?$AAe?$AA?$AA@ 0040b290     sdbapint:attributes.obj
 0001:0000a2b4       ??_C@_1BI@HCCAONKE@?$AAF?$AAi?$AAl?$AAe?$AAV?$AAe?$AAr?$AAs?$AAi?$AAo?$AAn?$AA?$AA@ 0040b2b4     sdbapint:attributes.obj
 0001:0000a2cc       ??_C@_1BI@CJGIOPAN@?$AAP?$AAr?$AAo?$AAd?$AAu?$AAc?$AAt?$AAN?$AAa?$AAm?$AAe?$AA?$AA@ 0040b2cc     sdbapint:attributes.obj
 0001:0000a2e4       ??_C@_1BI@KBKGFMKH@?$AAC?$AAo?$AAm?$AAp?$AAa?$AAn?$AAy?$AAN?$AAa?$AAm?$AAe?$AA?$AA@ 0040b2e4     sdbapint:attributes.obj
 0001:0000a2fc       ??_C@_1CA@JGBAIPOO@?$AAF?$AAi?$AAl?$AAe?$AAD?$AAe?$AAs?$AAc?$AAr?$AAi?$AAp?$AAt?$AAi?$AAo?$AAn?$AA?$AA@ 0040b2fc     sdbapint:attributes.obj
 0001:0000a31c       ??_C@_1BO@OKEPMKJE@?$AAP?$AAr?$AAo?$AAd?$AAu?$AAc?$AAt?$AAV?$AAe?$AAr?$AAs?$AAi?$AAo?$AAn?$AA?$AA@ 0040b31c     sdbapint:attributes.obj
 0001:0000a33c       ??_C@_17BALMPEHE@?$AAD?$AAO?$AAS?$AA?$AA@ 0040b33c     sdbapint:attributes.obj
 0001:0000a344       ??_C@_1M@EKLNDDIP@?$AAW?$AAI?$AAN?$AA3?$AA2?$AA?$AA@ 0040b344     sdbapint:attributes.obj
 0001:0000a350       ??_C@_1M@IIBHAFND@?$AAW?$AAI?$AAN?$AA1?$AA6?$AA?$AA@ 0040b350     sdbapint:attributes.obj
 0001:0000a35c       ??_C@_19PFCDLDMI@?$AAN?$AAO?$AAN?$AAE?$AA?$AA@ 0040b35c     sdbapint:attributes.obj
 0001:0000a368       ??_C@_1M@NFFGGLEH@?$AAT?$AAA?$AAG?$AAI?$AAD?$AA?$AA@ 0040b368     sdbapint:attributes.obj
 0001:0000a374       ??_C@_17IJHGGEOH@?$AAT?$AAA?$AAG?$AA?$AA@ 0040b374     sdbapint:attributes.obj
 0001:0000a37c       ??_C@_1BI@JPPDOBL@?$AAS?$AAT?$AAR?$AAT?$AAA?$AAB?$AA_?$AAI?$AAT?$AAE?$AAM?$AA?$AA@ 0040b37c     sdbapint:attributes.obj
 0001:0000a394       ??_C@_1BG@ECHGLMMD@?$AAI?$AAN?$AAD?$AAE?$AAX?$AA_?$AAB?$AAI?$AAT?$AAS?$AA?$AA@ 0040b394     sdbapint:attributes.obj
 0001:0000a3ac       ??_C@_1BE@EOJEJMOD@?$AAI?$AAN?$AAD?$AAE?$AAX?$AA_?$AAK?$AAE?$AAY?$AA?$AA@ 0040b3ac     sdbapint:attributes.obj
 0001:0000a3c0       ??_C@_1BE@MAFINNNO@?$AAI?$AAN?$AAD?$AAE?$AAX?$AA_?$AAT?$AAA?$AAG?$AA?$AA@ 0040b3c0     sdbapint:attributes.obj
 0001:0000a3d4       ??_C@_1M@FFGIPDGH@?$AAI?$AAN?$AAD?$AAE?$AAX?$AA?$AA@ 0040b3d4     sdbapint:attributes.obj
 0001:0000a3e0       ??_C@_1BA@CBHLHNHE@?$AAI?$AAN?$AAD?$AAE?$AAX?$AAE?$AAS?$AA?$AA@ 0040b3e0     sdbapint:attributes.obj
 0001:0000a3f0       ??_C@_1BI@OEJEABMO@?$AAS?$AAT?$AAR?$AAI?$AAN?$AAG?$AAT?$AAA?$AAB?$AAL?$AAE?$AA?$AA@ 0040b3f0     sdbapint:attributes.obj
 0001:0000a408       ??_C@_1BG@DIAIAOKA@?$AAM?$AAA?$AAT?$AAC?$AAH?$AA_?$AAM?$AAO?$AAD?$AAE?$AA?$AA@ 0040b408     sdbapint:attributes.obj
 0001:0000a420       ??_C@_1CE@FHLEFEMN@?$AAD?$AAA?$AAT?$AAA?$AAB?$AAA?$AAS?$AAE?$AA_?$AAI?$AAD?$AA?$CI?$AAG?$AAU?$AAI?$AAD?$AA?$CJ?$AA?$AA@ 0040b420     sdbapint:attributes.obj
 0001:0000a444       ??_C@_1CK@OFHNBBIB@?$AAM?$AAS?$AAI?$AA_?$AAP?$AAA?$AAC?$AAK?$AAA?$AAG?$AAE?$AA_?$AAI?$AAD?$AA?$CI?$AAG?$AAU?$AAI?$AAD?$AA?$CJ@ 0040b444     sdbapint:attributes.obj
 0001:0000a470       ??_C@_1BE@LCOLFKFD@?$AAD?$AAA?$AAT?$AAA?$AA_?$AAB?$AAI?$AAT?$AAS?$AA?$AA@ 0040b470     sdbapint:attributes.obj
 0001:0000a484       ??_C@_1BK@NIIHNGOB@?$AAE?$AAX?$AAE?$AA_?$AAI?$AAD?$AA?$CI?$AAG?$AAU?$AAI?$AAD?$AA?$CJ?$AA?$AA@ 0040b484     sdbapint:attributes.obj
 0001:0000a4a0       ??_C@_1BE@ODOMKMBJ@?$AAF?$AAI?$AAL?$AAE?$AA_?$AAB?$AAI?$AAT?$AAS?$AA?$AA@ 0040b4a0     sdbapint:attributes.obj
 0001:0000a4b4       ??_C@_1BG@CCPFMNPD@?$AAP?$AAA?$AAT?$AAC?$AAH?$AA_?$AAB?$AAI?$AAT?$AAS?$AA?$AA@ 0040b4b4     sdbapint:attributes.obj
 0001:0000a4cc       ??_C@_1CG@GBEOIIJN@?$AAF?$AAL?$AAA?$AAG?$AAS?$AA_?$AAP?$AAR?$AAO?$AAC?$AAE?$AAS?$AAS?$AAP?$AAA?$AAR?$AAA?$AAM?$AA?$AA@ 0040b4cc     sdbapint:attributes.obj
 0001:0000a4f4       ??_C@_1BK@PKNLALCK@?$AAF?$AAL?$AAA?$AAG?$AAS?$AA_?$AAN?$AAT?$AAV?$AAD?$AAM?$AA3?$AA?$AA@ 0040b4f4     sdbapint:attributes.obj
 0001:0000a510       ??_C@_1BK@ECGHGMEP@?$AAF?$AAL?$AAA?$AAG?$AAS?$AA_?$AAN?$AAT?$AAV?$AAD?$AAM?$AA2?$AA?$AA@ 0040b510     sdbapint:attributes.obj
 0001:0000a52c       ??_C@_1BK@FANCMDKB@?$AAF?$AAL?$AAA?$AAG?$AAS?$AA_?$AAN?$AAT?$AAV?$AAD?$AAM?$AA1?$AA?$AA@ 0040b52c     sdbapint:attributes.obj
 0001:0000a548       ??_C@_1BG@KGDCLLHD@?$AAD?$AAA?$AAT?$AAA?$AA_?$AAQ?$AAW?$AAO?$AAR?$AAD?$AA?$AA@ 0040b548     sdbapint:attributes.obj
 0001:0000a560       ??_C@_1CM@JNBOFAHB@?$AAU?$AAP?$AAT?$AAO?$AA_?$AAB?$AAI?$AAN?$AA_?$AAF?$AAI?$AAL?$AAE?$AA_?$AAV?$AAE?$AAR?$AAS?$AAI?$AAO@ 0040b560     sdbapint:attributes.obj
 0001:0000a58c       ??_C@_1DC@DMJADDGF@?$AAU?$AAP?$AAT?$AAO?$AA_?$AAB?$AAI?$AAN?$AA_?$AAP?$AAR?$AAO?$AAD?$AAU?$AAC?$AAT?$AA_?$AAV?$AAE?$AAR@ 0040b58c     sdbapint:attributes.obj
 0001:0000a5c0       ??_C@_1CC@PMGIDPBI@?$AAF?$AAL?$AAA?$AAG?$AA_?$AAM?$AAA?$AAS?$AAK?$AA_?$AAF?$AAU?$AAS?$AAI?$AAO?$AAN?$AA?$AA@ 0040b5c0     sdbapint:attributes.obj
 0001:0000a5e4       ??_C@_1CA@NMLOFOGK@?$AAF?$AAL?$AAA?$AAG?$AA_?$AAM?$AAA?$AAS?$AAK?$AA_?$AAS?$AAH?$AAE?$AAL?$AAL?$AA?$AA@ 0040b5e4     sdbapint:attributes.obj
 0001:0000a604       ??_C@_1BO@EONDKLEN@?$AAF?$AAL?$AAA?$AAG?$AA_?$AAM?$AAA?$AAS?$AAK?$AA_?$AAU?$AAS?$AAE?$AAR?$AA?$AA@ 0040b604     sdbapint:attributes.obj
 0001:0000a624       ??_C@_1CC@KJBPCLHF@?$AAF?$AAL?$AAA?$AAG?$AA_?$AAM?$AAA?$AAS?$AAK?$AA_?$AAK?$AAE?$AAR?$AAN?$AAE?$AAL?$AA?$AA@ 0040b624     sdbapint:attributes.obj
 0001:0000a648       ??_C@_1BA@IJBJIBMI@?$AAM?$AAO?$AAD?$AAT?$AAI?$AAM?$AAE?$AA?$AA@ 0040b648     sdbapint:attributes.obj
 0001:0000a658       ??_C@_1CI@GIOAMECM@?$AAB?$AAI?$AAN?$AA_?$AAP?$AAR?$AAO?$AAD?$AAU?$AAC?$AAT?$AA_?$AAV?$AAE?$AAR?$AAS?$AAI?$AAO?$AAN?$AA?$AA@ 0040b658     sdbapint:attributes.obj
 0001:0000a680       ??_C@_1CC@GCFDAKOJ@?$AAB?$AAI?$AAN?$AA_?$AAF?$AAI?$AAL?$AAE?$AA_?$AAV?$AAE?$AAR?$AAS?$AAI?$AAO?$AAN?$AA?$AA@ 0040b680     sdbapint:attributes.obj
 0001:0000a6a4       ??_C@_19IFFENJMA@?$AAT?$AAI?$AAM?$AAE?$AA?$AA@ 0040b6a4     sdbapint:attributes.obj
 0001:0000a6b0       ??_C@_1CO@NFIOAAOE@?$AAU?$AAS?$AAE?$AA_?$AAS?$AAE?$AAR?$AAV?$AAI?$AAC?$AAE?$AA_?$AAP?$AAA?$AAC?$AAK?$AA_?$AAF?$AAI?$AAL@ 0040b6b0     sdbapint:attributes.obj
 0001:0000a6e0       ??_C@_1CA@OGJAFOOC@?$AAA?$AAP?$AAP?$AAL?$AAY?$AA_?$AAA?$AAL?$AAL?$AA_?$AAS?$AAH?$AAI?$AAM?$AAS?$AA?$AA@ 0040b6e0     sdbapint:attributes.obj
 0001:0000a700       ??_C@_1CA@MGDNHHAM@?$AAM?$AAA?$AAT?$AAC?$AAH?$AA_?$AAL?$AAO?$AAG?$AAI?$AAC?$AA_?$AAN?$AAO?$AAT?$AA?$AA@ 0040b700     sdbapint:attributes.obj
 0001:0000a720       ??_C@_1BA@KGNNEBEE@?$AAG?$AAE?$AAN?$AAE?$AAR?$AAA?$AAL?$AA?$AA@ 0040b720     sdbapint:attributes.obj
 0001:0000a730       ??_C@_1BA@IMNNHBAG@?$AAI?$AAN?$AAC?$AAL?$AAU?$AAD?$AAE?$AA?$AA@ 0040b730     sdbapint:attributes.obj
 0001:0000a740       ??_C@_1BI@NPAPILHD@?$AAO?$AAS?$AA_?$AAP?$AAL?$AAA?$AAT?$AAF?$AAO?$AAR?$AAM?$AA?$AA@ 0040b740     sdbapint:attributes.obj
 0001:0000a758       ??_C@_1O@HIHGGBBM@?$AAO?$AAS?$AA_?$AAS?$AAK?$AAU?$AA?$AA@ 0040b758     sdbapint:attributes.obj
 0001:0000a768       ??_C@_1CC@ICGIMKKN@?$AAR?$AAU?$AAN?$AAT?$AAI?$AAM?$AAE?$AA_?$AAP?$AAL?$AAA?$AAT?$AAF?$AAO?$AAR?$AAM?$AA?$AA@ 0040b768     sdbapint:attributes.obj
 0001:0000a78c       ??_C@_1CI@PNINLHEA@?$AAM?$AAS?$AAI?$AA_?$AAT?$AAR?$AAA?$AAN?$AAS?$AAF?$AAO?$AAR?$AAM?$AA_?$AAT?$AAA?$AAG?$AAI?$AAD?$AA?$AA@ 0040b78c     sdbapint:attributes.obj
 0001:0000a7b4       ??_C@_1BG@DCIJCBJP@?$AAD?$AAA?$AAT?$AAA?$AA_?$AAD?$AAW?$AAO?$AAR?$AAD?$AA?$AA@ 0040b7b4     sdbapint:attributes.obj
 0001:0000a7cc       ??_C@_1BE@CMAOBKBA@?$AAV?$AAA?$AAL?$AAU?$AAE?$AAT?$AAY?$AAP?$AAE?$AA?$AA@ 0040b7cc     sdbapint:attributes.obj
 0001:0000a7e0       ??_C@_1M@PBCAJEEF@?$AAF?$AAL?$AAA?$AAG?$AAS?$AA?$AA@ 0040b7e0     sdbapint:attributes.obj
 0001:0000a7ec       ??_C@_1O@OBCAHNEG@?$AAE?$AAN?$AAG?$AAI?$AAN?$AAE?$AA?$AA@ 0040b7ec     sdbapint:attributes.obj
 0001:0000a7fc       ??_C@_1BO@NNDHIHHN@?$AAA?$AAP?$AAP?$AAH?$AAE?$AAL?$AAP?$AA_?$AAL?$AAA?$AAN?$AAG?$AAI?$AAD?$AA?$AA@ 0040b7fc     sdbapint:attributes.obj
 0001:0000a81c       ??_C@_1BG@JLKJDAJN@?$AAI?$AAN?$AAD?$AAE?$AAX?$AAF?$AAL?$AAA?$AAG?$AAS?$AA?$AA@ 0040b81c     sdbapint:attributes.obj
 0001:0000a834       ??_C@_1BG@EINDJIAK@?$AAH?$AAT?$AAM?$AAL?$AAH?$AAE?$AAL?$AAP?$AAI?$AAD?$AA?$AA@ 0040b834     sdbapint:attributes.obj
 0001:0000a84c       ??_C@_1CC@LFIKIDHG@?$AAP?$AAR?$AAO?$AAB?$AAL?$AAE?$AAM?$AA_?$AAS?$AAE?$AAV?$AAE?$AAR?$AAI?$AAT?$AAY?$AA?$AA@ 0040b84c     sdbapint:attributes.obj
 0001:0000a870       ??_C@_1BM@OCNNIJBC@?$AAP?$AAR?$AAE?$AAV?$AAO?$AAS?$AAB?$AAU?$AAI?$AAL?$AAD?$AAN?$AAO?$AA?$AA@ 0040b870     sdbapint:attributes.obj
 0001:0000a88c       ??_C@_1CC@LHCKBPFM@?$AAP?$AAR?$AAE?$AAV?$AAO?$AAS?$AAP?$AAL?$AAA?$AAT?$AAF?$AAO?$AAR?$AAM?$AAI?$AAD?$AA?$AA@ 0040b88c     sdbapint:attributes.obj
 0001:0000a8b0       ??_C@_1CG@DFNIOHIA@?$AAP?$AAR?$AAE?$AAV?$AAO?$AAS?$AAM?$AAI?$AAN?$AAO?$AAR?$AAV?$AAE?$AAR?$AAS?$AAI?$AAO?$AAN?$AA?$AA@ 0040b8b0     sdbapint:attributes.obj
 0001:0000a8d8       ??_C@_1CG@LLHEEIDO@?$AAP?$AAR?$AAE?$AAV?$AAO?$AAS?$AAM?$AAA?$AAJ?$AAO?$AAR?$AAV?$AAE?$AAR?$AAS?$AAI?$AAO?$AAN?$AA?$AA@ 0040b8d8     sdbapint:attributes.obj
 0001:0000a900       ??_C@_1BK@MHNEPFFF@?$AAV?$AAE?$AAR?$AA_?$AAL?$AAA?$AAN?$AAG?$AAU?$AAA?$AAG?$AAE?$AA?$AA@ 0040b900     sdbapint:attributes.obj
 0001:0000a91c       ??_C@_1CA@ICPICGGA@?$AAO?$AAS?$AA_?$AAS?$AAE?$AAR?$AAV?$AAI?$AAC?$AAE?$AA_?$AAP?$AAA?$AAC?$AAK?$AA?$AA@ 0040b91c     sdbapint:attributes.obj
 0001:0000a93c       ??_C@_1BO@LBICKDIB@?$AAU?$AAP?$AAT?$AAO?$AA_?$AAL?$AAI?$AAN?$AAK?$AA_?$AAD?$AAA?$AAT?$AAE?$AA?$AA@ 0040b93c     sdbapint:attributes.obj
 0001:0000a95c       ??_C@_1BE@FDELBPHF@?$AAL?$AAI?$AAN?$AAK?$AA_?$AAD?$AAA?$AAT?$AAE?$AA?$AA@ 0040b95c     sdbapint:attributes.obj
 0001:0000a970       ??_C@_1BO@NOIIKBIH@?$AAL?$AAI?$AAN?$AAK?$AAE?$AAR?$AA_?$AAV?$AAE?$AAR?$AAS?$AAI?$AAO?$AAN?$AA?$AA@ 0040b970     sdbapint:attributes.obj
 0001:0000a990       ??_C@_1BI@CKKADGLP@?$AAP?$AAE?$AA_?$AAC?$AAH?$AAE?$AAC?$AAK?$AAS?$AAU?$AAM?$AA?$AA@ 0040b990     sdbapint:attributes.obj
 0001:0000a9a8       ??_C@_1BI@PFCJLHGF@?$AAV?$AAE?$AAR?$AAF?$AAI?$AAL?$AAE?$AAT?$AAY?$AAP?$AAE?$AA?$AA@ 0040b9a8     sdbapint:attributes.obj
 0001:0000a9c0       ??_C@_1BE@GGEFAMGA@?$AAV?$AAE?$AAR?$AAF?$AAI?$AAL?$AAE?$AAO?$AAS?$AA?$AA@ 0040b9c0     sdbapint:attributes.obj
 0001:0000a9d4       ??_C@_1BM@JLNIPDLE@?$AAV?$AAE?$AAR?$AAF?$AAI?$AAL?$AAE?$AAD?$AAA?$AAT?$AAE?$AAL?$AAO?$AA?$AA@ 0040b9d4     sdbapint:attributes.obj
 0001:0000a9f0       ??_C@_1BM@CFCCOOHO@?$AAV?$AAE?$AAR?$AAF?$AAI?$AAL?$AAE?$AAD?$AAA?$AAT?$AAE?$AAH?$AAI?$AA?$AA@ 0040b9f0     sdbapint:attributes.obj
 0001:0000aa0c       ??_C@_1BI@FKCCCAP@?$AAM?$AAO?$AAD?$AAU?$AAL?$AAE?$AA_?$AAT?$AAY?$AAP?$AAE?$AA?$AA@ 0040ba0c     sdbapint:attributes.obj
 0001:0000aa24       ??_C@_1BG@KPBMEPBH@?$AAF?$AAL?$AAA?$AAG?$AA_?$AAT?$AAA?$AAG?$AAI?$AAD?$AA?$AA@ 0040ba24     sdbapint:attributes.obj
 0001:0000aa3c       ??_C@_1BI@GABNHH@?$AAL?$AAA?$AAY?$AAE?$AAR?$AA_?$AAT?$AAA?$AAG?$AAI?$AAD?$AA?$AA@ 0040ba3c     sdbapint:attributes.obj
 0001:0000aa54       ??_C@_1BI@GOLJPODB@?$AAP?$AAA?$AAT?$AAC?$AAH?$AA_?$AAT?$AAA?$AAG?$AAI?$AAD?$AA?$AA@ 0040ba54     sdbapint:attributes.obj
 0001:0000aa6c       ??_C@_1BG@OAGNANOP@?$AAS?$AAH?$AAI?$AAM?$AA_?$AAT?$AAA?$AAG?$AAI?$AAD?$AA?$AA@ 0040ba6c     sdbapint:attributes.obj
 0001:0000aa84       ??_C@_1BC@JPKLBJEP@?$AAC?$AAH?$AAE?$AAC?$AAK?$AAS?$AAU?$AAM?$AA?$AA@ 0040ba84     sdbapint:attributes.obj
 0001:0000aa98       ??_C@_1O@LFMAFHMH@?$AAO?$AAF?$AAF?$AAS?$AAE?$AAT?$AA?$AA@ 0040ba98     sdbapint:attributes.obj
 0001:0000aaa8       ??_C@_19HJFLPAJK@?$AAS?$AAI?$AAZ?$AAE?$AA?$AA@ 0040baa8     sdbapint:attributes.obj
 0001:0000aab4       ??_C@_1CC@IILJJANH@?$AAC?$AAO?$AAM?$AAP?$AAI?$AAL?$AAE?$AAR?$AA_?$AAV?$AAE?$AAR?$AAS?$AAI?$AAO?$AAN?$AA?$AA@ 0040bab4     sdbapint:attributes.obj
 0001:0000aad8       ??_C@_1CE@COMLBFPL@?$AAL?$AAA?$AAY?$AAE?$AAR?$AA_?$AAD?$AAI?$AAS?$AAP?$AAL?$AAA?$AAY?$AAN?$AAA?$AAM?$AAE?$AA?$AA@ 0040bad8     sdbapint:attributes.obj
 0001:0000aafc       ??_C@_1CG@EHPFGAKO@?$AAS?$AA1?$AA6?$AAB?$AAI?$AAT?$AA_?$AAM?$AAO?$AAD?$AAU?$AAL?$AAE?$AA_?$AAN?$AAA?$AAM?$AAE?$AA?$AA@ 0040bafc     sdbapint:attributes.obj
 0001:0000ab24       ??_C@_1CG@NPJALPFJ@?$AAM?$AAS?$AAI?$AA_?$AAT?$AAR?$AAA?$AAN?$AAS?$AAF?$AAO?$AAR?$AAM?$AA_?$AAF?$AAI?$AAL?$AAE?$AA?$AA@ 0040bb24     sdbapint:attributes.obj
 0001:0000ab4c       ??_C@_1BI@JKIIJEJJ@?$AAD?$AAA?$AAT?$AAA?$AA_?$AAS?$AAT?$AAR?$AAI?$AAN?$AAG?$AA?$AA@ 0040bb4c     sdbapint:attributes.obj
 0001:0000ab64       ??_C@_1BK@GGGCDILO@?$AAS?$AAX?$AAS?$AA_?$AAM?$AAA?$AAN?$AAI?$AAF?$AAE?$AAS?$AAT?$AA?$AA@ 0040bb64     sdbapint:attributes.obj
 0001:0000ab80       ??_C@_1CA@OKCKHHKG@?$AAA?$AAP?$AAP?$AAH?$AAE?$AAL?$AAP?$AA_?$AAC?$AAO?$AAN?$AAT?$AAA?$AAC?$AAT?$AA?$AA@ 0040bb80     sdbapint:attributes.obj
 0001:0000aba0       ??_C@_1BM@OFJJCAO@?$AAA?$AAP?$AAP?$AAH?$AAE?$AAL?$AAP?$AA_?$AAT?$AAI?$AAT?$AAL?$AAE?$AA?$AA@ 0040bba0     sdbapint:attributes.obj
 0001:0000abbc       ??_C@_1BE@GPMIGAOG@?$AAL?$AAI?$AAN?$AAK?$AA_?$AAT?$AAE?$AAX?$AAT?$AA?$AA@ 0040bbbc     sdbapint:attributes.obj
 0001:0000abd0       ??_C@_1BC@MDBLBOGN@?$AAL?$AAI?$AAN?$AAK?$AA_?$AAU?$AAR?$AAL?$AA?$AA@ 0040bbd0     sdbapint:attributes.obj
 0001:0000abe4       ??_C@_1CA@DACEDMJK@?$AAP?$AAR?$AAO?$AAB?$AAL?$AAE?$AAM?$AA_?$AAD?$AAE?$AAT?$AAA?$AAI?$AAL?$AAS?$AA?$AA@ 0040bbe4     sdbapint:attributes.obj
 0001:0000ac04       ??_C@_1CG@EFPHNBGL@?$AAS?$AA1?$AA6?$AAB?$AAI?$AAT?$AA_?$AAD?$AAE?$AAS?$AAC?$AAR?$AAI?$AAP?$AAT?$AAI?$AAO?$AAN?$AA?$AA@ 0040bc04     sdbapint:attributes.obj
 0001:0000ac2c       ??_C@_1CA@BNBNAMEI@?$AAL?$AAE?$AAG?$AAA?$AAL?$AA_?$AAC?$AAO?$AAP?$AAY?$AAR?$AAI?$AAG?$AAH?$AAT?$AA?$AA@ 0040bc2c     sdbapint:attributes.obj
 0001:0000ac4c       ??_C@_1BM@GCBMBNBM@?$AAI?$AAN?$AAT?$AAE?$AAR?$AAN?$AAA?$AAL?$AA_?$AAN?$AAA?$AAM?$AAE?$AA?$AA@ 0040bc4c     sdbapint:attributes.obj
 0001:0000ac68       ??_C@_1CE@KKBADDAL@?$AAO?$AAR?$AAI?$AAG?$AAI?$AAN?$AAA?$AAL?$AA_?$AAF?$AAI?$AAL?$AAE?$AAN?$AAA?$AAM?$AAE?$AA?$AA@ 0040bc68     sdbapint:attributes.obj
 0001:0000ac8c       ??_C@_1BK@OCMKLJBI@?$AAF?$AAI?$AAL?$AAE?$AA_?$AAV?$AAE?$AAR?$AAS?$AAI?$AAO?$AAN?$AA?$AA@ 0040bc8c     sdbapint:attributes.obj
 0001:0000aca8       ??_C@_1CC@LHLPFFNI@?$AAF?$AAI?$AAL?$AAE?$AA_?$AAD?$AAE?$AAS?$AAC?$AAR?$AAI?$AAP?$AAT?$AAI?$AAO?$AAN?$AA?$AA@ 0040bca8     sdbapint:attributes.obj
 0001:0000accc       ??_C@_1CA@MADEMJPK@?$AAP?$AAR?$AAO?$AAD?$AAU?$AAC?$AAT?$AA_?$AAV?$AAE?$AAR?$AAS?$AAI?$AAO?$AAN?$AA?$AA@ 0040bccc     sdbapint:attributes.obj
 0001:0000acec       ??_C@_1BK@KOLEIOGI@?$AAP?$AAR?$AAO?$AAD?$AAU?$AAC?$AAT?$AA_?$AAN?$AAA?$AAM?$AAE?$AA?$AA@ 0040bcec     sdbapint:attributes.obj
 0001:0000ad08       ??_C@_1BM@JMLFNGFO@?$AAW?$AAI?$AAL?$AAD?$AAC?$AAA?$AAR?$AAD?$AA_?$AAN?$AAA?$AAM?$AAE?$AA?$AA@ 0040bd08     sdbapint:attributes.obj
 0001:0000ad24       ??_C@_1BK@KIDELAPD@?$AAC?$AAO?$AAM?$AAP?$AAA?$AAN?$AAY?$AA_?$AAN?$AAA?$AAM?$AAE?$AA?$AA@ 0040bd24     sdbapint:attributes.obj
 0001:0000ad40       ??_C@_1BI@OPCHDEMG@?$AAA?$AAC?$AAT?$AAI?$AAO?$AAN?$AA_?$AAT?$AAY?$AAP?$AAE?$AA?$AA@ 0040bd40     sdbapint:attributes.obj
 0001:0000ad58       ??_C@_1BK@HOGPOIGK@?$AAC?$AAO?$AAM?$AAM?$AAA?$AAN?$AAD?$AA_?$AAL?$AAI?$AAN?$AAE?$AA?$AA@ 0040bd58     sdbapint:attributes.obj
 0001:0000ad74       ??_C@_1BA@MGAIFOED@?$AAD?$AAL?$AAL?$AAF?$AAI?$AAL?$AAE?$AA?$AA@ 0040bd74     sdbapint:attributes.obj
 0001:0000ad84       ??_C@_1BC@BGMOHEGK@?$AAA?$AAP?$AAP?$AA_?$AAN?$AAA?$AAM?$AAE?$AA?$AA@ 0040bd84     sdbapint:attributes.obj
 0001:0000ad98       ??_C@_1O@OLODECGH@?$AAV?$AAE?$AAN?$AAD?$AAO?$AAR?$AA?$AA@ 0040bd98     sdbapint:attributes.obj
 0001:0000ada8       ??_C@_17JFHIPNKF@?$AAA?$AAP?$AAI?$AA?$AA@ 0040bda8     sdbapint:attributes.obj
 0001:0000adb0       ??_C@_1O@MEDHBBHD@?$AAM?$AAO?$AAD?$AAU?$AAL?$AAE?$AA?$AA@ 0040bdb0     sdbapint:attributes.obj
 0001:0000adc0       ??_C@_1BI@CHDKLJDA@?$AAD?$AAE?$AAS?$AAC?$AAR?$AAI?$AAP?$AAT?$AAI?$AAO?$AAN?$AA?$AA@ 0040bdc0     sdbapint:attributes.obj
 0001:0000add8       ??_C@_19GGDNNDFE@?$AAN?$AAA?$AAM?$AAE?$AA?$AA@ 0040bdd8     sdbapint:attributes.obj
 0001:0000ade4       ??_C@_1CE@FOHJBOIJ@?$AAM?$AAS?$AAI?$AA?5?$AAC?$AAU?$AAS?$AAT?$AAO?$AAM?$AA?5?$AAA?$AAC?$AAT?$AAI?$AAO?$AAN?$AA?$AA@ 0040bde4     sdbapint:attributes.obj
 0001:0000ae08       ??_C@_1BI@OEOHCOKE@?$AAM?$AAS?$AAI?$AA?5?$AAP?$AAA?$AAC?$AAK?$AAA?$AAG?$AAE?$AA?$AA@ 0040be08     sdbapint:attributes.obj
 0001:0000ae20       ??_C@_1CE@DBGKJHHN@?$AAM?$AAS?$AAI?$AA?5?$AAT?$AAR?$AAA?$AAN?$AAS?$AAF?$AAO?$AAR?$AAM?$AA?5?$AAR?$AAE?$AAF?$AA?$AA@ 0040be20     sdbapint:attributes.obj
 0001:0000ae44       ??_C@_1BM@HJFAKKFG@?$AAM?$AAS?$AAI?$AA?5?$AAT?$AAR?$AAA?$AAN?$AAS?$AAF?$AAO?$AAR?$AAM?$AA?$AA@ 0040be44     sdbapint:attributes.obj
 0001:0000ae60       ??_C@_1O@LGOHJNPM@?$AAA?$AAC?$AAT?$AAI?$AAO?$AAN?$AA?$AA@ 0040be60     sdbapint:attributes.obj
 0001:0000ae70       ??_C@_19NKKEIHJJ@?$AAD?$AAA?$AAT?$AAA?$AA?$AA@ 0040be70     sdbapint:attributes.obj
 0001:0000ae7c       ??_C@_19NHGGBNEB@?$AAL?$AAI?$AAN?$AAK?$AA?$AA@ 0040be7c     sdbapint:attributes.obj
 0001:0000ae88       ??_C@_1BA@NHKFAMDI@?$AAA?$AAP?$AAP?$AAH?$AAE?$AAL?$AAP?$AA?$AA@ 0040be88     sdbapint:attributes.obj
 0001:0000ae98       ??_C@_19GNFDFLLA@?$AAF?$AAI?$AAL?$AAE?$AA?$AA@ 0040be98     sdbapint:attributes.obj
 0001:0000aea4       ??_C@_1M@LEMDBLGE@?$AAL?$AAA?$AAY?$AAE?$AAR?$AA?$AA@ 0040bea4     sdbapint:attributes.obj
 0001:0000aeb0       ??_C@_1BC@IDPCCENN@?$AAF?$AAL?$AAA?$AAG?$AA_?$AAR?$AAE?$AAF?$AA?$AA@ 0040beb0     sdbapint:attributes.obj
 0001:0000aec4       ??_C@_1BE@NJOCILEH@?$AAP?$AAA?$AAT?$AAC?$AAH?$AA_?$AAR?$AAE?$AAF?$AA?$AA@ 0040bec4     sdbapint:attributes.obj
 0001:0000aed8       ??_C@_1BC@EEPEKDPC@?$AAS?$AAH?$AAI?$AAM?$AA_?$AAR?$AAE?$AAF?$AA?$AA@ 0040bed8     sdbapint:attributes.obj
 0001:0000aeec       ??_C@_1BM@HJBDADO@?$AAM?$AAA?$AAT?$AAC?$AAH?$AAI?$AAN?$AAG?$AA_?$AAF?$AAI?$AAL?$AAE?$AA?$AA@ 0040beec     sdbapint:attributes.obj
 0001:0000af08       ??_C@_17LHLHMOIK@?$AAE?$AAX?$AAE?$AA?$AA@ 0040bf08     sdbapint:attributes.obj
 0001:0000af10       ??_C@_17LIGJOFLA@?$AAA?$AAP?$AAP?$AA?$AA@ 0040bf10     sdbapint:attributes.obj
 0001:0000af18       ??_C@_19DDCEIOIB@?$AAF?$AAL?$AAA?$AAG?$AA?$AA@ 0040bf18     sdbapint:attributes.obj
 0001:0000af24       ??_C@_1M@MPCJPKCO@?$AAP?$AAA?$AAT?$AAC?$AAH?$AA?$AA@ 0040bf24     sdbapint:attributes.obj
 0001:0000af30       ??_C@_19PFAHKINO@?$AAS?$AAH?$AAI?$AAM?$AA?$AA@ 0040bf30     sdbapint:attributes.obj
 0001:0000af3c       ??_C@_1BE@DIAFCKMH@?$AAI?$AAN?$AAE?$AAX?$AAC?$AAL?$AAU?$AAD?$AAE?$AA?$AA@ 0040bf3c     sdbapint:attributes.obj
 0001:0000af50       ??_C@_1BA@GDKMNJE@?$AAL?$AAI?$AAB?$AAR?$AAA?$AAR?$AAY?$AA?$AA@ 0040bf50     sdbapint:attributes.obj
 0001:0000af60       ??_C@_1BC@GFBOIIBO@?$AAD?$AAA?$AAT?$AAA?$AAB?$AAA?$AAS?$AAE?$AA?$AA@ 0040bf60     sdbapint:attributes.obj
 0001:0000afb8       _g_szGuidFormat            0040bfb8     sdbapint:guid.obj
 0001:0000b034       ??_C@_1CA@FOECMPGO@?$AAV?$AAS?$AA_?$AAV?$AAE?$AAR?$AAS?$AAI?$AAO?$AAN?$AA_?$AAI?$AAN?$AAF?$AAO?$AA?$AA@ 0040c034     sdbapint:ntver.obj
 0001:0000b188       __load_config_used         0040c188     ntoswrk:loadcfg.obj
 0001:0000b220       ___safe_se_handler_table   0040c220     <linker-defined>
 0001:0000b236       _CcCopyReadExceptionFilter@8 0040c236 f   cache:copysup.obj
 0001:0000b266       _CcCanIWrite@16            0040c266 f   cache:copysup.obj
 0001:0000b40c       _CcPostDeferredWrites@0    0040c40c f   cache:copysup.obj
 0001:0000b4c4       _CcCopyWrite@20            0040c4c4 f   cache:copysup.obj
 0001:0000b76c       _CcFastCopyWrite@16        0040c76c f   cache:copysup.obj
 0001:0000b9a2       _CcDeferWrite@24           0040c9a2 f   cache:copysup.obj
 0001:0000ba56       _CcAllocateVacbLevel@4     0040ca56 f i cache:cachesub.obj
 0001:0000ba94       _CcDeallocateVacbLevel@8   0040ca94 f i cache:cachesub.obj
 0001:0000bad2       _CcSetReadAheadGranularity@8 0040cad2 f   cache:cachesub.obj
 0001:0000baec       _CcScheduleReadAhead@12    0040caec f   cache:cachesub.obj
 0001:0000bdac       @CcPerformReadAhead@4      0040cdac f   cache:cachesub.obj
 0001:0000c144       _CcFindBitmapRangeToDirty@16 0040d144 f   cache:cachesub.obj
 0001:0000c214       _CcFindBitmapRangeToClean@12 0040d214 f   cache:cachesub.obj
 0001:0000c25a       _CcSetDirtyPinnedData@8    0040d25a f   cache:cachesub.obj
 0001:0000c3d0       _CcSetValidData@8          0040d3d0 f   cache:cachesub.obj
 0001:0000c4a2       _CcGetFlushedValidData@8   0040d4a2 f   cache:cachesub.obj
 0001:0000c606       _CcRemapBcb@4              0040d606 f   cache:cachesub.obj
 0001:0000c652       _CcRepinBcb@4              0040d652 f   cache:cachesub.obj
 0001:0000c684       _CcFindBcb@16              0040d684 f   cache:cachesub.obj
 0001:0000c746       _CcAllocateInitializeBcb@16 0040d746 f   cache:cachesub.obj
 0001:0000c830       @CcDeallocateBcb@4         0040d830 f   cache:cachesub.obj
 0001:0000c852       _CcMapAndRead@24           0040d852 f   cache:cachesub.obj
 0001:0000c94c       _CcLogError@20             0040d94c f   cache:cachesub.obj
 0001:0000ca60       _CcUnmapInactiveViews@4    0040da60 f   cache:cachesub.obj
 0001:0000ca6a       @CcUnpinFileDataEx@12      0040da6a f   cache:cachesub.obj
 0001:0000cc56       _CcSetDirtyInMask@12       0040dc56 f   cache:cachesub.obj
 0001:0000cf76       _CcAcquireByteRangeForWrite@24 0040df76 f   cache:cachesub.obj
 0001:0000d802       _CcReleaseByteRangeFromWrite@20 0040e802 f   cache:cachesub.obj
 0001:0000d894       _CcUnpinRepinnedBcb@12     0040e894 f   cache:cachesub.obj
 0001:0000d956       _CcFreeActiveVacb@16       0040e956 f   cache:cachesub.obj
 0001:0000da4e       _CcMapAndCopy@32           0040ea4e f   cache:cachesub.obj
 0001:0000deec       _CcPinFileData@36          0040eeec f   cache:cachesub.obj
 0001:0000e39a       _CcFlushCache@16           0040f39a f   cache:cachesub.obj
 0001:0000e996       @CcWriteBehind@8           0040f996 f   cache:cachesub.obj
 0001:0000ed2e       _CcSetAdditionalCacheAttributes@12 0040fd2e f   cache:logsup.obj
 0001:0000ed7a       _CcSetPrivateWriteFile@4   0040fd7a f   cache:logsup.obj
 0001:0000eeae       _CcGetDirtyPages@16        0040feae f   cache:logsup.obj
 0001:0000f092       _CcIsThereDirtyData@4      00410092 f   cache:logsup.obj
 0001:0000f134       _CcGetLsnForFileObject@8   00410134 f   cache:logsup.obj
 0001:0000f20c       _KeInitializeSpinLock@4    0041020c f i cache:fssup.obj
 0001:0000f21e       _CcWaitForUninitializeCacheMap@4 0041021e f   cache:fssup.obj
 0001:0000f338       _CcCancelMmWaitForUninitializeCacheMap@4 00410338 f   cache:fssup.obj
 0001:0000f37a       _CcDeleteBcbs@4            0041037a f   cache:fssup.obj
 0001:0000f428       _CcUnmapAndPurge@4         00410428 f   cache:fssup.obj
 0001:0000f464       _CcDeleteMbcb@4            00410464 f   cache:fssup.obj
 0001:0000f5ba       _CcSetDirtyPageThreshold@8 004105ba f   cache:fssup.obj
 0001:0000f5ec       _CcGetFileObjectFromSectionPtrs@4 004105ec f   cache:fssup.obj
 0001:0000f620       _CcGetFileObjectFromBcb@4  00410620 f   cache:fssup.obj
 0001:0000f636       @CcDeleteSharedCacheMap@12 00410636 f   cache:fssup.obj
 0001:0000f7a0       _CcInitializeCacheMap@20   004107a0 f   cache:fssup.obj
 0001:0000fd44       _CcUninitializeCacheMap@12 00410d44 f   cache:fssup.obj
 0001:0000ff7c       _CcPurgeCacheSection@16    00410f7c f   cache:fssup.obj
 0001:00010118       _CcZeroEndOfLastPage@4     00411118 f   cache:fssup.obj
 0001:0001028e       _CcPurgeAndClearCacheSection@8 0041128e f   cache:fssup.obj
 0001:000103b4       _CcSetFileSizes@8          004113b4 f   cache:fssup.obj
 0001:000106a8       _CcMapDataForOverwrite@20  004116a8 f   cache:pinsup.obj
 0001:000107d2       _CcPrepareMdlWrite@20      004117d2 f   cache:mdlsup.obj
 0001:00010ad8       _CcMdlWriteComplete2@12    00411ad8 f   cache:mdlsup.obj
 0001:00010bfe       _CcMdlWriteAbort@8         00411bfe f   cache:mdlsup.obj
 0001:00010caa       _CcScheduleLazyWriteScan@4 00411caa f   cache:lazyrite.obj
 0001:00010d04       _CcWaitForCurrentLazyWriterActivity@0 00411d04 f   cache:lazyrite.obj
 0001:00010dda       _CcExceptionFilter@4       00411dda f   cache:lazyrite.obj
 0001:00010df4       @CcPostWorkQueue@8         00411df4 f   cache:lazyrite.obj
 0001:00010e62       _CcScanDpc@16              00411e62 f   cache:lazyrite.obj
 0001:00010eca       _CcLazyWriteScan@0         00411eca f   cache:lazyrite.obj
 0001:000112f8       _CcWorkerThread@4          004122f8 f   cache:lazyrite.obj
 0001:000114d0       _VacbLevelReference@12     004124d0 f i cache:vacbsup.obj
 0001:000114f8       _IsVacbLevelReferenced@12  004124f8 f i cache:vacbsup.obj
 0001:0001151a       _ReferenceVacbLevel@20     0041251a f i cache:vacbsup.obj
 0001:00011544       @CcFreeVirtualAddress@4    00412544 f   cache:vacbsup.obj
 0001:000115d8       _CcWaitOnActiveCount@4     004125d8 f   cache:vacbsup.obj
 0001:0001164c       _CcPrefillVacbLevelZone@20 0041264c f   cache:vacbsup.obj
 0001:000117e6       _CcDrainVacbLevelZone@0    004127e6 f   cache:vacbsup.obj
 0001:00011872       _CcGetBcbListHeadLargeOffset@16 00412872 f   cache:vacbsup.obj
 0001:000119b4       _CcCalculateVacbLevelLockCount@12 004129b4 f   cache:vacbsup.obj
 0001:00011a14       _CcGetVacbLargeOffset@12   00412a14 f   cache:vacbsup.obj
 0001:00011a98       _CcSetVacbLargeOffset@16   00412a98 f   cache:vacbsup.obj
 0001:00011c8a       _CcGetActiveVacb@16        00412c8a f   cache:vacbsup.obj
 0001:00011cdc       _CcSetActiveVacb@16        00412cdc f   cache:vacbsup.obj
 0001:00011e18       _SetVacb@16                00412e18 f i cache:vacbsup.obj
 0001:00011e5e       _CcGetVirtualAddressIfMapped@20 00412e5e f   cache:vacbsup.obj
 0001:00011f56       _CcReferenceFileOffset@12  00412f56 f   cache:vacbsup.obj
 0001:00011fce       _CcDereferenceFileOffset@12 00412fce f   cache:vacbsup.obj
 0001:0001203c       _CcExtendVacbArray@12      0041303c f   cache:vacbsup.obj
 0001:000124cc       @CcUnmapVacbArray@16       004134cc f   cache:vacbsup.obj
 0001:0001275c       _CcGetBcbListHead@16       0041375c f   cache:vacbsup.obj
 0001:000127f0       _CcAdjustVacbLevelLockCount@16 004137f0 f   cache:vacbsup.obj
 0001:000128b2       _CcGetVacbMiss@20          004138b2 f   cache:vacbsup.obj
 0001:00012ef0       _CcGetVirtualAddress@20    00413ef0 f   cache:vacbsup.obj
 0001:00013042       _KeLeaveGuardedRegion@0    00414042 f i config:hivehint.obj
 0001:00013066       @KeAcquireGuardedMutex@4   00414066 f i config:hivehint.obj
 0001:000130a2       @KeReleaseGuardedMutex@4   004140a2 f i config:hivehint.obj
 0001:000130f2       @KeInitializeGuardedMutex@4 004140f2 f i config:cmalloc.obj
 0001:0001310e       _KeEnterCriticalRegion@0   0041410e f i config:ntapi.obj
 0001:0001311e       _KeLeaveCriticalRegion@0   0041411e f i config:ntapi.obj
 0001:00013148       _CmpTryConvertKCBLockSharedToExclusive@4 00414148 f   config:cmsubs3.obj
 0001:000131ca       _CmpEnableLazyFlushDpcRoutine@16 004141ca f   config:cmworker.obj
 0001:000131da       _CmpLazyFlushDpcRoutine@16 004141da f   config:cmworker.obj
 0001:00013208       _CmpShutdownWorkers@0      00414208 f   config:cmworker.obj
 0001:00013218       _CmpDelayCloseDpcRoutine@16 00414218 f   config:cmdelay.obj
 0001:0001322c       _CmpDelayDerefKCBDpcRoutine@16 0041422c f   config:cmdelay.obj
 0001:00013240       _CmpDelayCloseWorker@4     00414240 f   config:cmdelay.obj
 0001:00013670       @ExAcquireFastMutex@4      00414670 f   ex:fmutexc.obj
 0001:000136a6       @ExReleaseFastMutex@4      004146a6 f   ex:fmutexc.obj
 0001:000136d4       @ExTryToAcquireFastMutex@4 004146d4 f   ex:fmutexc.obj
 0001:00013714       @ExAcquireFastMutexUnsafe@4 00414714 f   ex:fmutexc.obj
 0001:00013738       @ExEnterCriticalRegionAndAcquireFastMutexUnsafe@4 00414738 f   ex:fmutexc.obj
 0001:00013766       @ExReleaseFastMutexUnsafe@4 00414766 f   ex:fmutexc.obj
 0001:00013788       @ExReleaseFastMutexUnsafeAndLeaveCriticalRegion@4 00414788 f   ex:fmutexc.obj
 0001:000137ce       @ExfAcquireRundownProtection@4 004147ce f   ex:rundown.obj
 0001:000137f6       @ExAcquireRundownProtectionEx@8 004147f6 f   ex:rundown.obj
 0001:00013824       @ExfReleaseRundownProtection@4 00414824 f   ex:rundown.obj
 0001:00013860       @ExReleaseRundownProtectionEx@8 00414860 f   ex:rundown.obj
 0001:000138a6       @ExAcquireRundownProtectionCacheAwareEx@8 004148a6 f   ex:rundown.obj
 0001:000138d0       @ExReleaseRundownProtectionCacheAwareEx@8 004148d0 f   ex:rundown.obj
 0001:000138fa       @ExWaitForRundownProtectionReleaseCacheAware@4 004148fa f   ex:rundown.obj
 0001:0001398a       @ExReInitializeRundownProtectionCacheAware@4 0041498a f   ex:rundown.obj
 0001:000139b8       @ExRundownCompletedCacheAware@4 004149b8 f   ex:rundown.obj
 0001:000139e6       @ExAcquireRundownProtectionCacheAware@4 004149e6 f   ex:rundown.obj
 0001:00013a1c       @ExReleaseRundownProtectionCacheAware@4 00414a1c f   ex:rundown.obj
 0001:00013a50       _ExpAllocateExclusiveWaiterEvent@8 00414a50 f   ex:resource.obj
 0001:00013ac6       _ExpAllocateSharedWaiterSemaphore@8 00414ac6 f   ex:resource.obj
 0001:00013b36       _ExInitializeResourceLite@4 00414b36 f   ex:resource.obj
 0001:00013ba2       _ExReinitializeResourceLite@4 00414ba2 f   ex:resource.obj
 0001:00013c22       _ExDisableResourceBoostLite@4 00414c22 f   ex:resource.obj
 0001:00013c50       _ExTryToAcquireResourceExclusiveLite@4 00414c50 f   ex:resource.obj
 0001:00013cb4       @ExReleaseResourceLite@4   00414cb4 f   ex:resource.obj
 0001:00013de2       @ExReleaseResourceAndLeaveCriticalRegion@4 00414de2 f   ex:resource.obj
 0001:00013e10       _ExReleaseResourceForThreadLite@8 00414e10 f   ex:resource.obj
 0001:00013f54       _ExConvertExclusiveToSharedLite@4 00414f54 f   ex:resource.obj
 0001:00013fae       _ExDeleteResourceLite@4    00414fae f   ex:resource.obj
 0001:00014012       _ExGetExclusiveWaiterCount@4 00415012 f   ex:resource.obj
 0001:00014026       _ExGetSharedWaiterCount@4  00415026 f   ex:resource.obj
 0001:0001403a       _ExIsResourceAcquiredExclusiveLite@4 0041503a f   ex:resource.obj
 0001:00014060       _ExIsResourceAcquiredSharedLite@4 00415060 f   ex:resource.obj
 0001:00014106       @ExpBoostOwnerThread@8     00415106 f   ex:resource.obj
 0001:0001415c       @ExpWaitForResource@8      0041515c f   ex:resource.obj
 0001:00014244       _ExpExpandResourceOwnerTable@8 00415244 f   ex:resource.obj
 0001:000143f0       _ExpCheckForResource@8     004153f0 f   ex:resource.obj
 0001:00014488       _ExAcquireResourceExclusiveLite@8 00415488 f   ex:resource.obj
 0001:00014526       _ExEnterCriticalRegionAndAcquireResourceExclusive@4 00415526 f   ex:resource.obj
 0001:00014552       @ExpFindEmptyEntry@8       00415552 f   ex:resource.obj
 0001:000145a2       @ExpFindCurrentThread@12   004155a2 f   ex:resource.obj
 0001:00014642       _ExAcquireResourceSharedLite@8 00415642 f   ex:resource.obj
 0001:00014714       _ExEnterCriticalRegionAndAcquireResourceShared@4 00415714 f   ex:resource.obj
 0001:00014740       _ExAcquireSharedStarveExclusive@8 00415740 f   ex:resource.obj
 0001:0001480a       _ExAcquireSharedWaitForExclusive@8 0041580a f   ex:resource.obj
 0001:00014936       _ExEnterCriticalRegionAndAcquireSharedWaitForExclusive@4 00415936 f   ex:resource.obj
 0001:00014962       _ExSetResourceOwnerPointer@8 00415962 f   ex:resource.obj
 0001:000149f2       @ExfWakePushLock@8         004159f2 f   ex:pushlock.obj
 0001:00014ab4       @ExfTryToWakePushLock@4    00415ab4 f   ex:pushlock.obj
 0001:00014ae0       @ExpOptimizePushLockList@8 00415ae0 f   ex:pushlock.obj
 0001:00014b30       @ExfAcquirePushLockExclusive@4 00415b30 f   ex:pushlock.obj
 0001:00014c54       @ExfAcquirePushLockShared@4 00415c54 f   ex:pushlock.obj
 0001:00014d7e       @ExfReleasePushLockShared@4 00415d7e f   ex:pushlock.obj
 0001:00014e02       @ExfReleasePushLockExclusive@4 00415e02 f   ex:pushlock.obj
 0001:00014e3e       @ExfReleasePushLock@4      00415e3e f   ex:pushlock.obj
 0001:00014ec8       @ExBlockPushLock@8         00415ec8 f   ex:pushlock.obj
 0001:00014ef2       @ExTimedWaitForUnblockPushLock@12 00415ef2 f   ex:pushlock.obj
 0001:00014f72       _ExAllocateCacheAwarePushLock@0 00415f72 f   ex:pushlock.obj
 0001:00015068       _ExFreeCacheAwarePushLock@4 00416068 f   ex:pushlock.obj
 0001:000150bc       @ExWaitForUnblockPushLock@8 004160bc f   ex:pushlock.obj
 0001:000150ca       @ExfUnblockPushLock@8      004160ca f   ex:pushlock.obj
 0001:0001514e       _ExAcquireCacheAwarePushLockExclusive@4 0041614e f   ex:pushlock.obj
 0001:000151dc       _ExReleaseCacheAwarePushLockExclusive@4 004161dc f   ex:pushlock.obj
 0001:00015224       _ExAllocateFromNPagedLookasideList@4 00416224 f i ex:lookasid.obj
 0001:00015224       _ExAllocateFromPagedLookasideList@4 00416224 f i ex:pool.obj
 0001:00015252       _ExOkayToLockRoutine@4     00416252 f   ex:pool.obj
 0001:00015268       _ExSetPoolFlags@4          00416268 f   ex:pool.obj
 0001:00015280       _ExpRemovePoolTrackerExpansion@12 00416280 f   ex:pool.obj
 0001:00015366       _ExpFindAndRemoveTagBigPages@12 00416366 f   ex:pool.obj
 0001:000154bc       _ExQueryPoolBlockSize@8    004164bc f   ex:pool.obj
 0001:00015552       _ExQueryPoolUsage@32       00416552 f   ex:pool.obj
 0001:00015622       _ExReturnPoolQuota@4       00416622 f   ex:pool.obj
 0001:000156b4       _ExDeletePoolTagTable@4    004166b4 f   ex:pool.obj
 0001:000156f6       _ExpGetPoolTagInfoTarget@16 004166f6 f   ex:pool.obj
 0001:000157c0       _ExGetBigPoolInfo@12       004167c0 f   ex:pool.obj
 0001:000159a2       _ExpRemovePoolTracker@12   004169a2 f   ex:pool.obj
 0001:00015a7a       _ExpInsertPoolTrackerExpansion@12 00416a7a f   ex:pool.obj
 0001:00015d0c       _ExpInsertPoolTracker@12   00416d0c f   ex:pool.obj
 0001:00015e52       _ExpExpandBigPageTable@4   00416e52 f   ex:pool.obj
 0001:00015f7e       _ExpAddTagForBigPages@16   00416f7e f   ex:pool.obj
 0001:00016186       _ExAllocatePool@8          00417186 f   ex:pool.obj
 0001:000161a2       _ExAllocatePoolWithTagPriority@16 004171a2 f   ex:pool.obj
 0001:000162ea       _ExAllocatePoolWithQuotaTag@12 004172ea f   ex:pool.obj
 0001:000163ee       _ExInsertPoolTag@16        004173ee f   ex:pool.obj
 0001:00016440       _ExAllocatePoolWithQuota@8 00417440 f   ex:pool.obj
 0001:0001645c       _ExRegisterCallback@12     0041745c f   ex:callback.obj
 0001:00016502       _ExUnregisterCallback@4    00417502 f   ex:callback.obj
 0001:00016584       _ExNotifyCallback@12       00417584 f   ex:callback.obj
 0001:00016636       _ExpScanGeneralLookasideList@8 00417636 f   ex:lookasid.obj
 0001:000166ee       _ExpScanSystemLookasideList@0 004176ee f   ex:lookasid.obj
 0001:00016b10       _ExInitializeNPagedLookasideList@28 00417b10 f   ex:lookasid.obj
 0001:00016b94       _MatchAll@12               00417b94 f   ntosrtl:avltable.obj
 0001:00016b94       _xKdMapPhysicalMemory64@12 00417b94 f   ntoswrk:HALFNC.obj
 0001:00016b94       _ExpDummyAllocate@12       00417b94 f   ex:lookasid.obj
 0001:00016b9e       _ExAdjustLookasideDepth@0  00417b9e f   ex:lookasid.obj
 0001:00016bec       _ExDeleteNPagedLookasideList@4 00417bec f   ex:lookasid.obj
 0001:00016c3a       _ExDeletePagedLookasideList@4 00417c3a f   ex:lookasid.obj
 0001:00016c88       _ExDisableHandleTracing@4  00417c88 f   ex:handle.obj
 0001:00016d18       _ExInitializeZone@16       00417d18 f   ex:zone.obj
 0001:00016d7c       _ExExtendZone@12           00417d7c f   ex:zone.obj
 0001:00016dde       _ExInterlockedExtendZone@16 00417dde f   ex:zone.obj
 0001:00016e16       _ExpGetSystemBasicInformation@4 00417e16 f   ex:sysinfo.obj
 0001:00016ea4       _ExpGetSystemProcessorInformation@4 00417ea4 f   ex:sysinfo.obj
 0001:00016f0c       _ExUnlockUserBuffer@4      00417f0c f   ex:sysinfo.obj
 0001:00016f2a       _ExpCopyThreadInfo@12      00417f2a f   ex:sysinfo.obj
 0001:00016ff2       _ExpGetStackTraceInformation@12 00417ff2 f   ex:sysinfo.obj
 0001:00017102       _ExIsProcessorFeaturePresent@4 00418102 f   ex:sysinfo.obj
 0001:00017120       _ExGetCurrentProcessorCpuUsage@4 00418120 f   ex:sysinfo.obj
 0001:00017160       _ExGetCurrentProcessorCounts@12 00418160 f   ex:sysinfo.obj
 0001:0001719a       _ExpGetProcessInformation@20 0041819a f   ex:sysinfo.obj
 0001:00017556       _ExpGetLookasideInformation@12 00418556 f   ex:sysinfo.obj
 0001:00017776       _ExQueueWorkItem@8         00418776 f   ex:worker.obj
 0001:000177f0       _ExpCheckForWorker@8       004187f0 f   ex:worker.obj
 0001:0001786a       _ExpWorkerThread@4         0041886a f   ex:worker.obj
 0001:00017a12       __purecall                 00418a12 f   ex:harderr.obj
 0001:00017a22       _ExAllocateLocallyUniqueId@4 00418a22 f i ex:luid.obj
 0001:00017a80       _ExpTimerApcRoutine@20     00418a80 f   ex:timer.obj
 0001:00017b1a       _ExpTimerDpcRoutine@16     00418b1a f   ex:timer.obj
 0001:00017b76       _ExpDeleteTimer@4          00418b76 f   ex:timer.obj
 0001:00017bd8       _ExTimerRundown@0          00418bd8 f   ex:timer.obj
 0001:00017cd2       _NtCancelTimer@8           00418cd2 f   ex:timer.obj
 0001:00017e62       _NtSetTimer@28             00418e62 f   ex:timer.obj
 0001:000180f8       _ExpDeleteMutant@4         004190f8 f   ex:mutant.obj
 0001:00018112       _FsRtlCompareNodeAndKey@16 00419112 f i fsrtl:Tunnel.obj
 0001:00018162       _FsRtlFreeTunnelNode@8     00419162 f i fsrtl:Tunnel.obj
 0001:000181a4       _FsRtlEmptyFreePoolList@4  004191a4 f i fsrtl:Tunnel.obj
 0001:000181d2       _FsRtlRemoveNodeFromTunnel@16 004191d2 f i fsrtl:Tunnel.obj
 0001:0001822c       _FsRtlMdlReadCompleteDev@12 0041922c f   fsrtl:FastIo.obj
 0001:00018246       _FsRtlRegisterFileSystemFilterCallbacks@8 00419246 f   fsrtl:FastIo.obj
 0001:000182a0       _FsRtlAcquireFileForModWriteEx@12 004192a0 f   fsrtl:FastIo.obj
 0001:0001854c       _FsRtlReleaseFileForModWrite@8 0041954c f   fsrtl:FastIo.obj
 0001:000186e6       _FsRtlIncrementCcFastReadNoWait@0 004196e6 f   fsrtl:FastIo.obj
 0001:000186f8       _FsRtlIncrementCcFastReadResourceMiss@0 004196f8 f   fsrtl:FastIo.obj
 0001:00018704       _FsRtlMdlReadComplete@8    00419704 f   fsrtl:FastIo.obj
 0001:0001876c       _ExFreeToPagedLookasideList@8 0041976c f i fsrtl:Tunnel.obj
 0001:0001876c       _ExFreeToNPagedLookasideList@8 0041976c f i fsrtl:LargeMcb.obj
 0001:0001879c       _FsRtlInitializeBaseMcb@8  0041979c f   fsrtl:LargeMcb.obj
 0001:000187e2       _FsRtlInitializeLargeMcb@8 004197e2 f   fsrtl:LargeMcb.obj
 0001:00018858       _FsRtlUninitializeBaseMcb@4 00419858 f   fsrtl:LargeMcb.obj
 0001:0001888c       _FsRtlUninitializeLargeMcb@4 0041988c f   fsrtl:LargeMcb.obj
 0001:000188ba       _FsRtlResetLargeMcb@8      004198ba f   fsrtl:LargeMcb.obj
 0001:0001895a       _FsRtlLookupLastBaseMcbEntry@12 0041995a f   fsrtl:LargeMcb.obj
 0001:000189c4       _FsRtlLookupLastLargeMcbEntry@12 004199c4 f   fsrtl:LargeMcb.obj
 0001:00018a80       _FsRtlLookupLastBaseMcbEntryAndIndex@16 00419a80 f   fsrtl:LargeMcb.obj
 0001:00018b06       _FsRtlLookupLastLargeMcbEntryAndIndex@16 00419b06 f   fsrtl:LargeMcb.obj
 0001:00018bc6       _FsRtlNumberOfRunsInLargeMcb@4 00419bc6 f   fsrtl:LargeMcb.obj
 0001:00018c56       _FsRtlGetNextBaseMcbEntry@20 00419c56 f   fsrtl:LargeMcb.obj
 0001:00018cd4       _FsRtlGetNextLargeMcbEntry@20 00419cd4 f   fsrtl:LargeMcb.obj
 0001:00018d78       _FsRtlFindLargeIndex@12    00419d78 f   fsrtl:LargeMcb.obj
 0001:00018dde       _FsRtlAddLargeEntry@12     00419dde f   fsrtl:LargeMcb.obj
 0001:00018ea0       _FsRtlRemoveLargeEntry@12  00419ea0 f   fsrtl:LargeMcb.obj
 0001:00018ee4       _FsRtlLookupLastMcbEntry@12 00419ee4 f   fsrtl:LargeMcb.obj
 0001:00018f20       _FsRtlNumberOfRunsInMcb@4  00419f20 f   fsrtl:LargeMcb.obj
 0001:00018f2e       _FsRtlGetNextMcbEntry@20   00419f2e f   fsrtl:LargeMcb.obj
 0001:00018f78       _FsRtlTruncateBaseMcb@12   00419f78 f   fsrtl:LargeMcb.obj
 0001:0001908e       _FsRtlTruncateLargeMcb@12  0041a08e f   fsrtl:LargeMcb.obj
 0001:00019128       _FsRtlAddBaseMcbEntry@28   0041a128 f   fsrtl:LargeMcb.obj
 0001:00019584       _FsRtlAddLargeMcbEntry@28  0041a584 f   fsrtl:LargeMcb.obj
 0001:0001964c       _FsRtlRemoveBaseMcbEntry@20 0041a64c f   fsrtl:LargeMcb.obj
 0001:000199ee       _FsRtlRemoveLargeMcbEntry@20 0041a9ee f   fsrtl:LargeMcb.obj
 0001:00019aa4       _FsRtlLookupBaseMcbEntry@32 0041aaa4 f   fsrtl:LargeMcb.obj
 0001:00019b66       _FsRtlLookupLargeMcbEntry@32 0041ab66 f   fsrtl:LargeMcb.obj
 0001:00019c32       _FsRtlSplitBaseMcb@20      0041ac32 f   fsrtl:LargeMcb.obj
 0001:00019d5c       _FsRtlSplitLargeMcb@20     0041ad5c f   fsrtl:LargeMcb.obj
 0001:00019e1e       _FsRtlTruncateMcb@8        0041ae1e f   fsrtl:LargeMcb.obj
 0001:00019e38       _FsRtlAddMcbEntry@16       0041ae38 f   fsrtl:LargeMcb.obj
 0001:00019e5a       _FsRtlRemoveMcbEntry@12    0041ae5a f   fsrtl:LargeMcb.obj
 0001:00019e78       _FsRtlLookupMcbEntry@20    0041ae78 f   fsrtl:LargeMcb.obj
 0001:00019ed4       _FsRtlFreeSharedLock@4     0041aed4 f i fsrtl:FileLock.obj
 0001:00019eee       _FsRtlFreeExclusiveLock@4  0041aeee f i fsrtl:FileLock.obj
 0001:00019f08       _FsRtlFreeWaitingLock@4    0041af08 f i fsrtl:FileLock.obj
 0001:00019f22       _FsRtlFreeLockTreeNode@4   0041af22 f i fsrtl:FileLock.obj
 0001:00019f3c       _FsRtlFreeLockInfo@4       0041af3c f i fsrtl:FileLock.obj
 0001:00019f56       _FsRtlCompleteLockIrpReal@24 0041af56 f i fsrtl:FileLock.obj
 0001:00019fa2       _FsRtlInitializeFileLock@12 0041afa2 f   fsrtl:FileLock.obj
 0001:00019fc4       _FsRtlPrivateInitializeFileLock@8 0041afc4 f   fsrtl:FileLock.obj
 0001:0001a0ce       _FsRtlUninitializeFileLock@4 0041b0ce f   fsrtl:FileLock.obj
 0001:0001a226       _FsRtlAllocateFileLock@8   0041b226 f   fsrtl:FileLock.obj
 0001:0001a250       _FsRtlFreeFileLock@4       0041b250 f   fsrtl:FileLock.obj
 0001:0001a272       _FsRtlFindFirstOverlappingSharedNode@20 0041b272 f   fsrtl:FileLock.obj
 0001:0001a368       _FsRtlFindFirstOverlappingExclusiveNode@20 0041b368 f   fsrtl:FileLock.obj
 0001:0001a464       _FsRtlFindFirstOverlapInNode@12 0041b464 f   fsrtl:FileLock.obj
 0001:0001a4e4       _FsRtlGetNextFileLock@8    0041b4e4 f   fsrtl:FileLock.obj
 0001:0001a70e       _FsRtlCheckNoSharedConflict@12 0041b70e f   fsrtl:FileLock.obj
 0001:0001a770       _FsRtlCheckNoExclusiveConflict@24 0041b770 f   fsrtl:FileLock.obj
 0001:0001a800       _FsRtlFastCheckLockForRead@24 0041b800 f   fsrtl:FileLock.obj
 0001:0001a8d6       _FsRtlFastCheckLockForWrite@24 0041b8d6 f   fsrtl:FileLock.obj
 0001:0001a9ce       _FsRtlSplitLocks@16        0041b9ce f   fsrtl:FileLock.obj
 0001:0001abae       _FsRtlPrivateInsertSharedLock@8 0041bbae f   fsrtl:FileLock.obj
 0001:0001ad84       _FsRtlPrivateInsertExclusiveLock@8 0041bd84 f   fsrtl:FileLock.obj
 0001:0001adee       _FsRtlPrivateCheckForExclusiveLockAccess@8 0041bdee f   fsrtl:FileLock.obj
 0001:0001aea8       _FsRtlPrivateCheckForSharedLockAccess@8 0041bea8 f   fsrtl:FileLock.obj
 0001:0001af40       _FsRtlPrivateResetLowestLockOffset@4 0041bf40 f   fsrtl:FileLock.obj
 0001:0001afb4       _FsRtlPrivateCancelFileLockIrp@8 0041bfb4 f   fsrtl:FileLock.obj
 0001:0001b08a       _FsRtlCheckLockForReadAccess@8 0041c08a f   fsrtl:FileLock.obj
 0001:0001b108       _FsRtlCheckLockForWriteAccess@8 0041c108 f   fsrtl:FileLock.obj
 0001:0001b18c       _FsRtlFastUnlockSingleShared@36 0041c18c f   fsrtl:FileLock.obj
 0001:0001b34c       _FsRtlFastUnlockSingleExclusive@36 0041c34c f   fsrtl:FileLock.obj
 0001:0001b49e       _FsRtlPrivateInsertLock@12 0041c49e f   fsrtl:FileLock.obj
 0001:0001b538       _FsRtlPrivateRemoveLock@12 0041c538 f   fsrtl:FileLock.obj
 0001:0001b572       _FsRtlFastUnlockSingle@32  0041c572 f   fsrtl:FileLock.obj
 0001:0001b5d0       _FsRtlPrivateLock@48       0041c5d0 f   fsrtl:FileLock.obj
 0001:0001b7ea       _FsRtlPrivateCheckWaitingLocks@12 0041c7ea f   fsrtl:FileLock.obj
 0001:0001b95a       _FsRtlPrivateFastUnlockAll@24 0041c95a f   fsrtl:FileLock.obj
 0001:0001bc98       _FsRtlFastUnlockAll@16     0041cc98 f   fsrtl:FileLock.obj
 0001:0001bcba       _FsRtlFastUnlockAllByKey@20 0041ccba f   fsrtl:FileLock.obj
 0001:0001bcdc       _FsRtlProcessFileLock@12   0041ccdc f   fsrtl:FileLock.obj
 0001:0001bdec       _FsRtlIsNtstatusExpected@4 0041cdec f   fsrtl:Filter.obj
 0001:0001be1e       _FsRtlAllocatePool@8       0041ce1e f   fsrtl:Filter.obj
 0001:0001be48       _FsRtlAllocatePoolWithQuota@8 0041ce48 f   fsrtl:Filter.obj
 0001:0001be72       _FsRtlAllocatePoolWithTag@12 0041ce72 f   fsrtl:Filter.obj
 0001:0001be9a       _FsRtlAllocatePoolWithQuotaTag@12 0041ce9a f   fsrtl:Filter.obj
 0001:0001bec2       _FsRtlIsTotalDeviceFailure@4 0041cec2 f   fsrtl:Filter.obj
 0001:0001beec       _FsRtlNormalizeNtstatus@8  0041ceec f   fsrtl:Filter.obj
 0001:0001bf0a       _FsRtlUninitializeOplock@4 0041cf0a f   fsrtl:Oplock.obj
 0001:0001c08c       _FsRtlRemoveAndCompleteIrp@4 0041d08c f   fsrtl:Oplock.obj
 0001:0001c0f2       _FsRtlCancelOplockIIIrp@8  0041d0f2 f   fsrtl:Oplock.obj
 0001:0001c188       _FsRtlRemoveAndCompleteWaitIrp@4 0041d188 f   fsrtl:Oplock.obj
 0001:0001c1e8       _FsRtlRequestOplockII@12   0041d1e8 f   fsrtl:Oplock.obj
 0001:0001c338       _FsRtlAcknowledgeOplockBreak@16 0041d338 f   fsrtl:Oplock.obj
 0001:0001c50c       _FsRtlOplockCleanup@8      0041d50c f   fsrtl:Oplock.obj
 0001:0001c63a       _FsRtlCancelWaitIrp@8      0041d63a f   fsrtl:Oplock.obj
 0001:0001c6b8       _FsRtlCancelExclusiveIrp@8 0041d6b8 f   fsrtl:Oplock.obj
 0001:0001c750       _FsRtlRequestExclusiveOplock@16 0041d750 f   fsrtl:Oplock.obj
 0001:0001c8c2       _FsRtlWaitOnIrp@24         0041d8c2 f   fsrtl:Oplock.obj
 0001:0001ca72       _FsRtlOplockBreakToII@24   0041da72 f   fsrtl:Oplock.obj
 0001:0001cc0a       _FsRtlOplockBreakToNone@24 0041dc0a f   fsrtl:Oplock.obj
 0001:0001cdb0       _FsRtlCheckOplock@20       0041ddb0 f   fsrtl:Oplock.obj
 0001:0001cf1a       _FsFilterInit@0            0041df1a f   fsrtl:FsFilter.obj
 0001:0001cfb4       _FsFilterAllocateCompletionStack@12 0041dfb4 f   fsrtl:FsFilter.obj
 0001:0001d054       _FsFilterFreeCompletionStack@4 0041e054 f   fsrtl:FsFilter.obj
 0001:0001d0b2       _FsFilterCtrlInit@24       0041e0b2 f   fsrtl:FsFilter.obj
 0001:0001d136       _FsFilterCtrlFree@4        0041e136 f   fsrtl:FsFilter.obj
 0001:0001d152       _FsFilterGetCallbacks@16   0041e152 f   fsrtl:FsFilter.obj
 0001:0001d242       _FsFilterPerformCallbacks@16 0041e242 f   fsrtl:FsFilter.obj
 0001:0001d38c       _FsFilterPerformCompletionCallbacks@8 0041e38c f   fsrtl:FsFilter.obj
 0001:0001d3ce       _FsRtlCreateSectionForDataScan@40 0041e3ce f   fsrtl:FsFilter.obj
 0001:0001d580       _FsRtlInsertPerStreamContext@8 0041e580 f   fsrtl:FiltrCtx.obj
 0001:0001d5c6       _FsRtlLookupPerStreamContextInternal@12 0041e5c6 f   fsrtl:FiltrCtx.obj
 0001:0001d63c       _FsRtlRemovePerStreamContext@12 0041e63c f   fsrtl:FiltrCtx.obj
 0001:0001d6ce       _FsRtlInsertPerFileObjectContext@8 0041e6ce f   fsrtl:FiltrCtx.obj
 0001:0001d796       _FsRtlLookupPerFileObjectContext@12 0041e796 f   fsrtl:FiltrCtx.obj
 0001:0001d822       _FsRtlRemovePerFileObjectContext@12 0041e822 f   fsrtl:FiltrCtx.obj
 0001:0001d8c0       _FsRtlIsPagingFile@4       0041e8c0 f   fsrtl:FiltrCtx.obj
 0001:0001d8ce       _FsRtlCancelNotify@8       0041e8ce f   fsrtl:Notify.obj
 0001:0001dba2       _FsRtlNotifySetCancelRoutine@8 0041eba2 f   fsrtl:Notify.obj
 0001:0001dc1c       _FsRtlStackOverflowRead@4  0041ec1c f   fsrtl:StackOvf.obj
 0001:0001dc72       _FsRtlWorkerThread@4       0041ec72 f   fsrtl:StackOvf.obj
 0001:0001dcce       _FsRtlpPostStackOverflow@16 0041ecce f   fsrtl:StackOvf.obj
 0001:0001dd44       _FsRtlPostStackOverflow@12 0041ed44 f   fsrtl:StackOvf.obj
 0001:0001dd60       _FsRtlPostPagingFileStackOverflow@12 0041ed60 f   fsrtl:StackOvf.obj
 0001:0001dd7c       @HalExamineMBR@16          0041ed7c f   fstub:drivesup.obj
 0001:0001de66       @xHalGetPartialGeometry@12 0041ee66 f   fstub:drivesup.obj
 0001:0001dfc0       _HalpDeleteMountLetter@4   0041efc0 f   fstub:drivesup.obj
 0001:0001e134       _KeEnterGuardedRegion@0    0041f134 f i init:initos.obj
 0001:0001e144       _KeAreApcsDisabled@0       0041f144 f i init:initos.obj
 0001:0001e158       @KeTryToAcquireGuardedMutex@4 0041f158 f i init:initos.obj
 0001:0001e1aa       _IoAcquireCancelSpinLock@4 0041f1aa f   iomgr:iosubs.obj
 0001:0001e1c4       _IoAcquireVpbSpinLock@4    0041f1c4 f   iomgr:iosubs.obj
 0001:0001e1de       _IoAllocateAdapterChannel@20 0041f1de f   iomgr:iosubs.obj
 0001:0001e210       _IoAllocateDriverObjectExtension@16 0041f210 f   iomgr:iosubs.obj
 0001:0001e2c8       _IopAllocateErrorLogEntry@12 0041f2c8 f   iomgr:iosubs.obj
 0001:0001e36a       _IoFreeErrorLogEntry@4     0041f36a f   iomgr:iosubs.obj
 0001:0001e3ae       _IoAllocateIrp@8           0041f3ae f   iomgr:iosubs.obj
 0001:0001e3be       _IopAllocateIrpPrivate@8   0041f3be f   iomgr:iosubs.obj
 0001:0001e570       _IoAllocateMdl@20          0041f570 f   iomgr:iosubs.obj
 0001:0001e680       _IoBuildPartialMdl@16      0041f680 f   iomgr:iosubs.obj
 0001:0001e73a       @IofCallDriver@8           0041f73a f   iomgr:iosubs.obj
 0001:0001e786       @IofCallDriverSpecifyReturn@12 0041f786 f   iomgr:iosubs.obj
 0001:0001e7d0       @IofCompleteRequest@8      0041f7d0 f   iomgr:iosubs.obj
 0001:0001e7dc       _IopInsertRemoveDevice@12  0041f7dc f   iomgr:iosubs.obj
 0001:0001e82c       _IopRemoveTimerFromTimerList@4 0041f82c f   iomgr:iosubs.obj
 0001:0001e870       _IoDetachDevice@4          0041f870 f   iomgr:iosubs.obj
 0001:0001e8d8       _IoFreeController@4        0041f8d8 f   iomgr:iosubs.obj
 0001:0001e90c       _IoFreeIrp@4               0041f90c f   iomgr:iosubs.obj
 0001:0001e91c       _IopFreeIrp@4              0041f91c f   iomgr:iosubs.obj
 0001:0001ea10       _IoFreeMdl@4               0041fa10 f   iomgr:iosubs.obj
 0001:0001ea86       _IoGetAttachedDevice@4     0041fa86 f   iomgr:iosubs.obj
 0001:0001eaa0       _IoGetAttachedDeviceReference@4 0041faa0 f   iomgr:iosubs.obj
 0001:0001eada       _IoGetBaseFileSystemDeviceObject@4 0041fada f   iomgr:iosubs.obj
 0001:0001eb12       _IoGetCurrentProcess@0     0041fb12 f   iomgr:iosubs.obj
 0001:0001eb12       _PsGetCurrentProcess@0     0041fb12 f   ps:pshelper.obj
 0001:0001eb22       _IoGetDeviceToVerify@4     0041fb22 f   iomgr:iosubs.obj
 0001:0001eb38       _IoGetDriverObjectExtension@8 0041fb38 f   iomgr:iosubs.obj
 0001:0001eb7e       _IoGetStackLimits@8        0041fb7e f   iomgr:iosubs.obj
 0001:0001ebe4       _IoGetRelatedDeviceObject@4 0041fbe4 f   iomgr:iosubs.obj
 0001:0001ec52       _IoGetRequestorProcess@4   0041fc52 f   iomgr:iosubs.obj
 0001:0001ec82       _IoGetTopLevelIrp@0        0041fc82 f   iomgr:iosubs.obj
 0001:0001ec94       _IoInitializeIrp@12        0041fc94 f   iomgr:iosubs.obj
 0001:0001ed10       _IoReuseIrp@8              0041fd10 f   iomgr:iosubs.obj
 0001:0001ed9e       _IoIsOperationSynchronous@4 0041fd9e f   iomgr:iosubs.obj
 0001:0001edd0       _PsIsSystemThread@4        0041fdd0 f   ps:pshelper.obj
 0001:0001edd0       _IoIsSystemThread@4        0041fdd0 f   iomgr:iosubs.obj
 0001:0001edea       _IoMakeAssociatedIrp@8     0041fdea f   iomgr:iosubs.obj
 0001:0001ef4c       _IoPageRead@20             0041ff4c f   iomgr:iosubs.obj
 0001:0001f060       _IoQueueThreadIrp@4        00420060 f   iomgr:iosubs.obj
 0001:0001f0a4       _IoRaiseHardError@12       004200a4 f   iomgr:iosubs.obj
 0001:0001f212       _IoRaiseInformationalHardError@12 00420212 f   iomgr:iosubs.obj
 0001:0001f47c       _IoReleaseCancelSpinLock@4 0042047c f   iomgr:iosubs.obj
 0001:0001f494       _IoReleaseVpbSpinLock@4    00420494 f   iomgr:iosubs.obj
 0001:0001f4ac       _IoSetDeviceToVerify@8     004204ac f   iomgr:iosubs.obj
 0001:0001f4c4       _IoSetHardErrorOrVerifyDevice@8 004204c4 f   iomgr:iosubs.obj
 0001:0001f4e4       _IoSetThreadHardErrorMode@4 004204e4 f   iomgr:iosubs.obj
 0001:0001f51a       _IoSetTopLevelIrp@4        0042051a f   iomgr:iosubs.obj
 0001:0001f536       _IopStartNextPacket@8      00420536 f   iomgr:iosubs.obj
 0001:0001f5a8       _IopStartNextPacketByKey@12 004205a8 f   iomgr:iosubs.obj
 0001:0001f61e       _IoStartPacket@16          0042061e f   iomgr:iosubs.obj
 0001:0001f6d8       _IopStartNextPacketByKeyEx@12 004206d8 f   iomgr:iosubs.obj
 0001:0001f772       _IoStartNextPacket@8       00420772 f   iomgr:iosubs.obj
 0001:0001f7b4       _IoStartNextPacketByKey@12 004207b4 f   iomgr:iosubs.obj
 0001:0001f7fa       _IoSetStartIoAttributes@12 004207fa f   iomgr:iosubs.obj
 0001:0001f82a       _IoStartTimer@4            0042082a f   iomgr:iosubs.obj
 0001:0001f876       _IoStopTimer@4             00420876 f   iomgr:iosubs.obj
 0001:0001f8b6       _IoSynchronousPageWrite@20 004208b6 f   iomgr:iosubs.obj
 0001:0001f970       _IoThreadToProcess@4       00420970 f   iomgr:iosubs.obj
 0001:0001f970       _PsGetThreadProcess@4      00420970 f   ps:pshelper.obj
 0001:0001f986       _IoWriteErrorLogEntry@4    00420986 f   iomgr:iosubs.obj
 0001:0001fa46       _IopCreateSecurityDescriptorPerType@12 00420a46 f   iomgr:iosubs.obj
 0001:0001fab4       _IoGetRequestorSessionId@8 00420ab4 f   iomgr:iosubs.obj
 0001:0001faea       _IoRetryIrpCompletions@0   00420aea f   iomgr:iosubs.obj
 0001:0001fb5a       _IopUnloadSafeCompletion@12 00420b5a f   iomgr:iosubs.obj
 0001:0001fb94       _IoSetCompletionRoutineEx@28 00420b94 f   iomgr:iosubs.obj
 0001:0001fc00       _IoGetLowerDeviceObject@4  00420c00 f   iomgr:iosubs.obj
 0001:0001fc4a       _IoEnumerateDeviceObjectList@16 00420c4a f   iomgr:iosubs.obj
 0001:0001fcc4       _IoGetDeviceAttachmentBaseRef@4 00420cc4 f   iomgr:iosubs.obj
 0001:0001fcfe       _IoGetDiskDeviceObject@8   00420cfe f   iomgr:iosubs.obj
 0001:0001fd68       _IoIsFileOriginRemote@4    00420d68 f   iomgr:iosubs.obj
 0001:0001fd80       _IoSetFileOrigin@8         00420d80 f   iomgr:iosubs.obj
 0001:0001fdc8       _IoGetFileObjectFilterContext@4 00420dc8 f   iomgr:iosubs.obj
 0001:0001fde4       _IoChangeFileObjectFilterContext@12 00420de4 f   iomgr:iosubs.obj
 0001:0001fe2a       _IoIsDeviceEjectable@4     00420e2a f   iomgr:iosubs.obj
 0001:0001fe4e       _IoValidateDeviceIoControlAccess@8 00420e4e f   iomgr:iosubs.obj
 0001:0001fea2       @IoGetPagingIoPriority@4   00420ea2 f   iomgr:iosubs.obj
 0001:0001febc       _IoFindDeviceThatFailedIrp@4 00420ebc f   iomgr:iosubs.obj
 0001:0001fef8       _IoCallDriver@8            00420ef8 f   iomgr:iosubs.obj
 0001:0001ff10       _IoCompleteRequest@8       00420f10 f   iomgr:iosubs.obj
 0001:0001ff28       _IoAllocateController@16   00420f28 f   iomgr:iosubs.obj
 0001:0001ff74       _IoAllocateErrorLogEntry@8 00420f74 f   iomgr:iosubs.obj
 0001:0001ffae       _IoAllocateGenericErrorLogEntry@4 00420fae f   iomgr:iosubs.obj
 0001:0001ffc6       _IoAsynchronousPageWrite@32 00420fc6 f   iomgr:iosubs.obj
 0001:000200d4       _IopAttachDeviceToDeviceStackSafe@12 004210d4 f   iomgr:iosubs.obj
 0001:00020184       _IoBuildAsynchronousFsdRequest@24 00421184 f   iomgr:iosubs.obj
 0001:000202c6       _IoBuildDeviceIoControlRequest@36 004212c6 f   iomgr:iosubs.obj
 0001:000204d2       _IoBuildSynchronousFsdRequest@28 004214d2 f   iomgr:iosubs.obj
 0001:0002053a       _IoCancelIrp@4             0042153a f   iomgr:iosubs.obj
 0001:000205b4       @IopfCompleteRequest@8     004215b4 f   iomgr:iosubs.obj
 0001:000208b0       _IoDeleteDevice@4          004218b0 f   iomgr:iosubs.obj
 0001:0002093a       _IoGetRequestorProcessId@4 0042193a f   iomgr:iosubs.obj
 0001:0002095c       _IopShutdownBaseFileSystems@4 0042195c f   iomgr:iosubs.obj
 0001:00020a30       _IoAttachDeviceToDeviceStack@8 00421a30 f   iomgr:iosubs.obj
 0001:00020a4a       _IoAttachDeviceToDeviceStackSafe@12 00421a4a f   iomgr:iosubs.obj
 0001:00020a72       _IoAttachDeviceByPointer@8 00421a72 f   iomgr:iosubs.obj
 0001:00020a98       _IoFreeWorkItem@4          00421a98 f   iomgr:misc.obj
 0001:00020aae       _IoQueueWorkItem@16        00421aae f   iomgr:misc.obj
 0001:00020adc       _IoAllocateWorkItem@4      00421adc f   iomgr:misc.obj
 0001:00020b0e       _IopCsqCancelRoutine@8     00421b0e f   iomgr:cancelapi.obj
 0001:00020b72       _IoCsqInitialize@28        00421b72 f   iomgr:cancelapi.obj
 0001:00020bb2       _IoCsqInitializeEx@28      00421bb2 f   iomgr:cancelapi.obj
 0001:00020bf2       _IoCsqInsertIrpEx@16       00421bf2 f   iomgr:cancelapi.obj
 0001:00020c9a       _IoCsqRemoveNextIrp@8      00421c9a f   iomgr:cancelapi.obj
 0001:00020cfa       _IoCsqRemoveIrp@8          00421cfa f   iomgr:cancelapi.obj
 0001:00020d56       _IoCsqInsertIrp@12         00421d56 f   iomgr:cancelapi.obj
 0001:00020da8       _IopAllocateIrpMustSucceed@4 00421da8 f   iomgr:internal.obj
 0001:00020df8       _IopCompletePageWrite@20   00421df8 f   iomgr:internal.obj
 0001:00020e50       _IopDisassociateThreadIrp@0 00421e50 f   iomgr:internal.obj
 0001:00020f0e       _IopDropIrp@8              00421f0e f   iomgr:internal.obj
 0001:00020f7c       _IopExceptionFilter@8      00421f7c f   iomgr:internal.obj
 0001:00020fba       _IopFreeIrpAndMdls@4       00421fba f   iomgr:internal.obj
 0001:00020fe8       _IopGetMountFlag@4         00421fe8 f   iomgr:internal.obj
 0001:00021020       _IopRemoveHardErrorPacket@0 00422020 f   iomgr:internal.obj
 0001:0002105e       _IopCheckHardErrorEmpty@0  0042205e f   iomgr:internal.obj
 0001:000210a0       _IopInvalidDeviceRequest@8 004220a0 f   iomgr:internal.obj
 0001:000210d4       _IopGetDeviceAttachmentBase@4 004220d4 f   iomgr:internal.obj
 0001:000210f4       _IopResurrectDriver@4      004220f4 f   iomgr:internal.obj
 0001:0002114e       _IopTimerDispatch@16       0042214e f   iomgr:internal.obj
 0001:000211ba       @IopInterlockedInsertHeadList@8 004221ba f   iomgr:internal.obj
 0001:000211f4       @IopInterlockedInsertTailList@8 004221f4 f   iomgr:internal.obj
 0001:00021230       @IopInterlockedRemoveHeadList@4 00422230 f   iomgr:internal.obj
 0001:00021266       @IopInterlockedDecrementUlong@8 00422266 f   iomgr:internal.obj
 0001:00021290       @IopInterlockedIncrementUlong@8 00422290 f   iomgr:internal.obj
 0001:000212ba       _IopCallBootDriverReinitializationRoutines@0 004222ba f   iomgr:internal.obj
 0001:00021314       _IopAllocateReserveIrp@4   00422314 f   iomgr:internal.obj
 0001:00021378       _IopFreeReserveIrp@4       00422378 f   iomgr:internal.obj
 0001:0002139e       _IopMountInitializeVpb@12  0042239e f   iomgr:internal.obj
 0001:000213f6       _IopVerifyDeviceObjectOnStack@8 004223f6 f   iomgr:internal.obj
 0001:00021430       _IopVerifyDiskSignature@12 00422430 f   iomgr:internal.obj
 0001:00021494       _IopVerifyDriverObjectOnStack@8 00422494 f   iomgr:internal.obj
 0001:000214c0       _IopIncrementDeviceObjectHandleCount@4 004224c0 f   iomgr:internal.obj
 0001:000214da       _IopProcessIrpStackProfiler@0 004224da f   iomgr:internal.obj
 0001:0002151c       _IopReferenceVerifyVpb@12  0042251c f   iomgr:internal.obj
 0001:00021568       _IopCompleteRequest@20     00422568 f   iomgr:internal.obj
 0001:00021944       _IopGetDriverPathInformation@12 00422944 f   iomgr:internal.obj
 0001:000219f0       _IopIrpStackProfilerTimer@16 004229f0 f   iomgr:internal.obj
 0001:00021a50       _IopCompleteUnloadOrDelete@12 00422a50 f   iomgr:internal.obj
 0001:00021c5c       _IopDecrementDeviceObjectRef@12 00422c5c f   iomgr:internal.obj
 0001:00021ca8       _IopDecrementDeviceObjectHandleCount@4 00422ca8 f   iomgr:internal.obj
 0001:00021cc0       _IopFetchConfigurationInformation@28 00422cc0 f   iomgr:ioinit.obj
 0001:00021d46       _IopLogErrorEvent@32       00422d46 f   iomgr:ioinit.obj
 0001:00021e02       _IopCheckDeviceAndDriver@8 00422e02 f   iomgr:parse.obj
 0001:00021e6c       _IopCheckVpbMounted@16     00422e6c f   iomgr:parse.obj
 0001:00021f48       _IopDereferenceVpbAndFree@4 00422f48 f   iomgr:parse.obj
 0001:00021f90       _IopErrorLogGetEntry@0     00422f90 f   iomgr:errorlog.obj
 0001:00021fdc       _IopErrorLogRequeueEntry@4 00422fdc f   iomgr:errorlog.obj
 0001:00022026       _IopErrorLogDpc@16         00423026 f   iomgr:errorlog.obj
 0001:00022066       _IopGetDevicePDO@4         00423066 f   iomgr:objsup.obj
 0001:000220aa       @KeAcquireSpinLockForDpc@4 004230aa f   ke:dpclock.obj
 0001:000220d4       @KeReleaseSpinLockForDpc@8 004230d4 f   ke:dpclock.obj
 0001:000220f4       @KeAcquireInStackQueuedSpinLockForDpc@8 004230f4 f   ke:dpclock.obj
 0001:00022114       @KeReleaseInStackQueuedSpinLockForDpc@4 00423114 f   ke:dpclock.obj
 0001:00022134       _KiSetIoMap@16             00423134 f   ke:iopm.obj
 0001:00022188       _Ke386QueryIoAccessMap@8   00423188 f   ke:iopm.obj
 0001:000221ea       _KiLoadIopmOffset@16       004231ea f   ke:iopm.obj
 0001:00022228       _Ke386SetIOPL@0            00423228 f   ke:iopm.obj
 0001:0002229e       _Ke386SetIoAccessMap@8     0042329e f   ke:iopm.obj
 0001:000222e2       _Ke386IoSetAccessProcess@8 004232e2 f   ke:iopm.obj
 0001:0002232e       _KeAcquireInterruptSpinLock@4 0042332e f   ke:interobj.obj
 0001:00022356       _KeReleaseInterruptSpinLock@8 00423356 f   ke:interobj.obj
 0001:00022376       _RtlEnlargedUnsignedDivide@16 00423376 f i ke:miscc.obj
 0001:000223a6       _KeQueryInterruptTime@0    004233a6 f   ke:miscc.obj
 0001:000223c4       _KeQuerySystemTime@4       004233c4 f   ke:miscc.obj
 0001:0002240a       _KeQueryTickCount@4        0042340a f   ke:miscc.obj
 0001:00022450       _KeQueryTimeIncrement@0    00423450 f   ke:miscc.obj
 0001:0002245c       _KeSetDmaIoCoherency@4     0042345c f   ke:miscc.obj
 0001:00022470       _KeSetTimeIncrement@8      00423470 f   ke:miscc.obj
 0001:000224ac       _KeIsAttachedProcess@0     004234ac f   ke:miscc.obj
 0001:000224c6       _KeGetRecommendedSharedDataAlignment@0 004234c6 f   ke:miscc.obj
 0001:000224d2       _KiHandleNmi@0             004234d2 f   ke:miscc.obj
 0001:00022500       _KeRegisterNmiCallback@8   00423500 f   ke:miscc.obj
 0001:00022562       _KeDeregisterNmiCallback@4 00423562 f   ke:miscc.obj
 0001:000225fc       _KeAdjustInterruptTime@8   004235fc f   ke:miscc.obj
 0001:0002264a       _KeSetSystemTime@16        0042364a f   ke:miscc.obj
 0001:000228ac       _KeQueryRuntimeProcess@8   004238ac f   ke:procobj.obj
 0001:000228fa       _KeQueryValuesProcess@8    004238fa f   ke:procobj.obj
 0001:000229d2       _KeSetProcess@12           004239d2 f   ke:procobj.obj
 0001:00022a5e       _KeSetAffinityProcess@8    00423a5e f   ke:procobj.obj
 0001:00022b4a       _KeSetPriorityAndQuantumProcess@12 00423b4a f   ke:procobj.obj
 0001:00022d22       _KeSetQuantumProcess@8     00423d22 f   ke:procobj.obj
 0001:00022d62       _KeSetAutoAlignmentProcess@8 00423d62 f   ke:procobj.obj
 0001:00022da0       _KeSetDisableBoostProcess@8 00423da0 f   ke:procobj.obj
 0001:00022dde       _KeSetDisableQuantumProcess@8 00423dde f   ke:procobj.obj
 0001:00022e1c       _KiMoveApcState@8          00423e1c f   ke:procobj.obj
 0001:00022e7c       _KeDetachProcess@0         00423e7c f   ke:procobj.obj
 0001:00022f8a       _KeUnstackDetachProcess@4  00423f8a f   ke:procobj.obj
 0001:000230e0       _KiAttachProcess@16        004240e0 f   ke:procobj.obj
 0001:0002324e       _KeAttachProcess@4         0042424e f   ke:procobj.obj
 0001:000232ce       _KeForceAttachProcess@4    004242ce f   ke:procobj.obj
 0001:0002338c       _KeStackAttachProcess@8    0042438c f   ke:procobj.obj
 0001:00023430       _KeGetBugMessageText@8     00424430 f   ke:bugcheck.obj
 0001:0002352a       _KeBugCheckUnicodeToAnsi@12 0042452a f   ke:bugcheck.obj
 0001:00023566       _KiBugCheckDebugBreak@4    00424566 f   ke:bugcheck.obj
 0001:000235fa       _KiPcToFileHeader@16       004245fa f   ke:bugcheck.obj
 0001:00023680       _KeEnterKernelDebugger@0   00424680 f   ke:bugcheck.obj
 0001:000236c4       _KeDeregisterBugCheckCallback@4 004246c4 f   ke:bugcheck.obj
 0001:00023718       _KeRegisterBugCheckCallback@20 00424718 f   ke:bugcheck.obj
 0001:000237a2       _KiScanBugCheckCallbackList@0 004247a2 f   ke:bugcheck.obj
 0001:0002384a       _KeDeregisterBugCheckReasonCallback@4 0042484a f   ke:bugcheck.obj
 0001:0002389e       _KeRegisterBugCheckReasonCallback@16 0042489e f   ke:bugcheck.obj
 0001:0002391a       _KiInvokeBugCheckEntryCallbacks@0 0042491a f   ke:bugcheck.obj
 0001:00023a7a       _KeBugCheck2@24            00424a7a f   ke:bugcheck.obj
 0001:000243f2       _KeBugCheck@4              004253f2 f   ke:bugcheck.obj
 0001:0002440e       _KeBugCheckEx@20           0042540e f   ke:bugcheck.obj
 0001:00024430       _KeInitializeTimerEx@8     00425430 f   ke:timerobj.obj
 0001:00024464       _KeClearTimer@4            00425464 f   ke:timerobj.obj
 0001:00024464       _KeClearEvent@4            00425464 f   ke:eventobj.obj
 0001:00024464       _FsRtlResetBaseMcb@4       00425464 f   fsrtl:LargeMcb.obj
 0001:00024478       _KeCancelTimer@4           00425478 f   ke:timerobj.obj
 0001:0002450c       _KeSetTimerEx@20           0042550c f   ke:timerobj.obj
 0001:00024692       _KeQueryTimerDueTime@4     00425692 f   ke:timerobj.obj
 0001:000246de       _KeCheckForTimer@8         004256de f   ke:timerobj.obj
 0001:000247be       _KeInitializeTimer@4       004257be f   ke:timerobj.obj
 0001:000247d4       _KeSetTimer@16             004257d4 f   ke:timerobj.obj
 0001:000247f4       _KeInitializeEvent@12      004257f4 f   ke:eventobj.obj
 0001:0002481c       _KePulseEvent@12           0042581c f   ke:eventobj.obj
 0001:0002488e       _KeResetEvent@4            0042588e f   ke:eventobj.obj
 0001:000248ce       _KeSetEvent@12             004258ce f   ke:eventobj.obj
 0001:000249a6       _KeSetEventBoostPriority@8 004259a6 f   ke:eventobj.obj
 0001:00024b06       _KeInitializeInterrupt@44  00425b06 f   ke:intobj.obj
 0001:00024b9e       _KiGetVectorInfo@8         00425b9e f   ke:intobj.obj
 0001:00024ca6       _KiConnectVectorAndInterruptObject@8 00425ca6 f   ke:intobj.obj
 0001:00024d70       @KiTimedChainedDispatch2ndLvl@4 00425d70 f   ke:intobj.obj
 0001:00024ea2       @KiTimedInterruptDispatch@4 00425ea2 f   ke:intobj.obj
 0001:00024f64       _KiInitializeInterruptTimersDpc@16 00425f64 f   ke:intobj.obj
 0001:00024ff8       _KiInitializeInterruptTimers@0 00425ff8 f   ke:intobj.obj
 0001:00025064       _KeDisconnectInterrupt@4   00426064 f   ke:intobj.obj
 0001:00025120       _KeConnectInterrupt@4      00426120 f   ke:intobj.obj
 0001:00025244       _KiAdjustQuantumThread@4   00426244 f   ke:wait.obj
 0001:00025358       @KiComputeWaitInterval@12  00426358 f i ke:wait.obj
 0001:000253b2       _KeDelayExecutionThread@12 004263b2 f   ke:wait.obj
 0001:00025812       _KeWaitForMultipleObjects@32 00426812 f   ke:wait.obj
 0001:00025e6a       _KeWaitForSingleObject@20  00426e6a f   ke:wait.obj
 0001:000263ac       _KiSetServerWaitClientEvent@12 004273ac f   ke:wait.obj
 0001:000263d6       @KiAcquireFastMutex@4      004273d6 f   ke:wait.obj
 0001:000263f0       @KiAcquireGuardedMutex@4   004273f0 f   ke:wait.obj
 0001:00026440       _KiInitializeDpc@16        00427440 f   ke:dpcobj.obj
 0001:00026470       _KeInitializeDpc@12        00427470 f   ke:dpcobj.obj
 0001:0002648c       _KeInitializeThreadedDpc@12 0042748c f   ke:dpcobj.obj
 0001:000264a8       _KeInsertQueueDpc@12       004274a8 f   ke:dpcobj.obj
 0001:0002667a       _KeRemoveQueueDpc@4        0042767a f   ke:dpcobj.obj
 0001:000266d6       _KeFlushQueuedDpcs@0       004276d6 f   ke:dpcobj.obj
 0001:0002678a       _KeGenericCallDpc@8        0042778a f   ke:dpcobj.obj
 0001:00026846       _KeSignalCallDpcDone@4     00427846 f   ke:dpcobj.obj
 0001:0002685c       _KeSignalCallDpcSynchronize@4 0042785c f   ke:dpcobj.obj
 0001:000268ba       _KiInitializeAbiosGdtEntry@16 004278ba f   ke:abiosc.obj
 0001:0002690e       _KiI386SelectorBase@4      0042790e f   ke:abiosc.obj
 0001:00026942       _KeI386GetLid@20           00427942 f   ke:abiosc.obj
 0001:00026ab4       _KeI386ReleaseLid@8        00427ab4 f   ke:abiosc.obj
 0001:00026b2e       _KeI386AbiosCall@16        00427b2e f   ke:abiosc.obj
 0001:00026bc0       _KeI386AllocateGdtSelectors@8 00427bc0 f   ke:abiosc.obj
 0001:00026c30       _KeI386ReleaseGdtSelectors@8 00427c30 f   ke:abiosc.obj
 0001:00026c94       _KeI386FlatToGdtSelector@12 00427c94 f   ke:abiosc.obj
 0001:00026d46       _Ki386InitializeGdtFreeList@4 00427d46 f   ke:abiosc.obj
 0001:00026d98       _KiInitializeAbios@4       00427d98 f   ke:abiosc.obj
 0001:00026e70       _BBT_Exclude_Selector_Code_Begin 00427e70     ke:abiosa.obj
 0001:00026e74       _KiAbiosGetGdt@0           00427e74 f   ke:abiosa.obj
 0001:00026e7c       _KiI386CallAbios@16        00427e7c f   ke:abiosa.obj
 0001:00026f84       _KeI386Call16BitFunction@4 00427f84 f   ke:abiosa.obj
 0001:00027128       _KeI386Call16BitCStyleFunction@16 00428128 f   ke:abiosa.obj
 0001:00027233       _BBT_Exclude_Selector_Code_End 00428233     ke:abiosa.obj
 0001:00027234       _KiEndOfCode16             00428234     ke:abiosa.obj
 0001:0002723a       _KeInitializeApc@32        0042823a f   ke:apcobj.obj
 0001:00027296       _KeFlushQueueApc@8         00428296 f   ke:apcobj.obj
 0001:0002731a       _KeInsertQueueApc@16       0042831a f   ke:apcobj.obj
 0001:0002737e       _KeRemoveQueueApc@4        0042837e f   ke:apcobj.obj
 0001:0002740a       _KeInitializeDeviceQueue@4 0042840a f   ke:devquobj.obj
 0001:00027434       _KeInsertDeviceQueue@8     00428434 f   ke:devquobj.obj
 0001:000274b2       _KeInsertByKeyDeviceQueue@12 004284b2 f   ke:devquobj.obj
 0001:00027552       _KeRemoveDeviceQueue@4     00428552 f   ke:devquobj.obj
 0001:000275ca       _KeRemoveByKeyDeviceQueue@8 004285ca f   ke:devquobj.obj
 0001:0002765a       _KeRemoveByKeyDeviceQueueIfBusy@8 0042865a f   ke:devquobj.obj
 0001:000276f8       _KeRemoveEntryDeviceQueue@8 004286f8 f   ke:devquobj.obj
 0001:0002773c       _KeInitializeMutant@8      0042873c f   ke:mutntobj.obj
 0001:000277bc       _KeInitializeMutex@8       004287bc f   ke:mutntobj.obj
 0001:000277ee       _KeReleaseMutant@16        004287ee f   ke:mutntobj.obj
 0001:000278e8       _KeReleaseMutex@8          004288e8 f   ke:mutntobj.obj
 0001:00027904       _KeInitializeQueue@8       00428904 f   ke:queueobj.obj
 0001:0002794c       _KeRemoveQueue@12          0042894c f   ke:queueobj.obj
 0001:00027f14       _KeRundownQueue@4          00428f14 f   ke:queueobj.obj
 0001:00027f80       @KiInsertQueue@12          00428f80 f   ke:queueobj.obj
 0001:00028080       _KeInsertQueue@8           00429080 f   ke:queueobj.obj
 0001:000280c4       _KeInsertHeadQueue@8       004290c4 f   ke:queueobj.obj
 0001:00028108       _KeInitializeSemaphore@12  00429108 f   ke:semphobj.obj
 0001:00028132       _KeReadStateSemaphore@4    00429132 f   ke:semphobj.obj
 0001:00028132       _KeReadStateEvent@4        00429132 f   ke:eventobj.obj
 0001:00028132       _KeReadStateProcess@4      00429132 f   ke:procobj.obj
 0001:00028132       _FsRtlNumberOfRunsInBaseMcb@4 00429132 f   fsrtl:LargeMcb.obj
 0001:00028132       _KeReadStateMutant@4       00429132 f   ke:mutntobj.obj
 0001:00028132       _KeReadStateQueue@4        00429132 f   ke:queueobj.obj
 0001:00028144       _KeReleaseSemaphore@16     00429144 f   ke:semphobj.obj
 0001:000281dc       _KiInvalidateAllCachesTarget@16 004291dc f   ke:flush.obj
 0001:000281f6       _KeInvalidateAllCaches@0   004291f6 f   ke:flush.obj
 0001:000282da       _KiIpiGenericCallTarget@16 004292da f   ke:xipi.obj
 0001:0002830c       _KeIpiGenericCall@8        0042930c f   ke:xipi.obj
 0001:000283cc       _KeStartThread@4           004293cc f   ke:thredobj.obj
 0001:000284cc       _KeAlertThread@8           004294cc f   ke:thredobj.obj
 0001:00028558       _KeAlertResumeThread@4     00429558 f   ke:thredobj.obj
 0001:00028606       _KeBoostPriorityThread@8   00429606 f   ke:thredobj.obj
 0001:0002869a       _KeForceResumeThread@4     0042969a f   ke:thredobj.obj
 0001:00028720       _KeFreezeAllThreads@0      00429720 f   ke:thredobj.obj
 0001:00028814       _KeQueryBasePriorityThread@4 00429814 f   ke:thredobj.obj
 0001:00028876       _KeQueryPriorityThread@4   00429876 f   ke:thredobj.obj
 0001:0002888a       _KeQueryRuntimeThread@8    0042988a f   ke:thredobj.obj
 0001:000288aa       _KeReadStateTimer@4        004298aa f   ke:timerobj.obj
 0001:000288aa       _KeReadStateThread@4       004298aa f   ke:thredobj.obj
 0001:000288bc       _KeReadyThread@4           004298bc f   ke:thredobj.obj
 0001:000288f6       _KeResumeThread@4          004298f6 f   ke:thredobj.obj
 0001:0002897e       _KeRevertToUserAffinityThread@0 0042997e f   ke:thredobj.obj
 0001:00028a0e       _KeRundownThread@0         00429a0e f   ke:thredobj.obj
 0001:00028a9c       _KeSetAffinityThread@8     00429a9c f   ke:thredobj.obj
 0001:00028ade       _KeSetSystemAffinityThread@4 00429ade f   ke:thredobj.obj
 0001:00028baa       _KeSetBasePriorityThread@8 00429baa f   ke:thredobj.obj
 0001:00028cfe       _KeSetAutoAlignmentThread@8 00429cfe f   ke:thredobj.obj
 0001:00028d3e       _KeSetDisableBoostThread@8 00429d3e f   ke:thredobj.obj
 0001:00028d7e       _KeSetIdealProcessorThread@8 00429d7e f   ke:thredobj.obj
 0001:00028df4       _KeSetKernelStackSwapEnable@4 00429df4 f   ke:thredobj.obj
 0001:00028e10       _KeSetPriorityThread@8     00429e10 f   ke:thredobj.obj
 0001:00028e98       _KeSetPriorityZeroPageThread@4 00429e98 f   ke:thredobj.obj
 0001:00028f18       _KeSuspendThread@4         00429f18 f   ke:thredobj.obj
 0001:00028fd0       _KeTerminateThread@4       00429fd0 f   ke:thredobj.obj
 0001:00029160       _KeTestAlertThread@4       0042a160 f   ke:thredobj.obj
 0001:000291b6       _KeThawAllThreads@0        0042a1b6 f   ke:thredobj.obj
 0001:00029278       _KiEspFromTrapFrame@4      0042a278 f   ke:exceptn.obj
 0001:000292aa       _KiEspToTrapFrame@8        0042a2aa f   ke:exceptn.obj
 0001:0002932a       _KiSegSsFromTrapFrame@4    0042a32a f   ke:exceptn.obj
 0001:00029356       _KiSegSsToTrapFrame@8      0042a356 f   ke:exceptn.obj
 0001:00029380       _KeContextFromKframes@12   0042a380 f   ke:exceptn.obj
 0001:00029644       _KeContextToKframes@20     0042a644 f   ke:exceptn.obj
 0001:00029ae4       _KiCopyInformation@8       0042aae4 f   ke:exceptn.obj
 0001:00029b02       _KeRaiseUserException@4    0042ab02 f   ke:exceptn.obj
 0001:00029b92       _KiCheckForAtlThunk@8      0042ab92 f   ke:exceptn.obj
 0001:00029be2       _KiDispatchException@20    0042abe2 f   ke:exceptn.obj
 0001:00029f98       _KeSaveFloatingPointState@4 0042af98 f   ke:misc.obj
 0001:0002a18e       _KeRestoreFloatingPointState@4 0042b18e f   ke:misc.obj
 0001:0002a2f2       _KiDisableFastSyscallReturn@0 0042b2f2 f   ke:misc.obj
 0001:0002a30e       _KiEnableFastSyscallReturn@0 0042b30e f   ke:misc.obj
 0001:0002a356       @xHalReferenceHandler@4    0042b356 f   ntoswrk:HALFNC.obj
 0001:0002a356       _MiInitializePfnTracing@0  0042b356 f   mm:pfnlist.obj
 0001:0002a356       _xKdCheckPowerButton@0     0042b356 f   ntoswrk:HALFNC.obj
 0001:0002a356       _KePrepareToLoseProcessorSpecificState@0 0042b356 f   ke:misc.obj
 0001:0002a35c       _KiLoadFastSyscallMachineSpecificRegisters@4 0042b35c f   ke:misc.obj
 0001:0002a3a8       _KiRestoreFastSyscallReturnState@0 0042b3a8 f   ke:misc.obj
 0001:0002a3f6       _KeRestoreProcessorSpecificFeatures@0 0042b3f6 f   ke:misc.obj
 0001:0002a40a       @KiAcquireQueuedSpinLockCheckForFreeze@8 0042b40a f   ke:misc.obj
 0001:0002a46a       @KiRecordDr7@8             0042b46a f   ke:misc.obj
 0001:0002a4c6       @KiProcessDebugRegister@8  0042b4c6 f   ke:misc.obj
 0001:0002a542       @KiUpdateDr7@4             0042b542 f   ke:misc.obj
 0001:0002a55c       _KeSaveStateForHibernate   0042b55c f   ke:misc.obj
 0001:0002a576       _KeSetImportanceDpc@8      0042b576 f i ke:kiinit.obj
 0001:0002a58c       _KeSetTargetProcessorDpc@8 0042b58c f i ke:kiinit.obj
 0001:0002a5a4       _KeComputeReciprocal@8     0042b5a4 f   ke:kiinit.obj
 0001:0002a5fe       _KiDeliverApc@12           0042b5fe f   ke:apcsup.obj
 0001:0002a81a       @KiInsertQueueApc@8        0042b81a f   ke:apcsup.obj
 0001:0002aa7c       _KiCheckForKernelApcDelivery@0 0042ba7c f   ke:apcsup.obj
 0001:0002aab8       _KiIpiServiceRoutine@8     0042bab8 f   ke:mpipia.obj
 0001:0002ab88       @KiIpiSend@8               0042bb88 f   ke:mpipia.obj
 0001:0002abb4       _KiIpiSendPacket@20        0042bbb4 f   ke:mpipia.obj
 0001:0002ac44       @KiIpiSignalPacketDone@4   0042bc44 f   ke:mpipia.obj
 0001:0002ac70       @KiIpiSignalPacketDoneAndStall@8 0042bc70 f   ke:mpipia.obj
 0001:0002acd8       _ZwAcceptConnectPort@24    0042bcd8 f   ke:sysstubs.obj
 0001:0002acec       _ZwAccessCheck@32          0042bcec f   ke:sysstubs.obj
 0001:0002ad00       _ZwAccessCheckAndAuditAlarm@44 0042bd00 f   ke:sysstubs.obj
 0001:0002ad14       _ZwAccessCheckByType@44    0042bd14 f   ke:sysstubs.obj
 0001:0002ad28       _ZwAccessCheckByTypeAndAuditAlarm@64 0042bd28 f   ke:sysstubs.obj
 0001:0002ad3c       _ZwAccessCheckByTypeResultList@44 0042bd3c f   ke:sysstubs.obj
 0001:0002ad50       _ZwAccessCheckByTypeResultListAndAuditAlarm@64 0042bd50 f   ke:sysstubs.obj
 0001:0002ad64       _ZwAccessCheckByTypeResultListAndAuditAlarmByHandle@68 0042bd64 f   ke:sysstubs.obj
 0001:0002ad78       _ZwAddAtom@12              0042bd78 f   ke:sysstubs.obj
 0001:0002ad8c       _ZwAddBootEntry@8          0042bd8c f   ke:sysstubs.obj
 0001:0002ada0       _ZwAddDriverEntry@8        0042bda0 f   ke:sysstubs.obj
 0001:0002adb4       _ZwAdjustGroupsToken@24    0042bdb4 f   ke:sysstubs.obj
 0001:0002adc8       _ZwAdjustPrivilegesToken@24 0042bdc8 f   ke:sysstubs.obj
 0001:0002addc       _ZwAlertResumeThread@8     0042bddc f   ke:sysstubs.obj
 0001:0002adf0       _ZwAlertThread@4           0042bdf0 f   ke:sysstubs.obj
 0001:0002ae04       _ZwAllocateLocallyUniqueId@4 0042be04 f   ke:sysstubs.obj
 0001:0002ae18       _ZwAllocateUserPhysicalPages@12 0042be18 f   ke:sysstubs.obj
 0001:0002ae2c       _ZwAllocateUuids@16        0042be2c f   ke:sysstubs.obj
 0001:0002ae40       _ZwAllocateVirtualMemory@24 0042be40 f   ke:sysstubs.obj
 0001:0002ae54       _ZwApphelpCacheControl@8   0042be54 f   ke:sysstubs.obj
 0001:0002ae68       _ZwAreMappedFilesTheSame@8 0042be68 f   ke:sysstubs.obj
 0001:0002ae7c       _ZwAssignProcessToJobObject@8 0042be7c f   ke:sysstubs.obj
 0001:0002ae90       _ZwCallbackReturn@12       0042be90 f   ke:sysstubs.obj
 0001:0002aea4       _ZwCancelDeviceWakeupRequest@4 0042bea4 f   ke:sysstubs.obj
 0001:0002aeb8       _ZwCancelIoFile@8          0042beb8 f   ke:sysstubs.obj
 0001:0002aecc       _ZwCancelTimer@8           0042becc f   ke:sysstubs.obj
 0001:0002aee0       _ZwClearEvent@4            0042bee0 f   ke:sysstubs.obj
 0001:0002aef4       _ZwClose@4                 0042bef4 f   ke:sysstubs.obj
 0001:0002af08       _ZwCloseObjectAuditAlarm@12 0042bf08 f   ke:sysstubs.obj
 0001:0002af1c       _ZwCompactKeys@8           0042bf1c f   ke:sysstubs.obj
 0001:0002af30       _ZwCompareTokens@12        0042bf30 f   ke:sysstubs.obj
 0001:0002af44       _ZwCompleteConnectPort@4   0042bf44 f   ke:sysstubs.obj
 0001:0002af58       _ZwCompressKey@4           0042bf58 f   ke:sysstubs.obj
 0001:0002af6c       _ZwConnectPort@32          0042bf6c f   ke:sysstubs.obj
 0001:0002af80       _ZwContinue@8              0042bf80 f   ke:sysstubs.obj
 0001:0002af94       _ZwCreateDebugObject@16    0042bf94 f   ke:sysstubs.obj
 0001:0002afa8       _ZwCreateDirectoryObject@12 0042bfa8 f   ke:sysstubs.obj
 0001:0002afbc       _ZwCreateEvent@20          0042bfbc f   ke:sysstubs.obj
 0001:0002afd0       _ZwCreateEventPair@12      0042bfd0 f   ke:sysstubs.obj
 0001:0002afe4       _ZwCreateFile@44           0042bfe4 f   ke:sysstubs.obj
 0001:0002aff8       _ZwCreateIoCompletion@16   0042bff8 f   ke:sysstubs.obj
 0001:0002b00c       _ZwCreateJobObject@12      0042c00c f   ke:sysstubs.obj
 0001:0002b020       _ZwCreateJobSet@12         0042c020 f   ke:sysstubs.obj
 0001:0002b034       _ZwCreateKey@28            0042c034 f   ke:sysstubs.obj
 0001:0002b048       _ZwCreateMailslotFile@32   0042c048 f   ke:sysstubs.obj
 0001:0002b05c       _ZwCreateMutant@16         0042c05c f   ke:sysstubs.obj
 0001:0002b070       _ZwCreateNamedPipeFile@56  0042c070 f   ke:sysstubs.obj
 0001:0002b084       _ZwCreatePagingFile@16     0042c084 f   ke:sysstubs.obj
 0001:0002b098       _ZwCreatePort@20           0042c098 f   ke:sysstubs.obj
 0001:0002b0ac       _ZwCreateProcess@32        0042c0ac f   ke:sysstubs.obj
 0001:0002b0c0       _ZwCreateProcessEx@36      0042c0c0 f   ke:sysstubs.obj
 0001:0002b0d4       _ZwCreateProfile@36        0042c0d4 f   ke:sysstubs.obj
 0001:0002b0e8       _ZwCreateSection@28        0042c0e8 f   ke:sysstubs.obj
 0001:0002b0fc       _ZwCreateSemaphore@20      0042c0fc f   ke:sysstubs.obj
 0001:0002b110       _ZwCreateSymbolicLinkObject@16 0042c110 f   ke:sysstubs.obj
 0001:0002b124       _ZwCreateThread@32         0042c124 f   ke:sysstubs.obj
 0001:0002b138       _ZwCreateTimer@16          0042c138 f   ke:sysstubs.obj
 0001:0002b14c       _ZwCreateToken@52          0042c14c f   ke:sysstubs.obj
 0001:0002b160       _ZwCreateWaitablePort@20   0042c160 f   ke:sysstubs.obj
 0001:0002b174       _ZwDebugActiveProcess@8    0042c174 f   ke:sysstubs.obj
 0001:0002b188       _ZwDebugContinue@12        0042c188 f   ke:sysstubs.obj
 0001:0002b19c       _ZwDelayExecution@8        0042c19c f   ke:sysstubs.obj
 0001:0002b1b0       _ZwDeleteAtom@4            0042c1b0 f   ke:sysstubs.obj
 0001:0002b1c4       _ZwDeleteBootEntry@4       0042c1c4 f   ke:sysstubs.obj
 0001:0002b1d8       _ZwDeleteDriverEntry@4     0042c1d8 f   ke:sysstubs.obj
 0001:0002b1ec       _ZwDeleteFile@4            0042c1ec f   ke:sysstubs.obj
 0001:0002b200       _ZwDeleteKey@4             0042c200 f   ke:sysstubs.obj
 0001:0002b214       _ZwDeleteObjectAuditAlarm@12 0042c214 f   ke:sysstubs.obj
 0001:0002b228       _ZwDeleteValueKey@8        0042c228 f   ke:sysstubs.obj
 0001:0002b23c       _ZwDeviceIoControlFile@40  0042c23c f   ke:sysstubs.obj
 0001:0002b250       _ZwDisplayString@4         0042c250 f   ke:sysstubs.obj
 0001:0002b264       _ZwDuplicateObject@28      0042c264 f   ke:sysstubs.obj
 0001:0002b278       _ZwDuplicateToken@24       0042c278 f   ke:sysstubs.obj
 0001:0002b28c       _ZwEnumerateBootEntries@8  0042c28c f   ke:sysstubs.obj
 0001:0002b2a0       _ZwEnumerateDriverEntries@8 0042c2a0 f   ke:sysstubs.obj
 0001:0002b2b4       _ZwEnumerateKey@24         0042c2b4 f   ke:sysstubs.obj
 0001:0002b2c8       _ZwEnumerateSystemEnvironmentValuesEx@12 0042c2c8 f   ke:sysstubs.obj
 0001:0002b2dc       _ZwEnumerateValueKey@24    0042c2dc f   ke:sysstubs.obj
 0001:0002b2f0       _ZwExtendSection@8         0042c2f0 f   ke:sysstubs.obj
 0001:0002b304       _ZwFilterToken@24          0042c304 f   ke:sysstubs.obj
 0001:0002b318       _ZwFindAtom@12             0042c318 f   ke:sysstubs.obj
 0001:0002b32c       _ZwFlushBuffersFile@8      0042c32c f   ke:sysstubs.obj
 0001:0002b340       _ZwFlushInstructionCache@12 0042c340 f   ke:sysstubs.obj
 0001:0002b354       _ZwFlushKey@4              0042c354 f   ke:sysstubs.obj
 0001:0002b368       _ZwFlushVirtualMemory@16   0042c368 f   ke:sysstubs.obj
 0001:0002b37c       _ZwFlushWriteBuffer@0      0042c37c f   ke:sysstubs.obj
 0001:0002b390       _ZwFreeUserPhysicalPages@12 0042c390 f   ke:sysstubs.obj
 0001:0002b3a4       _ZwFreeVirtualMemory@16    0042c3a4 f   ke:sysstubs.obj
 0001:0002b3b8       _ZwFsControlFile@40        0042c3b8 f   ke:sysstubs.obj
 0001:0002b3cc       _ZwGetContextThread@8      0042c3cc f   ke:sysstubs.obj
 0001:0002b3e0       _ZwGetDevicePowerState@8   0042c3e0 f   ke:sysstubs.obj
 0001:0002b3f4       _ZwGetPlugPlayEvent@16     0042c3f4 f   ke:sysstubs.obj
 0001:0002b408       _ZwGetWriteWatch@28        0042c408 f   ke:sysstubs.obj
 0001:0002b41c       _ZwImpersonateAnonymousToken@4 0042c41c f   ke:sysstubs.obj
 0001:0002b430       _ZwImpersonateClientOfPort@8 0042c430 f   ke:sysstubs.obj
 0001:0002b444       _ZwImpersonateThread@12    0042c444 f   ke:sysstubs.obj
 0001:0002b458       _ZwInitializeRegistry@4    0042c458 f   ke:sysstubs.obj
 0001:0002b46c       _ZwInitiatePowerAction@16  0042c46c f   ke:sysstubs.obj
 0001:0002b480       _ZwIsProcessInJob@8        0042c480 f   ke:sysstubs.obj
 0001:0002b494       _ZwIsSystemResumeAutomatic@0 0042c494 f   ke:sysstubs.obj
 0001:0002b4a8       _ZwListenPort@8            0042c4a8 f   ke:sysstubs.obj
 0001:0002b4bc       _ZwLoadDriver@4            0042c4bc f   ke:sysstubs.obj
 0001:0002b4d0       _ZwLoadKey@8               0042c4d0 f   ke:sysstubs.obj
 0001:0002b4e4       _ZwLoadKey2@12             0042c4e4 f   ke:sysstubs.obj
 0001:0002b4f8       _ZwLoadKeyEx@16            0042c4f8 f   ke:sysstubs.obj
 0001:0002b50c       _ZwLockFile@40             0042c50c f   ke:sysstubs.obj
 0001:0002b520       _ZwLockProductActivationKeys@8 0042c520 f   ke:sysstubs.obj
 0001:0002b534       _ZwLockRegistryKey@4       0042c534 f   ke:sysstubs.obj
 0001:0002b548       _ZwLockVirtualMemory@16    0042c548 f   ke:sysstubs.obj
 0001:0002b55c       _ZwMakePermanentObject@4   0042c55c f   ke:sysstubs.obj
 0001:0002b570       _ZwMakeTemporaryObject@4   0042c570 f   ke:sysstubs.obj
 0001:0002b584       _ZwMapUserPhysicalPages@12 0042c584 f   ke:sysstubs.obj
 0001:0002b598       _ZwMapUserPhysicalPagesScatter@12 0042c598 f   ke:sysstubs.obj
 0001:0002b5ac       _ZwMapViewOfSection@40     0042c5ac f   ke:sysstubs.obj
 0001:0002b5c0       _ZwModifyBootEntry@4       0042c5c0 f   ke:sysstubs.obj
 0001:0002b5d4       _ZwModifyDriverEntry@4     0042c5d4 f   ke:sysstubs.obj
 0001:0002b5e8       _ZwNotifyChangeDirectoryFile@36 0042c5e8 f   ke:sysstubs.obj
 0001:0002b5fc       _ZwNotifyChangeKey@40      0042c5fc f   ke:sysstubs.obj
 0001:0002b610       _ZwNotifyChangeMultipleKeys@48 0042c610 f   ke:sysstubs.obj
 0001:0002b624       _ZwOpenDirectoryObject@12  0042c624 f   ke:sysstubs.obj
 0001:0002b638       _ZwOpenEvent@12            0042c638 f   ke:sysstubs.obj
 0001:0002b64c       _ZwOpenEventPair@12        0042c64c f   ke:sysstubs.obj
 0001:0002b660       _ZwOpenFile@24             0042c660 f   ke:sysstubs.obj
 0001:0002b674       _ZwOpenIoCompletion@12     0042c674 f   ke:sysstubs.obj
 0001:0002b688       _ZwOpenJobObject@12        0042c688 f   ke:sysstubs.obj
 0001:0002b69c       _ZwOpenKey@12              0042c69c f   ke:sysstubs.obj
 0001:0002b6b0       _ZwOpenMutant@12           0042c6b0 f   ke:sysstubs.obj
 0001:0002b6c4       _ZwOpenObjectAuditAlarm@48 0042c6c4 f   ke:sysstubs.obj
 0001:0002b6d8       _ZwOpenProcess@16          0042c6d8 f   ke:sysstubs.obj
 0001:0002b6ec       _ZwOpenProcessToken@12     0042c6ec f   ke:sysstubs.obj
 0001:0002b700       _ZwOpenProcessTokenEx@16   0042c700 f   ke:sysstubs.obj
 0001:0002b714       _ZwOpenSection@12          0042c714 f   ke:sysstubs.obj
 0001:0002b728       _ZwOpenSemaphore@12        0042c728 f   ke:sysstubs.obj
 0001:0002b73c       _ZwOpenSymbolicLinkObject@12 0042c73c f   ke:sysstubs.obj
 0001:0002b750       _ZwOpenThread@16           0042c750 f   ke:sysstubs.obj
 0001:0002b764       _ZwOpenThreadToken@16      0042c764 f   ke:sysstubs.obj
 0001:0002b778       _ZwOpenThreadTokenEx@20    0042c778 f   ke:sysstubs.obj
 0001:0002b78c       _ZwOpenTimer@12            0042c78c f   ke:sysstubs.obj
 0001:0002b7a0       _ZwPlugPlayControl@12      0042c7a0 f   ke:sysstubs.obj
 0001:0002b7b4       _ZwPowerInformation@20     0042c7b4 f   ke:sysstubs.obj
 0001:0002b7c8       _ZwPrivilegeCheck@12       0042c7c8 f   ke:sysstubs.obj
 0001:0002b7dc       _ZwPrivilegeObjectAuditAlarm@24 0042c7dc f   ke:sysstubs.obj
 0001:0002b7f0       _ZwPrivilegedServiceAuditAlarm@20 0042c7f0 f   ke:sysstubs.obj
 0001:0002b804       _ZwProtectVirtualMemory@20 0042c804 f   ke:sysstubs.obj
 0001:0002b818       _ZwPulseEvent@8            0042c818 f   ke:sysstubs.obj
 0001:0002b82c       _ZwQueryAttributesFile@8   0042c82c f   ke:sysstubs.obj
 0001:0002b840       _ZwQueryBootEntryOrder@8   0042c840 f   ke:sysstubs.obj
 0001:0002b854       _ZwQueryBootOptions@8      0042c854 f   ke:sysstubs.obj
 0001:0002b868       _ZwQueryDebugFilterState@8 0042c868 f   ke:sysstubs.obj
 0001:0002b87c       _ZwQueryDefaultLocale@8    0042c87c f   ke:sysstubs.obj
 0001:0002b890       _ZwQueryDefaultUILanguage@4 0042c890 f   ke:sysstubs.obj
 0001:0002b8a4       _ZwQueryDirectoryFile@44   0042c8a4 f   ke:sysstubs.obj
 0001:0002b8b8       _ZwQueryDirectoryObject@28 0042c8b8 f   ke:sysstubs.obj
 0001:0002b8cc       _ZwQueryDriverEntryOrder@8 0042c8cc f   ke:sysstubs.obj
 0001:0002b8e0       _ZwQueryEaFile@36          0042c8e0 f   ke:sysstubs.obj
 0001:0002b8f4       _ZwQueryEvent@20           0042c8f4 f   ke:sysstubs.obj
 0001:0002b908       _ZwQueryFullAttributesFile@8 0042c908 f   ke:sysstubs.obj
 0001:0002b91c       _ZwQueryInformationAtom@20 0042c91c f   ke:sysstubs.obj
 0001:0002b930       _ZwQueryInformationFile@20 0042c930 f   ke:sysstubs.obj
 0001:0002b944       _ZwQueryInformationJobObject@20 0042c944 f   ke:sysstubs.obj
 0001:0002b958       _ZwQueryInformationPort@20 0042c958 f   ke:sysstubs.obj
 0001:0002b96c       _ZwQueryInformationProcess@20 0042c96c f   ke:sysstubs.obj
 0001:0002b980       _ZwQueryInformationThread@20 0042c980 f   ke:sysstubs.obj
 0001:0002b994       _ZwQueryInformationToken@20 0042c994 f   ke:sysstubs.obj
 0001:0002b9a8       _ZwQueryInstallUILanguage@4 0042c9a8 f   ke:sysstubs.obj
 0001:0002b9bc       _ZwQueryIntervalProfile@8  0042c9bc f   ke:sysstubs.obj
 0001:0002b9d0       _ZwQueryIoCompletion@20    0042c9d0 f   ke:sysstubs.obj
 0001:0002b9e4       _ZwQueryKey@20             0042c9e4 f   ke:sysstubs.obj
 0001:0002b9f8       _ZwQueryMultipleValueKey@24 0042c9f8 f   ke:sysstubs.obj
 0001:0002ba0c       _ZwQueryMutant@20          0042ca0c f   ke:sysstubs.obj
 0001:0002ba20       _ZwQueryObject@20          0042ca20 f   ke:sysstubs.obj
 0001:0002ba34       _ZwQueryOpenSubKeys@8      0042ca34 f   ke:sysstubs.obj
 0001:0002ba48       _ZwQueryOpenSubKeysEx@16   0042ca48 f   ke:sysstubs.obj
 0001:0002ba5c       _ZwQueryPerformanceCounter@8 0042ca5c f   ke:sysstubs.obj
 0001:0002ba70       _ZwQueryQuotaInformationFile@36 0042ca70 f   ke:sysstubs.obj
 0001:0002ba84       _ZwQuerySection@20         0042ca84 f   ke:sysstubs.obj
 0001:0002ba98       _ZwQuerySecurityObject@20  0042ca98 f   ke:sysstubs.obj
 0001:0002baac       _ZwQuerySemaphore@20       0042caac f   ke:sysstubs.obj
 0001:0002bac0       _ZwQuerySymbolicLinkObject@12 0042cac0 f   ke:sysstubs.obj
 0001:0002bad4       _ZwQuerySystemEnvironmentValue@16 0042cad4 f   ke:sysstubs.obj
 0001:0002bae8       _ZwQuerySystemEnvironmentValueEx@20 0042cae8 f   ke:sysstubs.obj
 0001:0002bafc       _ZwQuerySystemInformation@16 0042cafc f   ke:sysstubs.obj
 0001:0002bb10       _ZwQuerySystemTime@4       0042cb10 f   ke:sysstubs.obj
 0001:0002bb24       _ZwQueryTimer@20           0042cb24 f   ke:sysstubs.obj
 0001:0002bb38       _ZwQueryTimerResolution@12 0042cb38 f   ke:sysstubs.obj
 0001:0002bb4c       _ZwQueryValueKey@24        0042cb4c f   ke:sysstubs.obj
 0001:0002bb60       _ZwQueryVirtualMemory@24   0042cb60 f   ke:sysstubs.obj
 0001:0002bb74       _ZwQueryVolumeInformationFile@20 0042cb74 f   ke:sysstubs.obj
 0001:0002bb88       _ZwQueueApcThread@20       0042cb88 f   ke:sysstubs.obj
 0001:0002bb9c       _ZwRaiseException@12       0042cb9c f   ke:sysstubs.obj
 0001:0002bbb0       _ZwRaiseHardError@24       0042cbb0 f   ke:sysstubs.obj
 0001:0002bbc4       _ZwReadFile@36             0042cbc4 f   ke:sysstubs.obj
 0001:0002bbd8       _ZwReadFileScatter@36      0042cbd8 f   ke:sysstubs.obj
 0001:0002bbec       _ZwReadRequestData@24      0042cbec f   ke:sysstubs.obj
 0001:0002bc00       _ZwReadVirtualMemory@20    0042cc00 f   ke:sysstubs.obj
 0001:0002bc14       _ZwRegisterThreadTerminatePort@4 0042cc14 f   ke:sysstubs.obj
 0001:0002bc28       _ZwReleaseMutant@8         0042cc28 f   ke:sysstubs.obj
 0001:0002bc3c       _ZwReleaseSemaphore@12     0042cc3c f   ke:sysstubs.obj
 0001:0002bc50       _ZwRemoveIoCompletion@20   0042cc50 f   ke:sysstubs.obj
 0001:0002bc64       _ZwRemoveProcessDebug@8    0042cc64 f   ke:sysstubs.obj
 0001:0002bc78       _ZwRenameKey@8             0042cc78 f   ke:sysstubs.obj
 0001:0002bc8c       _ZwReplaceKey@12           0042cc8c f   ke:sysstubs.obj
 0001:0002bca0       _ZwReplyPort@8             0042cca0 f   ke:sysstubs.obj
 0001:0002bcb4       _ZwReplyWaitReceivePort@16 0042ccb4 f   ke:sysstubs.obj
 0001:0002bcc8       _ZwReplyWaitReceivePortEx@20 0042ccc8 f   ke:sysstubs.obj
 0001:0002bcdc       _ZwReplyWaitReplyPort@8    0042ccdc f   ke:sysstubs.obj
 0001:0002bcf0       _ZwRequestDeviceWakeup@4   0042ccf0 f   ke:sysstubs.obj
 0001:0002bd04       _ZwRequestPort@8           0042cd04 f   ke:sysstubs.obj
 0001:0002bd18       _ZwRequestWaitReplyPort@12 0042cd18 f   ke:sysstubs.obj
 0001:0002bd2c       _ZwRequestWakeupLatency@4  0042cd2c f   ke:sysstubs.obj
 0001:0002bd40       _ZwResetEvent@8            0042cd40 f   ke:sysstubs.obj
 0001:0002bd54       _ZwResetWriteWatch@12      0042cd54 f   ke:sysstubs.obj
 0001:0002bd68       _ZwRestoreKey@12           0042cd68 f   ke:sysstubs.obj
 0001:0002bd7c       _ZwResumeProcess@4         0042cd7c f   ke:sysstubs.obj
 0001:0002bd90       _ZwResumeThread@8          0042cd90 f   ke:sysstubs.obj
 0001:0002bda4       _ZwSaveKey@8               0042cda4 f   ke:sysstubs.obj
 0001:0002bdb8       _ZwSaveKeyEx@12            0042cdb8 f   ke:sysstubs.obj
 0001:0002bdcc       _ZwSaveMergedKeys@12       0042cdcc f   ke:sysstubs.obj
 0001:0002bde0       _ZwSecureConnectPort@36    0042cde0 f   ke:sysstubs.obj
 0001:0002bdf4       _ZwSetBootEntryOrder@8     0042cdf4 f   ke:sysstubs.obj
 0001:0002be08       _ZwSetBootOptions@8        0042ce08 f   ke:sysstubs.obj
 0001:0002be1c       _ZwSetContextThread@8      0042ce1c f   ke:sysstubs.obj
 0001:0002be30       _ZwSetDebugFilterState@12  0042ce30 f   ke:sysstubs.obj
 0001:0002be44       _ZwSetDefaultHardErrorPort@4 0042ce44 f   ke:sysstubs.obj
 0001:0002be58       _ZwSetDefaultLocale@8      0042ce58 f   ke:sysstubs.obj
 0001:0002be6c       _ZwSetDefaultUILanguage@4  0042ce6c f   ke:sysstubs.obj
 0001:0002be80       _ZwSetDriverEntryOrder@8   0042ce80 f   ke:sysstubs.obj
 0001:0002be94       _ZwSetEaFile@16            0042ce94 f   ke:sysstubs.obj
 0001:0002bea8       _ZwSetEvent@8              0042cea8 f   ke:sysstubs.obj
 0001:0002bebc       _ZwSetEventBoostPriority@4 0042cebc f   ke:sysstubs.obj
 0001:0002bed0       _ZwSetHighEventPair@4      0042ced0 f   ke:sysstubs.obj
 0001:0002bee4       _ZwSetHighWaitLowEventPair@4 0042cee4 f   ke:sysstubs.obj
 0001:0002bef8       _ZwSetInformationDebugObject@20 0042cef8 f   ke:sysstubs.obj
 0001:0002bf0c       _ZwSetInformationFile@20   0042cf0c f   ke:sysstubs.obj
 0001:0002bf20       _ZwSetInformationJobObject@16 0042cf20 f   ke:sysstubs.obj
 0001:0002bf34       _ZwSetInformationKey@16    0042cf34 f   ke:sysstubs.obj
 0001:0002bf48       _ZwSetInformationObject@16 0042cf48 f   ke:sysstubs.obj
 0001:0002bf5c       _ZwSetInformationProcess@16 0042cf5c f   ke:sysstubs.obj
 0001:0002bf70       _ZwSetInformationThread@16 0042cf70 f   ke:sysstubs.obj
 0001:0002bf84       _ZwSetInformationToken@16  0042cf84 f   ke:sysstubs.obj
 0001:0002bf98       _ZwSetIntervalProfile@8    0042cf98 f   ke:sysstubs.obj
 0001:0002bfac       _ZwSetIoCompletion@20      0042cfac f   ke:sysstubs.obj
 0001:0002bfc0       _ZwSetLdtEntries@24        0042cfc0 f   ke:sysstubs.obj
 0001:0002bfd4       _ZwSetLowEventPair@4       0042cfd4 f   ke:sysstubs.obj
 0001:0002bfe8       _ZwSetLowWaitHighEventPair@4 0042cfe8 f   ke:sysstubs.obj
 0001:0002bffc       _ZwSetQuotaInformationFile@16 0042cffc f   ke:sysstubs.obj
 0001:0002c010       _ZwSetSecurityObject@12    0042d010 f   ke:sysstubs.obj
 0001:0002c024       _ZwSetSystemEnvironmentValue@8 0042d024 f   ke:sysstubs.obj
 0001:0002c038       _ZwSetSystemEnvironmentValueEx@20 0042d038 f   ke:sysstubs.obj
 0001:0002c04c       _ZwSetSystemInformation@12 0042d04c f   ke:sysstubs.obj
 0001:0002c060       _ZwSetSystemPowerState@12  0042d060 f   ke:sysstubs.obj
 0001:0002c074       _ZwSetSystemTime@8         0042d074 f   ke:sysstubs.obj
 0001:0002c088       _ZwSetThreadExecutionState@8 0042d088 f   ke:sysstubs.obj
 0001:0002c09c       _ZwSetTimer@28             0042d09c f   ke:sysstubs.obj
 0001:0002c0b0       _ZwSetTimerResolution@12   0042d0b0 f   ke:sysstubs.obj
 0001:0002c0c4       _ZwSetUuidSeed@4           0042d0c4 f   ke:sysstubs.obj
 0001:0002c0d8       _ZwSetValueKey@24          0042d0d8 f   ke:sysstubs.obj
 0001:0002c0ec       _ZwSetVolumeInformationFile@20 0042d0ec f   ke:sysstubs.obj
 0001:0002c100       _ZwShutdownSystem@4        0042d100 f   ke:sysstubs.obj
 0001:0002c114       _ZwSignalAndWaitForSingleObject@16 0042d114 f   ke:sysstubs.obj
 0001:0002c128       _ZwStartProfile@4          0042d128 f   ke:sysstubs.obj
 0001:0002c13c       _ZwStopProfile@4           0042d13c f   ke:sysstubs.obj
 0001:0002c150       _ZwSuspendProcess@4        0042d150 f   ke:sysstubs.obj
 0001:0002c164       _ZwSuspendThread@8         0042d164 f   ke:sysstubs.obj
 0001:0002c178       _ZwSystemDebugControl@24   0042d178 f   ke:sysstubs.obj
 0001:0002c18c       _ZwTerminateJobObject@8    0042d18c f   ke:sysstubs.obj
 0001:0002c1a0       _ZwTerminateProcess@8      0042d1a0 f   ke:sysstubs.obj
 0001:0002c1b4       _ZwTerminateThread@8       0042d1b4 f   ke:sysstubs.obj
 0001:0002c1c8       _ZwTestAlert@0             0042d1c8 f   ke:sysstubs.obj
 0001:0002c1dc       _ZwTraceEvent@16           0042d1dc f   ke:sysstubs.obj
 0001:0002c1f0       _ZwTranslateFilePath@16    0042d1f0 f   ke:sysstubs.obj
 0001:0002c204       _ZwUnloadDriver@4          0042d204 f   ke:sysstubs.obj
 0001:0002c218       _ZwUnloadKey@4             0042d218 f   ke:sysstubs.obj
 0001:0002c22c       _ZwUnloadKey2@8            0042d22c f   ke:sysstubs.obj
 0001:0002c240       _ZwUnloadKeyEx@8           0042d240 f   ke:sysstubs.obj
 0001:0002c254       _ZwUnlockFile@20           0042d254 f   ke:sysstubs.obj
 0001:0002c268       _ZwUnlockVirtualMemory@16  0042d268 f   ke:sysstubs.obj
 0001:0002c27c       _ZwUnmapViewOfSection@8    0042d27c f   ke:sysstubs.obj
 0001:0002c290       _ZwVdmControl@8            0042d290 f   ke:sysstubs.obj
 0001:0002c2a4       _ZwWaitForDebugEvent@16    0042d2a4 f   ke:sysstubs.obj
 0001:0002c2b8       _ZwWaitForMultipleObjects@20 0042d2b8 f   ke:sysstubs.obj
 0001:0002c2cc       _ZwWaitForSingleObject@12  0042d2cc f   ke:sysstubs.obj
 0001:0002c2e0       _ZwWaitHighEventPair@4     0042d2e0 f   ke:sysstubs.obj
 0001:0002c2f4       _ZwWaitLowEventPair@4      0042d2f4 f   ke:sysstubs.obj
 0001:0002c308       _ZwWriteFile@36            0042d308 f   ke:sysstubs.obj
 0001:0002c31c       _ZwWriteFileGather@36      0042d31c f   ke:sysstubs.obj
 0001:0002c330       _ZwWriteRequestData@24     0042d330 f   ke:sysstubs.obj
 0001:0002c344       _ZwWriteVirtualMemory@20   0042d344 f   ke:sysstubs.obj
 0001:0002c358       _ZwYieldExecution@0        0042d358 f   ke:sysstubs.obj
 0001:0002c36c       _ZwCreateKeyedEvent@16     0042d36c f   ke:sysstubs.obj
 0001:0002c380       _ZwOpenKeyedEvent@12       0042d380 f   ke:sysstubs.obj
 0001:0002c394       _ZwReleaseKeyedEvent@16    0042d394 f   ke:sysstubs.obj
 0001:0002c3a8       _ZwWaitForKeyedEvent@16    0042d3a8 f   ke:sysstubs.obj
 0001:0002c3bc       _ZwQueryPortInformationProcess@0 0042d3bc f   ke:sysstubs.obj
 0001:0002c3d0       _ZwGetCurrentProcessorNumber@0 0042d3d0 f   ke:sysstubs.obj
 0001:0002c3e4       _ZwWaitForMultipleObjects32@20 0042d3e4 f   ke:sysstubs.obj
 0001:0002c3fe       @KeInitializeGate@4        0042d3fe f   ke:gateobj.obj
 0001:0002c418       @KeSignalGateBoostPriority@4 0042d418 f   ke:gateobj.obj
 0001:0002c560       @KeWaitForGate@12          0042d560 f   ke:gateobj.obj
 0001:0002c6fa       _KiInitializeTSS@4         0042d6fa f   ke:kernlini.obj
 0001:0002c720       _KiLockStepProcessor@16    0042d720 f   ke:kernlini.obj
 0001:0002c738       _KiLockStepOtherProcessors@4 0042d738 f   ke:kernlini.obj
 0001:0002c7ee       _KeOptimizeProcessorControlState@0 0042d7ee f   ke:kernlini.obj
 0001:0002c7f8       @KiExitDispatcher@4        0042d7f8 f   ke:waitsup.obj
 0001:0002c930       @KiUnwaitThread@12         0042d930 f   ke:waitsup.obj
 0001:0002c9de       @KiWaitTest@8              0042d9de f   ke:waitsup.obj
 0001:0002ca8e       _KiSuspendNop@20           0042da8e f   ke:thredsup.obj
 0001:0002ca96       @KiDeferredReadyThread@4   0042da96 f   ke:thredsup.obj
 0001:0002cf58       @KiFindReadyThread@8       0042df58 f   ke:thredsup.obj
 0001:0002cfe2       @KiProcessDeferredReadyList@4 0042dfe2 f   ke:thredsup.obj
 0001:0002d004       @KiSelectNextThread@4      0042e004 f   ke:thredsup.obj
 0001:0002d080       _KiSetInternalEvent@8      0042e080 f   ke:thredsup.obj
 0001:0002d0ac       @KiSetPriorityThread@8     0042e0ac f   ke:thredsup.obj
 0001:0002d32a       _KiSuspendThread@12        0042e32a f   ke:thredsup.obj
 0001:0002d34a       @KiSwapThread@8            0042e34a f   ke:thredsup.obj
 0001:0002d5f8       _KeFindNextRightSetAffinity@8 0042e5f8 f   ke:thredsup.obj
 0001:0002d620       @KiQueueReadyThread@8      0042e620 f   ke:thredsup.obj
 0001:0002d6ac       @KiReadyThread@4           0042e6ac f   ke:thredsup.obj
 0001:0002d760       @KiSetAffinityThread@8     0042e760 f   ke:thredsup.obj
 0001:0002da88       _KiSaveProcessorState@8    0042ea88 f   ke:procstat.obj
 0001:0002dab0       _KiSaveProcessorControlState@4 0042eab0 f   ke:procstat.obj
 0001:0002db44       _KiRestoreProcessorState@8 0042eb44 f   ke:procstat.obj
 0001:0002db74       _KiRestoreProcessorControlState@4 0042eb74 f   ke:procstat.obj
 0001:0002dc1a       _KeInitializeProfile@32    0042ec1a f   ke:profobj.obj
 0001:0002dc7a       _KeSetIntervalProfile@8    0042ec7a f   ke:profobj.obj
 0001:0002dcd8       _KiStopProfileInterrupt@16 0042ecd8 f   ke:profobj.obj
 0001:0002dd18       _KiStartProfileInterrupt@16 0042ed18 f   ke:profobj.obj
 0001:0002dd58       _KeStartProfile@8          0042ed58 f   ke:profobj.obj
 0001:0002df42       _KeStopProfile@4           0042ef42 f   ke:profobj.obj
 0001:0002e098       _KiDummyNmiHandler@0       0042f098 f   ke:allproc.obj
 0001:0002e0ae       _KiDummyDoubleFaultHandler@0 0042f0ae f   ke:allproc.obj
 0001:0002e0c4       _KiSetHaltedNmiandDoubleFaultHandler@0 0042f0c4 f   ke:allproc.obj
 0001:0002e134       _KiProcessorStart@0        0042f134 f   ke:allproc.obj
 0001:0002e198       _KiContinuePreviousModeUser@12 0042f198 f   ke:raisexcp.obj
 0001:0002e204       _KiContinue@12             0042f204 f   ke:raisexcp.obj
 0001:0002e294       _KiRaiseException@20       0042f294 f   ke:raisexcp.obj
 0001:0002e3ec       _KiNextIStreamByte@8       0042f3ec f   ke:trapc.obj
 0001:0002e424       _KipWorkAroundCompiler@8   0042f424 f   ke:trapc.obj
 0001:0002e46a       @KiCheckForSListAddress@4  0042f46a f   ke:trapc.obj
 0001:0002e4a8       @KeInvalidAccessAllowed@4  0042f4a8 f   ke:trapc.obj
 0001:0002e4d4       _Ki386CheckDelayedNpxTrap@8 0042f4d4 f   ke:trapc.obj
 0001:0002e808       _KiCallUserMode@8          0042f808 f   ke:callout.obj
 0001:0002e908       _KeSwitchKernelStack@8     0042f908 f   ke:callout.obj
 0001:0002e984       _KiGetUserModeStackAddress@0 0042f984 f   ke:callout.obj
 0001:0002e994       _NtCallbackReturn@12       0042f994 f   ke:callout.obj
 0001:0002eaae       _KeFreezeExecution@8       0042faae f   ke:debug.obj
 0001:0002ebee       _KiFreezeTargetExecution@8 0042fbee f   ke:debug.obj
 0001:0002ecf2       _KeSwitchFrozenProcessor@4 0042fcf2 f   ke:debug.obj
 0001:0002ed5a       _KeThawExecution@4         0042fd5a f   ke:debug.obj
 0001:0002ee02       _KiPollFreezeExecution@0   0042fe02 f   ke:debug.obj
 0001:0002ee2c       _KiPassiveRelease@0        0042fe2c f   ke:int.obj
 0001:0002ee30       _KeDisableInterrupts@0     0042fe30 f   ke:int.obj
 0001:0002ee42       _KiExecuteDpc@4            0042fe42 f   ke:dpcsup.obj
 0001:0002efae       _KiQuantumEnd@0            0042ffae f   ke:dpcsup.obj
 0001:0002f19c       _KiTimerExpiration@16      0043019c f   ke:dpcsup.obj
 0001:0002f736       @KiTimerListExpire@8       00430736 f   ke:dpcsup.obj
 0001:0002fa56       @KiRetireDpcList@4         00430a56 f   ke:dpcsup.obj
 0001:0002fba4       @KiInsertTimerTable@8      00430ba4 f   ke:timersup.obj
 0001:0002fc40       @KiSignalTimer@4           00430c40 f   ke:timersup.obj
 0001:0002fdfc       @KiCompleteTimer@8         00430dfc f   ke:timersup.obj
 0001:0002fe90       _RDTSC@0                   00430e90 f   ke:cpu.obj
 0001:0002fe94       @RDMSR@4                   00430e94 f   ke:cpu.obj
 0001:0002fe98       _WRMSR@12                  00430e98 f   ke:cpu.obj
 0001:0002feac       _KeYieldProcessor@0        00430eac f   ke:cpu.obj
 0001:0002feb4       _NtYieldExecution@0        00430eb4 f   ke:yield.obj
 0001:00030084       _KiInitializeContextThread@20 00431084 f   ke:thredini.obj
 0001:000302a0       _KiEm87StateToNpxFrame@4   004312a0 f   ke:emxcptn.obj
 0001:00030444       _KiNpxFrameToEm87State@4   00431444 f   ke:emxcptn.obj
 0001:000306c6       _KiEmulateAtlThunk@20      004316c6 f   ke:thkemul.obj
 0001:000308d4       _KeRestorePAT@0            004318d4 f   ke:pat.obj
 0001:000308e8       _KeRestoreMtrr@0           004318e8 f   ke:mtrr.obj
 0001:00030964       _KeSetPhysicalCacheTypeRange@16 00431964 f   ke:mtrr.obj
 0001:00030b20       _KiServiceTable            00431b20     ke:systable.obj
 0001:00030fc0       _KiServiceLimit            00431fc0     ke:systable.obj
 0001:00030fc4       _KiArgumentTable           00431fc4     ke:systable.obj
 0001:000310f2       _KiInitializeUserApc@24    004320f2 f   ke:apcuser.obj
 0001:0003125e       @KiIdleSchedule@4          0043225e f   ke:idsched.obj
 0001:00031484       @KiXMMIZeroPagesNoSave@8   00432484 f   ke:zero.obj
 0001:000314a8       @KiXMMIZeroPages@8         004324a8 f   ke:zero.obj
 0001:0003152c       @KiZeroPages@8             0043252c f   ke:zero.obj
 0001:00031540       _KiAmdK6MtrrWRMSR@0        00432540 f   ke:mtrramd.obj
 0001:0003155c       @KeAcquireGuardedMutexUnsafe@4 0043255c f i mm:umapview.obj
 0001:00031594       @KeReleaseGuardedMutexUnsafe@4 00432594 f i mm:umapview.obj
 0001:000315c6       _MiDecrementSubsections@8  004325c6 f   mm:umapview.obj
 0001:00031668       _MiRemoveMappedView@8      00432668 f   mm:umapview.obj
 0001:00031b98       _MiPurgeImageSection@8     00432b98 f   mm:umapview.obj
 0001:00031e26       _MiUnmapViewOfSection@12   00432e26 f   mm:umapview.obj
 0001:000321a2       _KeAreAllApcsDisabled@0    004331a2 f i mm:flushsec.obj
 0001:000321c4       _MiFlushAcquire@4          004331c4 f   mm:flushsec.obj
 0001:000321ea       _MiFlushRelease@4          004331ea f   mm:flushsec.obj
 0001:00032212       _MiFlushComplete@12        00433212 f   mm:flushsec.obj
 0001:0003243a       _MmFlushImageSection@8     0043343a f   mm:flushsec.obj
 0001:0003254a       _MiFlushDirtyBitsToPfn@16  0043354a f   mm:flushsec.obj
 0001:000326d4       _MiCheckProtoPtePageState@12 004336d4 f   mm:flushsec.obj
 0001:0003275c       _MiFlushSectionInternal@24 0043375c f   mm:flushsec.obj
 0001:000332b2       _MmPurgeSection@16         004342b2 f   mm:flushsec.obj
 0001:0003386c       _MmFlushVirtualMemory@16   0043486c f   mm:flushsec.obj
 0001:00033d3a       _MmFlushSection@20         00434d3a f   mm:flushsec.obj
 0001:00033fe4       _KeFlushEntireTb@8         00434fe4 f i mm:wsmanage.obj
 0001:00033ff2       _MiObtainFreePages@0       00434ff2 f   mm:wsmanage.obj
 0001:00034038       _MiAttachAndLockWorkingSet@4 00435038 f   mm:wsmanage.obj
 0001:000341ba       _MiDetachAndUnlockWorkingSet@4 004351ba f   mm:wsmanage.obj
 0001:00034250       _MiDetermineTrimAmount@8   00435250 f   mm:wsmanage.obj
 0001:00034340       _MiCaptureAndResetWorkingSetAccessBits@8 00435340 f   mm:wsmanage.obj
 0001:00034406       _MiAgeWorkingSet@20        00435406 f   mm:wsmanage.obj
 0001:000346a2       _MiAdjustClaimParameters@4 004356a2 f   mm:wsmanage.obj
 0001:00034778       _MiRearrangeWorkingSetExpansionList@0 00435778 f   mm:wsmanage.obj
 0001:000348fc       _MiQueueWorkingSetRequest@4 004358fc f   mm:wsmanage.obj
 0001:0003495a       _MmEmptyAllWorkingSets@0   0043595a f   mm:wsmanage.obj
 0001:00034970       _MiTrimAllSystemPageableMemory@8 00435970 f   mm:wsmanage.obj
 0001:00034c02       _MiComputeSystemTrimCriteria@4 00435c02 f   mm:wsmanage.obj
 0001:00034d04       _MiCheckSystemTrimEndCriteria@8 00435d04 f   mm:wsmanage.obj
 0001:00034d8e       _MiProcessWorkingSets@8    00435d8e f   mm:wsmanage.obj
 0001:00034fb4       _MmTrimAllSystemPageableMemory@4 00435fb4 f   mm:wsmanage.obj
 0001:00035176       _MmWorkingSetManager@0     00436176 f   mm:wsmanage.obj
 0001:000351e6       _MmEnforceWorkingSetLimit@8 004361e6 f   mm:wslist.obj
 0001:00035356       _MiReleaseWsle@8           00436356 f   mm:wslist.obj
 0001:00035394       _MiUpdateWsle@20           00436394 f   mm:wslist.obj
 0001:0003553e       _MmQueryWorkingSetInformation@20 0043653e f   mm:wslist.obj
 0001:0003560c       _MmQuerySystemCacheWorkingSetInformation@4 0043660c f   mm:wslist.obj
 0001:000356f4       _MiAddWorkingSetPage@4     004366f4 f   mm:wslist.obj
 0001:0003590e       _MiFreeWsleList@8          0043690e f   mm:wslist.obj
 0001:00035c6e       _MiEliminateWorkingSetEntry@20 00436c6e f   mm:wslist.obj
 0001:00035ec0       _MiRemoveWorkingSetPages@4 00436ec0 f   mm:wslist.obj
 0001:00036146       _MiEmptyWorkingSet@8       00437146 f   mm:wslist.obj
 0001:00036354       _MiRemovePageFromWorkingSet@12 00437354 f   mm:wslist.obj
 0001:000363ce       _MiFreeWsle@12             004373ce f   mm:wslist.obj
 0001:00036464       _MiTrimWorkingSet@12       00437464 f   mm:wslist.obj
 0001:00036588       _MiReplaceWorkingSetEntry@8 00437588 f   mm:wslist.obj
 0001:000366a2       _MiDoReplacement@8         004376a2 f   mm:wslist.obj
 0001:0003682c       _MiAllocateWsle@16         0043782c f   mm:wslist.obj
 0001:00036928       _MiAddWsleHash@8           00437928 f   mm:wslist.obj
 0001:00036ade       _MiGrowWsleHash@4          00437ade f   mm:wslist.obj
 0001:00036d34       _MiAddMdlTracker@20        00437d34 f   mm:iosup.obj
 0001:00036e12       _MiFreeMdlTracker@8        00437e12 f   mm:iosup.obj
 0001:00036eb8       _MmUpdateMdlTracker@12     00437eb8 f   mm:iosup.obj
 0001:00036f24       _MiUpdateMdlTracker@8      00437f24 f   mm:iosup.obj
 0001:00036f90       _MiDecrementReferenceCountForAwePage@8 00437f90 f   mm:iosup.obj
 0001:0003702c       _MiReferenceIoSpace@8      0043802c f   mm:iosup.obj
 0001:0003709a       _MiDereferenceIoSpace@4    0043809a f   mm:iosup.obj
 0001:00037106       _MmIsIoSpaceActive@12      00438106 f   mm:iosup.obj
 0001:000371b6       _MiDeferredUnlockPages@4   004381b6 f   mm:iosup.obj
 0001:0003748e       _MmBuildMdlForNonPagedPool@4 0043848e f   mm:iosup.obj
 0001:0003755a       _MiInsertPteTracker@24     0043855a f   mm:iosup.obj
 0001:000376b8       _MiRemovePteTracker@12     004386b8 f   mm:iosup.obj
 0001:000377c8       _MiGetHighestPteConsumer@4 004387c8 f   mm:iosup.obj
 0001:000378a8       _MiInsertIoSpaceMap@16     004388a8 f   mm:iosup.obj
 0001:0003796a       _MiRemoveIoSpaceMap@8      0043896a f   mm:iosup.obj
 0001:000379ee       _MiMapSinglePage@16        004389ee f   mm:iosup.obj
 0001:00037b8c       _MmMapLockedPages@8        00438b8c f   mm:iosup.obj
 0001:00037bac       _MiUnmapSinglePage@4       00438bac f   mm:iosup.obj
 0001:00037bd2       _MmMapLockedPagesWithReservedMapping@16 00438bd2 f   mm:iosup.obj
 0001:00037eba       _MmUnmapReservedMapping@12 00438eba f   mm:iosup.obj
 0001:00038006       _MmAdvanceMdl@8            00439006 f   mm:iosup.obj
 0001:0003835e       _MmProtectMdlSystemAddress@8 0043935e f   mm:iosup.obj
 0001:00038648       _MiCheckSystemPteProtection@8 00439648 f   mm:iosup.obj
 0001:000386f0       _MiCreatePhysicalVadRoot@8 004396f0 f   mm:iosup.obj
 0001:0003881a       _MiPhysicalViewRemover@8   0043981a f   mm:iosup.obj
 0001:0003894c       _MiPhysicalViewAdjuster@12 0043994c f   mm:iosup.obj
 0001:0003897a       _MiMapLockedPagesInUserSpace@16 0043997a f   mm:iosup.obj
 0001:00038fe0       _MiMapWithLargePages@16    00439fe0 f   mm:iosup.obj
 0001:000391ee       _MiUnmapLargePages@8       0043a1ee f   mm:iosup.obj
 0001:00039312       _MmMapIoSpace@16           0043a312 f   mm:iosup.obj
 0001:00039688       _MmUnmapIoSpace@8          0043a688 f   mm:iosup.obj
 0001:000397c4       _MmFreeContiguousMemory@4  0043a7c4 f   mm:iosup.obj
 0001:00039904       _MmFreeContiguousMemorySpecifyCache@12 0043a904 f   mm:iosup.obj
 0001:00039918       _MmGetPhysicalAddress@4    0043a918 f   mm:iosup.obj
 0001:00039992       _MmGetVirtualForPhysical@8 0043a992 f   mm:iosup.obj
 0001:000399c8       _MmSizeOfMdl@8             0043a9c8 f   mm:iosup.obj
 0001:000399f0       _MmCreateMdl@12            0043a9f0 f   mm:iosup.obj
 0001:00039a5a       _MmSetAddressRangeModified@8 0043aa5a f   mm:iosup.obj
 0001:00039b62       _MiCheckForContiguousMemory@28 0043ab62 f   mm:iosup.obj
 0001:00039d6c       _MiLockCode@12             0043ad6c f   mm:iosup.obj
 0001:0003a4a0       _MmUnlockPageableImageSection@4 0043b4a0 f   mm:iosup.obj
 0001:0003a684       _MmIsRecursiveIoFault@0    0043b684 f   mm:iosup.obj
 0001:0003a6a2       _MmMapMemoryDumpMdl@4      0043b6a2 f   mm:iosup.obj
 0001:0003a78e       _MmUnlockPages@4           0043b78e f   mm:iosup.obj
 0001:0003b05e       _MiAllocateContiguousMemory@24 0043c05e f   mm:iosup.obj
 0001:0003b0f0       _MmAllocateContiguousMemorySpecifyCache@32 0043c0f0 f   mm:iosup.obj
 0001:0003b174       _MmAllocateContiguousMemory@12 0043c174 f   mm:iosup.obj
 0001:0003b1ba       _MmProbeAndLockPages@12    0043c1ba f   mm:iosup.obj
 0001:0003c1c8       _MmProbeAndLockSelectedPages@16 0043d1c8 f   mm:iosup.obj
 0001:0003d02e       _MiSegmentDelete@4         0043e02e f   mm:sectsup.obj
 0001:0003d44e       _MiCleanSection@8          0043e44e f   mm:sectsup.obj
 0001:0003dd6a       _MiCheckControlArea@8      0043ed6a f   mm:sectsup.obj
 0001:0003df10       _MiCheckForControlAreaDeletion@4 0043ef10 f   mm:sectsup.obj
 0001:0003dfb0       _MiCanFileBeTruncatedInternal@16 0043efb0 f   mm:sectsup.obj
 0001:0003e0ea       _MmPerfUnusedSegmentsEnumerate@0 0043f0ea f   mm:sectsup.obj
 0001:0003e1aa       _MiRemoveUnusedSegments@0  0043f1aa f   mm:sectsup.obj
 0001:0003eb3c       _MiDereferenceControlAreaBySection@8 0043fb3c f   mm:sectsup.obj
 0001:0003eb6a       _MiDereferenceSegmentThread@4 0043fb6a f   mm:sectsup.obj
 0001:0003ec42       _MiCheckControlAreaStatus@20 0043fc42 f   mm:sectsup.obj
 0001:0003edb0       _MmCanFileBeTruncated@8    0043fdb0 f   mm:sectsup.obj
 0001:0003edf8       _MmForceSectionClosed@8    0043fdf8 f   mm:sectsup.obj
 0001:0003ee48       _MiResidentPagesForSpan@8  0043fe48 f   mm:allocvm.obj
 0001:0003ee92       _MiCreatePageTablesForPhysicalRange@12 0043fe92 f   mm:allocvm.obj
 0001:0003efa0       _MiDeletePageTablesForPhysicalRange@8 0043ffa0 f   mm:allocvm.obj
 0001:0003f0e2       _NtAllocateVirtualMemory@24 004400e2 f   mm:allocvm.obj
 0001:00040962       _MiUpdateLargeProtoPfns@16 00441962 f   mm:creasect.obj
 0001:00040a48       _MiGetPageForHeader@4      00441a48 f   mm:creasect.obj
 0001:00040b0c       _MiUpdateImageHeaderPage@16 00441b0c f   mm:creasect.obj
 0001:00040b88       _MiRemoveImageHeaderPage@4 00441b88 f   mm:creasect.obj
 0001:00040bc8       _MiFindImageSectionObject@12 00441bc8 f   mm:creasect.obj
 0001:00040c4c       _MiInsertImageSectionObject@8 00441c4c f   mm:creasect.obj
 0001:00040cb0       _MiRemoveImageSectionObject@8 00441cb0 f   mm:creasect.obj
 0001:00040d08       _MiFlushDataSection@4      00441d08 f   mm:creasect.obj
 0001:00040d8a       _MiCopyHeaderIfResident@8  00441d8a f   mm:creasect.obj
 0001:00040ed6       _MmCreateSection@32        00441ed6 f   mm:creasect.obj
 0001:000418f0       _MiReleaseModifiedWriter@0 004428f0 f   mm:modwrite.obj
 0001:00041914       _MmIsFileObjectAPagingFile@4 00442914 f   mm:modwrite.obj
 0001:0004194e       _MiExtendPagingFileMaximum@8 0044294e f   mm:modwrite.obj
 0001:00041a08       _MiFinishPageFileExtension@8 00442a08 f   mm:modwrite.obj
 0001:00041a56       _MiContractPagingFiles@0   00442a56 f   mm:modwrite.obj
 0001:00041b28       _MiAttemptPageFileReduction@0 00442b28 f   mm:modwrite.obj
 0001:00041d10       _MiWriteComplete@12        00442d10 f   mm:modwrite.obj
 0001:0004217e       _MiCancelWriteOfMappedPfn@8 0044317e f   mm:modwrite.obj
 0001:0004220e       _MiModifiedPageWriterTimerDispatch@16 0044320e f   mm:modwrite.obj
 0001:0004224e       _MiGatherMappedPages@4     0044324e f   mm:modwrite.obj
 0001:0004270c       _MiMappedPageWriter@4      0044370c f   mm:modwrite.obj
 0001:00042878       _MmDisableModifiedWriteOfSection@4 00443878 f   mm:modwrite.obj
 0001:000428c0       _MmEnableModifiedWriteOfSection@4 004438c0 f   mm:modwrite.obj
 0001:00042984       _MiCheckPageFileMapping@4  00443984 f   mm:modwrite.obj
 0001:000429c2       _MiInsertPageFileInList@0  004439c2 f   mm:modwrite.obj
 0001:00042a72       _MiPageFileFull@0          00443a72 f   mm:modwrite.obj
 0001:00042b08       _MiFlushAllPages@0         00443b08 f   mm:modwrite.obj
 0001:00042b5e       _MiIssuePageExtendRequest@4 00443b5e f   mm:modwrite.obj
 0001:00042c6e       _MiIssuePageExtendRequestNoWait@4 00443c6e f   mm:modwrite.obj
 0001:00042cf4       _MiGatherPagefilePages@8   00443cf4 f   mm:modwrite.obj
 0001:000431d4       _MiModifiedPageWriterWorker@0 004441d4 f   mm:modwrite.obj
 0001:00043428       _MiProcessLoaderEntry@8    00444428 f   mm:sysload.obj
 0001:000434a0       _MiInitializeDriverLargePageList@0 004444a0 f   mm:sysload.obj
 0001:000435bc       _MiReturnFailedSessionPages@8 004445bc f   mm:sysload.obj
 0001:00043632       _MiChargeResidentAvailable@8 00444632 f   mm:sysload.obj
 0001:0004368c       _MiFlushPteListFreePfns@8  0044468c f   mm:sysload.obj
 0001:0004377c       _MiSetPagingOfDriver@8     0044477c f   mm:sysload.obj
 0001:000438be       _MmLocateUnloadedDriver@4  004448be f   mm:sysload.obj
 0001:00043910       _MiDeleteSystemPageableVm@16 00444910 f   mm:sysload.obj
 0001:00043e04       _MiSetSystemCodeProtection@12 00444e04 f   mm:sysload.obj
 0001:00044472       _MmMakeKernelResourceSectionWritable@0 00445472 f   mm:sysload.obj
 0001:000444ce       _MmFreeDriverInitialization@4 004454ce f   mm:sysload.obj
 0001:000445b4       _MmDeleteProcessAddressSpace@4 004455b4 f   mm:procsup.obj
 0001:000447d6       _MiDeletePteRange@16       004457d6 f   mm:procsup.obj
 0001:00044a0e       _MiUnlinkWorkingSet@4      00445a0e f   mm:procsup.obj
 0001:00044aac       _MmCreateKernelStack@8     00445aac f   mm:procsup.obj
 0001:00044c8c       _MmDeleteKernelStack@8     00445c8c f   mm:procsup.obj
 0001:00044e2e       _MmGrowKernelStackEx@8     00445e2e f   mm:procsup.obj
 0001:00044f80       _MiOutPageSingleKernelStack@12 00445f80 f   mm:procsup.obj
 0001:00045198       _MmOutPageKernelStack@4    00446198 f   mm:procsup.obj
 0001:00045244       _MmOutSwapProcess@4        00446244 f   mm:procsup.obj
 0001:0004557c       _MiCreatePebOrTeb@12       0044657c f   mm:procsup.obj
 0001:00045854       _MmDeleteTeb@8             00446854 f   mm:procsup.obj
 0001:00045a3e       _MiAllowWorkingSetExpansion@4 00446a3e f   mm:procsup.obj
 0001:00045a80       _MiDeletePteList@8         00446a80 f   mm:procsup.obj
 0001:00045c94       _MiMakeOutswappedPageResident@20 00446c94 f   mm:procsup.obj
 0001:000460a4       _MiSetMemoryPriorityProcess@8 004470a4 f   mm:procsup.obj
 0001:000460de       _MmInitializeProcessAddressSpace@20 004470de f   mm:procsup.obj
 0001:000465aa       _MmGrowKernelStack@4       004475aa f   mm:procsup.obj
 0001:000465c4       _MiInPageSingleKernelStack@8 004475c4 f   mm:procsup.obj
 0001:00046720       _MmInPageKernelStack@4     00447720 f   mm:procsup.obj
 0001:00046760       _MmInSwapProcess@4         00447760 f   mm:procsup.obj
 0001:00046a90       _MiDeleteAddressesInWorkingSet@4 00447a90 f   mm:procsup.obj
 0001:00046c00       _MmCleanProcessAddressSpace@4 00447c00 f   mm:procsup.obj
 0001:0004730c       @MiCheckPdeForSessionSpace@4 0044830c f   mm:pagfault.obj
 0001:000473f2       _MiIsAddressValid@8        004483f2 f   mm:pagfault.obj
 0001:0004743e       _MmIsAddressValid@4        0044843e f   mm:pagfault.obj
 0001:00047454       _MiInitializePfnForOtherProcess@12 00448454 f   mm:pagfault.obj
 0001:000474f0       _MiAddValidPageToWorkingSet@16 004484f0 f   mm:pagfault.obj
 0001:00047566       _MiGetInPageSupportBlock@8 00448566 f   mm:pagfault.obj
 0001:0004761c       _MiFreeInPageSupportBlock@4 0044861c f   mm:pagfault.obj
 0001:0004768e       _MiHandleBankedSection@8   0044868e f   mm:pagfault.obj
 0001:00047710       _MiCheckVirtualAddress@12  00448710 f   mm:pagfault.obj
 0001:000478de       @MiCheckPdeForPagedPool@4  004488de f   mm:pagfault.obj
 0001:00047976       _MiInitializePfn@12        00448976 f   mm:pagfault.obj
 0001:00047a9a       _MiInitializePfnAndMakePteValid@12 00448a9a f   mm:pagfault.obj
 0001:00047bd0       _MiInitializeReadInProgressSinglePfn@16 00448bd0 f   mm:pagfault.obj
 0001:00047d74       _MiInitializeReadInProgressPfn@16 00448d74 f   mm:pagfault.obj
 0001:00047f8c       _MiInitializeTransitionPfn@8 00448f8c f   mm:pagfault.obj
 0001:0004805c       _MiInitializeCopyOnWritePfn@16 0044905c f   mm:pagfault.obj
 0001:00048178       _MiTrimPte@20              00449178 f   mm:pagfault.obj
 0001:000483b2       _MiResolveDemandZeroFault@16 004493b2 f   mm:pagfault.obj
 0001:00048636       _MiResolvePageFileFault@24 00449636 f   mm:pagfault.obj
 0001:00048a2a       _MiCompleteProtoPteFault@24 00449a2a f   mm:pagfault.obj
 0001:00048e0a       _MiResolveMappedFileFault@16 00449e0a f   mm:pagfault.obj
 0001:000492a0       _MiFindActualFaultingPte@4 0044a2a0 f   mm:pagfault.obj
 0001:0004933e       _MiWaitForInPageComplete@24 0044a33e f   mm:pagfault.obj
 0001:00049702       _MiResolveTransitionFault@20 0044a702 f   mm:pagfault.obj
 0001:00049c6a       _MiResolveProtoPteFault@40 0044ac6a f   mm:pagfault.obj
 0001:00049ebc       _MiDispatchFault@32        0044aebc f   mm:pagfault.obj
 0001:0004b346       @MiIsPteProtectionCompatible@8 0044c346 f   mm:mmsup.obj
 0001:0004b368       @MiMakeProtectionMask@4    0044c368 f   mm:mmsup.obj
 0001:0004b3e2       @MiMakeSystemAddressValid@8 0044c3e2 f   mm:mmsup.obj
 0001:0004b58e       @MiMakeSystemAddressValidPfnWs@12 0044c58e f   mm:mmsup.obj
 0001:0004b74c       @MiMakeSystemAddressValidPfnSystemWs@8 0044c74c f   mm:mmsup.obj
 0001:0004b88c       @MiMakeSystemAddressValidPfn@8 0044c88c f   mm:mmsup.obj
 0001:0004b8ee       @MiLockPagedAddress@4      0044c8ee f   mm:mmsup.obj
 0001:0004b9ae       @MiUnlockPagedAddress@4    0044c9ae f   mm:mmsup.obj
 0001:0004baa0       @MiZeroPhysicalPage@4      0044caa0 f   mm:mmsup.obj
 0001:0004baf8       @MiRestoreTransitionPte@4  0044caf8 f   mm:mmsup.obj
 0001:0004bc80       _MmIsNonPagedSystemAddressValid@4 0044cc80 f   mm:mmsup.obj
 0001:0004bcce       @MiIsProtectionCompatible@8 0044ccce f   mm:mmsup.obj
 0001:0004bd02       _MiMakePdeExistAndMakeValid@12 0044cd02 f   mm:mmsup.obj
 0001:0004bda8       _MmFreeBootRegistry@0      0044cda8 f   mm:mminit.obj
 0001:0004be9e       _MmQuerySystemSize@0       0044ce9e f   mm:mminit.obj
 0001:0004beaa       _MmIsThisAnNtAsSystem@0    0044ceaa f   mm:mminit.obj
 0001:0004beb6       @MmSetPageFaultNotifyRoutine@4 0044ceb6 f   mm:mminit.obj
 0001:0004bec2       _MiNotifyMemoryEvents@0    0044cec2 f   mm:mminit.obj
 0001:0004bf54       _MiIssueNoPtesBugcheck@8   0044cf54 f   mm:sysptes.obj
 0001:0004bfa2       _MiIncrementSystemPtes@4   0044cfa2 f   mm:sysptes.obj
 0001:0004bfb8       _MiCheckPteReserve@8       0044cfb8 f   mm:sysptes.obj
 0001:0004c0dc       _MiCheckPteRelease@8       0044d0dc f   mm:sysptes.obj
 0001:0004c2ac       _MiAddExtraSystemPteRanges@8 0044d2ac f   mm:sysptes.obj
 0001:0004c388       _MmGetNumberOfFreeSystemPtes@0 0044d388 f   mm:sysptes.obj
 0001:0004c3f2       _MiReleaseSplitSystemPtes@12 0044d3f2 f   mm:sysptes.obj
 0001:0004c4b4       _MiAddSystemPtes@12        0044d4b4 f   mm:sysptes.obj
 0001:0004c50a       _MiRecoverExtraPtes@4      0044d50a f   mm:sysptes.obj
 0001:0004c5b0       _MmUnmapLockedPages@8      0044d5b0 f   mm:sysptes.obj
 0001:0004c6d0       _MiGetSystemPteAvailability@8 0044d6d0 f   mm:sysptes.obj
 0001:0004c756       _MmMapLockedPagesSpecifyCache@24 0044d756 f   mm:sysptes.obj
 0001:0004cb5a       _MiInsertPhysicalViewAndRefControlArea@12 0044db5a f   mm:mapview.obj
 0001:0004cd00       _MiCheckCacheAttributes@12 0044dd00 f   mm:mapview.obj
 0001:0004cdfc       _MiMapViewOfPhysicalSection@32 0044ddfc f   mm:mapview.obj
 0001:0004d2f8       _MiSetControlAreaSymbolsLoaded@4 0044e2f8 f   mm:mapview.obj
 0001:0004d320       _MiDereferenceControlArea@4 0044e320 f   mm:mapview.obj
 0001:0004d34c       _MiReferenceSubsection@4   0044e34c f   mm:mapview.obj
 0001:0004d3b6       _MiAddViewsForSection@20   0044e3b6 f   mm:mapview.obj
 0001:0004d634       _MiRemoveViewsFromSection@12 0044e634 f   mm:mapview.obj
 0001:0004d6e8       _MiRemoveViewsFromSectionWithPfn@12 0044e6e8 f   mm:mapview.obj
 0001:0004d71a       _MiConvertStaticSubsections@4 0044e71a f   mm:mapview.obj
 0001:0004d76e       _MiMapLargePageSection@20  0044e76e f   mm:mapview.obj
 0001:0004d8a6       _MiCheckPurgeAndUpMapCount@8 0044e8a6 f   mm:mapview.obj
 0001:0004d9f2       _MiSetPageModified@8       0044e9f2 f   mm:mapview.obj
 0001:0004dc90       _MiFillSystemPageDirectory@8 0044ec90 f   mm:mapview.obj
 0001:0004ddb0       _MiSecureVirtualMemory@16  0044edb0 f   mm:mapview.obj
 0001:0004e46c       _MiMapViewOfImageSection@40 0044f46c f   mm:mapview.obj
 0001:0004ed88       _MiAddViewsForSectionWithPfn@12 0044fd88 f   mm:mapview.obj
 0001:0004edb6       _MiMapViewOfDataSection@44 0044fdb6 f   mm:mapview.obj
 0001:0004f654       _MiIsEntireRangeCommitted@16 00450654 f   mm:freevm.obj
 0001:0004f750       _MiProcessValidPteList@8   00450750 f   mm:freevm.obj
 0001:0004f886       _MiDecommitPages@16        00450886 f   mm:freevm.obj
 0001:0004fc12       _NtFreeVirtualMemory@16    00450c12 f   mm:freevm.obj
 0001:00050796       _MmMapViewInSystemCache@16 00451796 f   mm:mapcache.obj
 0001:000509ea       _MmUnmapViewInSystemCache@12 004519ea f   mm:mapcache.obj
 0001:00050e52       _MiRemoveMappedPtes@16     00451e52 f   mm:mapcache.obj
 0001:0005133e       _MmCheckCachedPageState@8  0045233e f   mm:mapcache.obj
 0001:000517d8       _MiMapCacheExceptionFilter@8 004527d8 f   mm:mapcache.obj
 0001:00051812       _MmUnlockCachedPage@4      00452812 f   mm:mapcache.obj
 0001:0005192c       _MmCopyToCachedPage@20     0045292c f   mm:mapcache.obj
 0001:000525a8       _MiAppendSubsectionChain@8 004535a8 f   mm:extsect.obj
 0001:00052632       @MiGetProtoPteAddressExtended@8 00453632 f   mm:extsect.obj
 0001:00052696       @MiLocateSubsection@8      00453696 f   mm:extsect.obj
 0001:0005270c       _MiSessionLeader@4         0045370c f   mm:session.obj
 0001:0005273c       _MiSessionAddProcess@4     0045373c f   mm:session.obj
 0001:000527ca       _MiAttachSession@4         004537ca f   mm:session.obj
 0001:00052800       _MiDetachSession@0         00453800 f   mm:session.obj
 0001:0005282c       _MiReleaseProcessReferenceToSessionDataPage@4 0045382c f   mm:session.obj
 0001:000529ca       _MiSessionCommitPageTables@8 004539ca f   mm:session.obj
 0001:00052d74       _MiSessionOutSwapProcess@4 00453d74 f   mm:session.obj
 0001:00052db0       _MiSessionInSwapProcess@8  00453db0 f   mm:session.obj
 0001:00052dee       _MmGetSessionId@4          00453dee f   mm:session.obj
 0001:00052e18       _MmGetSessionIdEx@4        00453e18 f   mm:session.obj
 0001:00052e42       _MmGetNextSession@4        00453e42 f   mm:session.obj
 0001:00052ee2       _MmAttachSession@8         00453ee2 f   mm:session.obj
 0001:00052f64       _MmDetachSession@8         00453f64 f   mm:session.obj
 0001:00052fc2       _MmGetSessionById@4        00453fc2 f   mm:session.obj
 0001:0005303a       _MiSessionRemoveProcess@0  0045403a f   mm:session.obj
 0001:0005308c       _MiProtectFreeNonPagedPool@8 0045408c f   mm:allocpag.obj
 0001:00053128       _MiUnProtectFreeNonPagedPool@8 00454128 f   mm:allocpag.obj
 0001:00053190       _MiProtectedPoolInsertList@12 00454190 f   mm:allocpag.obj
 0001:00053220       _MiProtectedPoolRemoveEntryList@4 00454220 f   mm:allocpag.obj
 0001:0005328e       _MiTrimSegmentCache@0      0045428e f   mm:allocpag.obj
 0001:00053360       _MmDeterminePoolType@4     00454360 f   mm:allocpag.obj
 0001:0005339c       _MmResourcesAvailable@12   0045439c f   mm:allocpag.obj
 0001:00053606       _MiFreeNonPagedPool@8      00454606 f   mm:allocpag.obj
 0001:000536d8       _MiFreeAllExpansionNonPagedPool@0 004546d8 f   mm:allocpag.obj
 0001:000537a6       _MiMarkPoolLargeSession@4  004547a6 f   mm:allocpag.obj
 0001:00053818       _MiIsPoolLargeSession@4    00454818 f   mm:allocpag.obj
 0001:00053878       _MiInitializeAndChargePfn@16 00454878 f   mm:allocpag.obj
 0001:0005393c       _MiSessionPageTableRelease@4 0045493c f   mm:allocpag.obj
 0001:000539bc       _MiFindContiguousPages@20  004549bc f   mm:allocpag.obj
 0001:00053e6c       _MiFreeContiguousPages@8   00454e6c f   mm:allocpag.obj
 0001:00053ef0       _MiFreeLargePageMemory@8   00454ef0 f   mm:allocpag.obj
 0001:00054006       _MmIsSessionAddress@4      00455006 f   mm:allocpag.obj
 0001:0005402c       _MmGetSizeOfBigPoolAllocation@4 0045502c f   mm:allocpag.obj
 0001:000541fc       _MiMustFrameBeCached@4     004551fc f   mm:allocpag.obj
 0001:00054238       _MiAddCachedRange@8        00455238 f   mm:allocpag.obj
 0001:000542d0       _MiRemoveCachedRange@8     004552d0 f   mm:allocpag.obj
 0001:0005439c       @MiIdentifyPfn@8           0045539c f   mm:dmpaddr.obj
 0001:0005476c       _MmIdentifyPhysicalMemory@0 0045576c f   mm:dmpaddr.obj
 0001:000548e6       @MiChargeCommitmentCantExpand@8 004558e6 f   mm:mmquota.obj
 0001:0005498a       @MiChargeTemporaryCommitmentForReduction@4 0045598a f   mm:mmquota.obj
 0001:000549ce       _MiCalculatePageCommitment@16 004559ce f   mm:mmquota.obj
 0001:00054b78       _MiReturnPageTablePageCommitment@20 00455b78 f   mm:mmquota.obj
 0001:00054ca0       _MiCauseOverCommitPopup@0  00455ca0 f   mm:mmquota.obj
 0001:00054d04       _MmRaisePoolQuota@12       00455d04 f   mm:mmquota.obj
 0001:00054dac       _MmReturnPoolQuota@8       00455dac f   mm:mmquota.obj
 0001:00054dd0       @MiChargeCommitment@8      00455dd0 f   mm:mmquota.obj
 0001:000550fa       _MmZeroPageThread@0        004560fa f   mm:zeropage.obj
 0001:00055372       _MiZeroPageWorker@4        00456372 f   mm:zeropage.obj
 0001:0005561a       _MmAccessFault@16          0045661a f   mm:mmfault.obj
 0001:00056500       _MmSetExecuteOptions@4     00457500 f   mm:mmfault.obj
 0001:0005659e       _MiFindEmptyAddressRange@16 0045759e f   mm:vadtree.obj
 0001:000566b0       _MiCheckForConflictingVadExistence@12 004576b0 f   mm:vadtree.obj
 0001:000566de       _MmCheckForSafeExecution@16 004576de f   mm:vadtree.obj
 0001:000567cc       _MiReturnLargePages@4      004577cc f   mm:physical.obj
 0001:0005689e       _MiAllocateLargePages@16   0045789e f   mm:physical.obj
 0001:00056aca       _MiFreeLargePages@12       00457aca f   mm:physical.obj
 0001:00056b38       _MiProtectAweRegion@12     00457b38 f   mm:physical.obj
 0001:00056c5c       _NtGetWriteWatch@28        00457c5c f   mm:wrtwatch.obj
 0001:000571f0       _NtResetWriteWatch@12      004581f0 f   mm:wrtwatch.obj
 0001:0005757e       _MiCaptureWriteWatchDirtyBit@8 0045857e f   mm:wrtwatch.obj
 0001:00057602       _NtLockVirtualMemory@16    00458602 f   mm:lockvm.obj
 0001:00057d0a       _NtUnlockVirtualMemory@16  00458d0a f   mm:lockvm.obj
 0001:00058240       _MiGetPageProtection@4     00459240 f   mm:protect.obj
 0001:000584fe       _MiChangeNoAccessForkPte@8 004594fe f   mm:protect.obj
 0001:0005851e       _MiFlushTbAndCapture@20    0045951e f   mm:protect.obj
 0001:0005869a       _MiSetProtectionOnTransitionPte@8 0045969a f   mm:protect.obj
 0001:00058708       _MiSetProtectionOnSection@32 00459708 f   mm:protect.obj
 0001:0005935e       _MiProtectVirtualMemory@20 0045a35e f   mm:protect.obj
 0001:00059c38       _MiQueryAddressState@20    0045ac38 f   mm:queryvm.obj
 0001:0005a116       _MiGetWorkingSetInfo@12    0045b116 f   mm:queryvm.obj
 0001:0005a420       _MiGetWorkingSetInfoList@12 0045b420 f   mm:queryvm.obj
 0001:0005a86c       _NtQueryVirtualMemory@24   0045b86c f   mm:queryvm.obj
 0001:0005af92       _MiFindNodeOrParent@12     0045bf92 f   mm:addrsup.obj
 0001:0005afe2       @MiGetFirstNode@4          0045bfe2 f   mm:addrsup.obj
 0001:0005b002       _MiPromoteNode@4           0045c002 f   mm:addrsup.obj
 0001:0005b08a       _MiRebalanceNode@4         0045c08a f   mm:addrsup.obj
 0001:0005b14e       @MiRemoveNode@8            0045c14e f   mm:addrsup.obj
 0001:0005b2be       @MiInsertNode@8            0045c2be f   mm:addrsup.obj
 0001:0005b38a       _MiEnumerateGenericTableWithoutSplayingAvl@8 0045c38a f   mm:addrsup.obj
 0001:0005b3ce       @MiGetNextNode@4           0045c3ce f   mm:addrsup.obj
 0001:0005b400       @MiGetPreviousNode@4       0045c400 f   mm:addrsup.obj
 0001:0005b43e       @MiLocateAddressInTree@8   0045c43e f   mm:addrsup.obj
 0001:0005b45e       @MiLocateAddress@4         0045c45e f   mm:addrsup.obj
 0001:0005b4ae       _MiDeleteValidSystemPte@16 0045c4ae f   mm:deleteva.obj
 0001:0005b5ae       @MiUpdateModifiedWriterMdls@4 0045c5ae f   mm:deleteva.obj
 0001:0005b612       @MiReleasePageFileSpace@4  0045c612 f   mm:deleteva.obj
 0001:0005b686       _MiDeletePte@28            0045c686 f   mm:deleteva.obj
 0001:0005bad6       _MiDeleteVirtualAddresses@12 0045cad6 f   mm:deleteva.obj
 0001:0005beae       @MiDecrementReferenceCount@8 0045ceae f   mm:pfndec.obj
 0001:0005bfb6       _MiBadRefCount@4           0045cfb6 f   mm:pfndec.obj
 0001:0005bfee       @MiDecrementShareCount@8   0045cfee f   mm:pfndec.obj
 0001:0005c18c       @MiInsertPageInList@8      0045d18c f   mm:pfnlist.obj
 0001:0005c410       @MiInsertZeroListAtBack@4  0045d410 f   mm:pfnlist.obj
 0001:0005c54c       @MiInsertStandbyListAtFront@4 0045d54c f   mm:pfnlist.obj
 0001:0005c61a       @MiUnlinkPageFromList@4    0045d61a f   mm:pfnlist.obj
 0001:0005c75e       _MiUnlinkFreeOrZeroedPage@4 0045d75e f   mm:pfnlist.obj
 0001:0005c8a2       _MiDereferenceLastChanceLdw@4 0045d8a2 f   mm:pfnlist.obj
 0001:0005c936       _MiNoPagesLastChance@4     0045d936 f   mm:pfnlist.obj
 0001:0005ccc2       @MiEnsureAvailablePageOrWait@8 0045dcc2 f   mm:pfnlist.obj
 0001:0005cfe2       @MiLogPfnInformation@8     0045dfe2 f   mm:pfnlist.obj
 0001:0005d012       @MiInsertPageInFreeList@4  0045e012 f   mm:pfnlist.obj
 0001:0005d1a0       @MiRemovePageFromList@4    0045e1a0 f   mm:pfnlist.obj
 0001:0005d2fa       @MiRemovePageByColor@8     0045e2fa f   mm:pfnlist.obj
 0001:0005d446       _MiPurgeTransitionList@0   0045e446 f   mm:pfnlist.obj
 0001:0005d4c2       @MiRemoveZeroPage@4        0045e4c2 f   mm:pfnlist.obj
 0001:0005d556       @MiRemoveAnyPage@4         0045e556 f   mm:pfnlist.obj
 0001:0005d5cc       _MiAllocatePfn@8           0045e5cc f   mm:pfnlist.obj
 0001:0005d648       @MiInsertWsleHash@8        0045e648 f   mm:wstree.obj
 0001:0005d830       _MiFillWsleHash@4          0045e830 f   mm:wstree.obj
 0001:0005d8f6       @MiLocateWsle@16           0045e8f6 f   mm:wstree.obj
 0001:0005d9e0       @MiRemoveWsle@8            0045e9e0 f   mm:wstree.obj
 0001:0005dac6       _MiRepointWsleHashIndex@12 0045eac6 f   mm:wstree.obj
 0001:0005db1e       _MiRemoveWsleFromFreeList@12 0045eb1e f   mm:wstree.obj
 0001:0005db90       _MiSwapWslEntries@16       0045eb90 f   mm:wstree.obj
 0001:0005dd1e       @MiTerminateWsle@12        0045ed1e f   mm:wstree.obj
 0001:0005dd76       @MiDetermineUserGlobalPteMask@4 0045ed76 f   mm:setmodfy.obj
 0001:0005ddbe       @MiCopyOnWrite@8           0045edbe f   mm:wrtfault.obj
 0001:0005e0c8       _MiSetDirtyBit@12          0045f0c8 f   mm:wrtfault.obj
 0001:0005e14c       _MmCreateProcessAddressSpace@12 0045f14c f   mm:procx86.obj
 0001:0005e70a       _MiUpdateSystemPdes@4      0045f70a f   mm:procx86.obj
 0001:0005e7e4       _MiMapPageInHyperSpace@12  0045f7e4 f   mm:hypermap.obj
 0001:0005e88e       _MiMapPageInHyperSpaceAtDpc@8 0045f88e f   mm:hypermap.obj
 0001:0005e932       _MiMapPagesToZeroInHyperSpace@8 0045f932 f   mm:hypermap.obj
 0001:0005e9ec       _MiUnmapPagesInZeroSpace@8 0045f9ec f   mm:hypermap.obj
 0001:0005ea14       _MiMarkImageInSystem@4     0045fa14 f   mm:sessload.obj
 0001:0005ea4e       _MiSessionInsertImage@4    0045fa4e f   mm:sessload.obj
 0001:0005ebe4       _MiSessionRemoveImage@4    0045fbe4 f   mm:sessload.obj
 0001:0005ed52       _MiWaitForForkToComplete@4 0045fd52 f   mm:forksup.obj
 0001:0005ef52       _MiUpControlAreaRefs@4     0045ff52 f   mm:forksup.obj
 0001:0005efca       _MiDoneWithThisPageGetAnother@12 0045ffca f   mm:forksup.obj
 0001:0005f076       _MiHandleForkTransitionPte@12 00460076 f   mm:forksup.obj
 0001:0005f1a4       _MiDownShareCountFlushEntireTb@4 004601a4 f   mm:forksup.obj
 0001:0005f1fc       _MiUpForkPageShareCount@4  004601fc f   mm:forksup.obj
 0001:0005f222       _MiBuildForkPageTable@24   00460222 f   mm:forksup.obj
 0001:0005f2d2       _MiCloneProcessAddressSpace@8 004602d2 f   mm:forksup.obj
 0001:00060570       _MiDecrementCloneBlockReference@20 00461570 f   mm:forksup.obj
 0001:0006095e       _MiAccessCheck@24          0046195e f   mm:acceschk.obj
 0001:00060aa6       _MiClearStackGuardBits@12  00461aa6 f   mm:acceschk.obj
 0001:00060cb4       @RtlUshortByteSwap@4       00461cb4 f   ntosrtl:byteswap.obj
 0001:00060cc0       @RtlUlongByteSwap@4        00461cc0 f   ntosrtl:byteswap.obj
 0001:00060cea       @RtlUlonglongByteSwap@8    00461cea f   ntosrtl:byteswap.obj
 0001:00060d98       _DbgBreakPoint@0           00461d98 f   ntosrtl:debug2.obj
 0001:00060d9c       _DbgUserBreakPoint@0       00461d9c f   ntosrtl:debug2.obj
 0001:00060da0       _DbgBreakPointWithStatus@4 00461da0 f   ntosrtl:debug2.obj
 0001:00060da4       _RtlpBreakWithStatusInstruction@0 00461da4     ntosrtl:debug2.obj
 0001:00060dae       _vDbgPrintExWithPrefixInternal@24 00461dae f   ntosrtl:debug.obj
 0001:00060ed8       _DbgPrompt@12              00461ed8 f   ntosrtl:debug.obj
 0001:00060f1c       _DbgLoadImageSymbols@12    00461f1c f   ntosrtl:debug.obj
 0001:00060f66       _DbgUnLoadImageSymbols@12  00461f66 f   ntosrtl:debug.obj
 0001:00060f98       _DbgCommandString@8        00461f98 f   ntosrtl:debug.obj
 0001:00060fe2       _DbgQueryDebugFilterState@8 00461fe2 f   ntosrtl:debug.obj
 0001:00060ff0       _DbgSetDebugFilterState@12 00461ff0 f   ntosrtl:debug.obj
 0001:00060ffc       _DbgPrint                  00461ffc f   ntosrtl:debug.obj
 0001:0006101a       _DbgPrintReturnControlC    0046201a f   ntosrtl:debug.obj
 0001:00061038       _DbgPrintEx                00462038 f   ntosrtl:debug.obj
 0001:00061058       _vDbgPrintEx@16            00462058 f   ntosrtl:debug.obj
 0001:0006107c       _vDbgPrintExWithPrefix@20  0046207c f   ntosrtl:debug.obj
 0001:000610a0       _READ_REGISTER_UCHAR@4     004620a0 f   ntosrtl:ioaccess.obj
 0001:000610ac       _READ_REGISTER_USHORT@4    004620ac f   ntosrtl:ioaccess.obj
 0001:000610b8       _READ_REGISTER_ULONG@4     004620b8 f   ntosrtl:ioaccess.obj
 0001:000610c4       _READ_REGISTER_BUFFER_UCHAR@12 004620c4 f   ntosrtl:ioaccess.obj
 0001:000610e0       _READ_REGISTER_BUFFER_USHORT@12 004620e0 f   ntosrtl:ioaccess.obj
 0001:000610fc       _READ_REGISTER_BUFFER_ULONG@12 004620fc f   ntosrtl:ioaccess.obj
 0001:00061118       _WRITE_REGISTER_UCHAR@8    00462118 f   ntosrtl:ioaccess.obj
 0001:0006112c       _WRITE_REGISTER_USHORT@8   0046212c f   ntosrtl:ioaccess.obj
 0001:00061140       _WRITE_REGISTER_ULONG@8    00462140 f   ntosrtl:ioaccess.obj
 0001:00061154       _WRITE_REGISTER_BUFFER_UCHAR@12 00462154 f   ntosrtl:ioaccess.obj
 0001:00061174       _WRITE_REGISTER_BUFFER_USHORT@12 00462174 f   ntosrtl:ioaccess.obj
 0001:00061194       _WRITE_REGISTER_BUFFER_ULONG@12 00462194 f   ntosrtl:ioaccess.obj
 0001:000611b8       _RtlCopyUnicodeString@8    004621b8 f   ntosrtl:nls.obj
 0001:00061220       _RtlAppendUnicodeToString@8 00462220 f   ntosrtl:nls.obj
 0001:0006129e       _RtlAppendUnicodeStringToString@8 0046229e f   ntosrtl:nls.obj
 0001:0006130c       _RtlValidateUnicodeString@8 0046230c f   ntosrtl:nls.obj
 0001:00061372       _RtlInitUnicodeStringEx@8  00462372 f   ntosrtl:string.obj
 0001:000613ba       _RtlInitAnsiStringEx@8     004623ba f   ntosrtl:string.obj
 0001:00061402       _RtlCopyString@8           00462402 f   ntosrtl:string.obj
 0001:00061444       _RtlEqualString@12         00462444 f   ntosrtl:string.obj
 0001:000614c8       _RtlMapSecurityErrorToNtStatus@4 004624c8 f   ntosrtl:sertl.obj
 0001:000615b2       _RtlClearBit@8             004625b2 f   ntosrtl:bitmap.obj
 0001:000615d8       _RtlSetBit@8               004625d8 f   ntosrtl:bitmap.obj
 0001:000615fc       _RtlTestBit@8              004625fc f   ntosrtl:bitmap.obj
 0001:00061622       _RtlClearAllBits@4         00462622 f   ntosrtl:bitmap.obj
 0001:00061652       _RtlSetAllBits@4           00462652 f   ntosrtl:bitmap.obj
 0001:00061678       _RtlFindClearBits@12       00462678 f   ntosrtl:bitmap.obj
 0001:00061964       _RtlFindSetBits@12         00462964 f   ntosrtl:bitmap.obj
 0001:00061cb0       _RtlClearBits@12           00462cb0 f   ntosrtl:bitmap.obj
 0001:00061d32       _RtlSetBits@12             00462d32 f   ntosrtl:bitmap.obj
 0001:00061db4       _RtlFindClearRuns@16       00462db4 f   ntosrtl:bitmap.obj
 0001:00061ffa       _RtlFindLongestRunClear@8  00462ffa f   ntosrtl:bitmap.obj
 0001:00062030       _RtlNumberOfSetBits@4      00463030 f   ntosrtl:bitmap.obj
 0001:00062104       _RtlNumberOfClearBits@4    00463104 f   ntosrtl:bitmap.obj
 0001:00062122       _RtlAreBitsClear@12        00463122 f   ntosrtl:bitmap.obj
 0001:000621a4       _RtlAreBitsSet@12          004631a4 f   ntosrtl:bitmap.obj
 0001:0006222e       _RtlFindNextForwardRunClear@12 0046322e f   ntosrtl:bitmap.obj
 0001:00062326       _RtlFindLastBackwardRunClear@12 00463326 f   ntosrtl:bitmap.obj
 0001:000623f4       _RtlFindMostSignificantBit@8 004633f4 f   ntosrtl:bitmap.obj
 0001:0006249e       _RtlFindLeastSignificantBit@8 0046349e f   ntosrtl:bitmap.obj
 0001:00062546       _RtlFindClearBitsAndSet@12 00463546 f   ntosrtl:bitmap.obj
 0001:00062578       _RtlFindSetBitsAndClear@12 00463578 f   ntosrtl:bitmap.obj
 0001:000625aa       _RtlFindFirstRunClear@8    004635aa f   ntosrtl:bitmap.obj
 0001:00062682       _RtlAssert@16              00463682 f   ntosrtl:assert.obj
 0001:00062764       _RtlpCaptureStackLimits@12 00463764 f   ntosrtl:getcalr.obj
 0001:000627f0       _RtlWalkFrameChain@12      004637f0 f   ntosrtl:getcalr.obj
 0001:00062946       _RtlCaptureStackBackTrace@16 00463946 f   ntosrtl:getcalr.obj
 0001:000629d4       _RtlpSysVolSystemSid@4     004639d4 f   ntosrtl:sysvol.obj
 0001:00062a00       _RtlpSysVolTakeOwnership@4 00463a00 f   ntosrtl:sysvol.obj
 0001:00062ae8       _RtlSplay@4                00463ae8 f   ntosrtl:splay.obj
 0001:00062c52       _RtlSubtreeSuccessor@4     00463c52 f   ntosrtl:splay.obj
 0001:00062c74       _RtlSubtreePredecessor@4   00463c74 f   ntosrtl:splay.obj
 0001:00062c96       _RtlRealPredecessor@4      00463c96 f   ntosrtl:splay.obj
 0001:00062cd2       _SwapSplayLinks@8          00463cd2 f   ntosrtl:splay.obj
 0001:00062db6       _RtlDelete@4               00463db6 f   ntosrtl:splay.obj
 0001:00062e32       _RtlDeleteNoSplay@8        00463e32 f   ntosrtl:splay.obj
 0001:00062eb0       _RtlInitializeGenericTable@20 00463eb0 f   ntosrtl:gentable.obj
 0001:00062eec       _RtlInsertElementGenericTableFull@24 00463eec f   ntosrtl:gentable.obj
 0001:00062f9c       _RtlIsGenericTableEmpty@4  00463f9c f   ntosrtl:gentable.obj
 0001:00062fb2       _RtlGetElementGenericTable@8 00463fb2 f   ntosrtl:gentable.obj
 0001:0006303a       _RtlNumberGenericTableElements@4 0046403a f   ntosrtl:gentable.obj
 0001:0006304c       _RtlEnumerateGenericTableWithoutSplaying@8 0046404c f   ntosrtl:gentable.obj
 0001:000630dc       _RtlInsertElementGenericTable@16 004640dc f   ntosrtl:gentable.obj
 0001:0006310c       _RtlDeleteElementGenericTable@8 0046410c f   ntosrtl:gentable.obj
 0001:00063162       _RtlLookupElementGenericTableFull@16 00464162 f   ntosrtl:gentable.obj
 0001:000631a2       _RtlEnumerateGenericTable@8 004641a2 f   ntosrtl:gentable.obj
 0001:000631f0       _RtlLookupElementGenericTable@8 004641f0 f   ntosrtl:gentable.obj
 0001:00063210       _PromoteNode@4             00464210 f   ntosrtl:avltable.obj
 0001:0006325c       _RebalanceNode@4           0046425c f   ntosrtl:avltable.obj
 0001:000632f8       _DeleteNodeFromTree@8      004642f8 f   ntosrtl:avltable.obj
 0001:000633ee       _RealSuccessor@4           004643ee f   ntosrtl:avltable.obj
 0001:000633ee       _RtlRealSuccessor@4        004643ee f   ntosrtl:splay.obj
 0001:0006342a       _RealPredecessor@4         0046442a f   ntosrtl:avltable.obj
 0001:00063462       _RtlInitializeGenericTableAvl@20 00464462 f   ntosrtl:avltable.obj
 0001:00063496       _RtlInsertElementGenericTableFullAvl@24 00464496 f   ntosrtl:avltable.obj
 0001:00063572       _RtlIsGenericTableEmptyAvl@4 00464572 f   ntosrtl:avltable.obj
 0001:0006358a       _RtlGetElementGenericTableAvl@8 0046458a f   ntosrtl:avltable.obj
 0001:0006365e       _RtlNumberGenericTableElementsAvl@4 0046465e f   ntosrtl:avltable.obj
 0001:00063670       _RtlEnumerateGenericTableWithoutSplayingAvl@8 00464670 f   ntosrtl:avltable.obj
 0001:000636ba       _FindNodeOrParent@12       004646ba f   ntosrtl:avltable.obj
 0001:00063712       _RtlInsertElementGenericTableAvl@16 00464712 f   ntosrtl:avltable.obj
 0001:00063744       _RtlDeleteElementGenericTableAvl@8 00464744 f   ntosrtl:avltable.obj
 0001:0006379a       _RtlLookupElementGenericTableFullAvl@16 0046479a f   ntosrtl:avltable.obj
 0001:000637ca       _RtlEnumerateGenericTableAvl@8 004647ca f   ntosrtl:avltable.obj
 0001:000637ee       _RtlEnumerateGenericTableLikeADirectory@28 004647ee f   ntosrtl:avltable.obj
 0001:000638bc       _RtlLookupElementGenericTableAvl@8 004648bc f   ntosrtl:avltable.obj
 0001:000638dc       _RtlGetCallersAddress@8    004648dc f   ntosrtl:stkwalk.obj
 0001:0006397c       _RtlSectionTableFromVirtualAddress@12 0046497c f   ntosrtl:imagedir.obj
 0001:000639be       _RtlAddressInSectionTable@12 004649be f   ntosrtl:imagedir.obj
 0001:000639ee       _RtlpImageDirectoryEntryToData32@20 004649ee f   ntosrtl:imagedir.obj
 0001:00063a50       _RtlpImageDirectoryEntryToData64@20 00464a50 f   ntosrtl:imagedir.obj
 0001:00063abc       _RtlImageDirectoryEntryToData@16 00464abc f   ntosrtl:imagedir.obj
 0001:00063b1c       _RtlImageNtHeaderEx@20     00464b1c f   ntosrtl:rtlnthdr.obj
 0001:00063bcc       _RtlImageNtHeader@4        00464bcc f   ntosrtl:rtlnthdr.obj
 0001:00063bf4       _RtlInitString@8           00464bf4 f   ntosrtl:stringsp.obj
 0001:00063c2c       _RtlInitAnsiString@8       00464c2c f   ntosrtl:stringsp.obj
 0001:00063c64       _RtlInitUnicodeString@8    00464c64 f   ntosrtl:stringsp.obj
 0001:00063cf2       _RtlIpv6AddressToStringA@8 00464cf2 f   ntosrtl:add2stra.obj
 0001:00063ed4       _RtlIpv6AddressToStringExA@20 00464ed4 f   ntosrtl:add2stra.obj
 0001:00063fa8       _RtlIpv4AddressToStringA@8 00464fa8 f   ntosrtl:add2stra.obj
 0001:00063fe0       _RtlIpv4AddressToStringExA@16 00464fe0 f   ntosrtl:add2stra.obj
 0001:00064100       _RtlIpv6AddressToStringW@8 00465100 f   ntosrtl:add2strw.obj
 0001:000642ec       _RtlIpv6AddressToStringExW@20 004652ec f   ntosrtl:add2strw.obj
 0001:000643d2       _RtlIpv4AddressToStringW@8 004653d2 f   ntosrtl:add2strw.obj
 0001:00064412       _RtlIpv4AddressToStringExW@16 00465412 f   ntosrtl:add2strw.obj
 0001:000644a4       _RtlIpv6StringToAddressA@12 004654a4 f   ntosrtl:str2adda.obj
 0001:000647c2       _RtlIpv6StringToAddressExA@16 004657c2 f   ntosrtl:str2adda.obj
 0001:000649fe       _RtlIpv4StringToAddressA@16 004659fe f   ntosrtl:str2adda.obj
 0001:00064c0a       _RtlIpv4StringToAddressExA@16 00465c0a f   ntosrtl:str2adda.obj
 0001:00064da2       _RtlIpv6StringToAddressW@12 00465da2 f   ntosrtl:str2addw.obj
 0001:0006509e       _RtlIpv6StringToAddressExW@16 0046609e f   ntosrtl:str2addw.obj
 0001:00065300       _RtlIpv4StringToAddressW@16 00466300 f   ntosrtl:str2addw.obj
 0001:0006550c       _RtlIpv4StringToAddressExW@16 0046650c f   ntosrtl:str2addw.obj
 0001:00065688       _RtlLargeIntegerDivide@20  00466688 f   ntosrtl:divlarge.obj
 0001:00065706       _RtlNtStatusToDosErrorNoTeb@4 00466706 f   ntosrtl:error.obj
 0001:000657e8       _ElapsedDaysToYears@4      004667e8 f   ntosrtl:time.obj
 0001:000658b4       _DaysAndFractionToTime@12  004668b4 f   ntosrtl:time.obj
 0001:000658f2       _RtlTimeToTimeFields@8     004668f2 f   ntosrtl:time.obj
 0001:000659f0       _RtlTimeFieldsToTime@8     004669f0 f   ntosrtl:time.obj
 0001:00065b90       _RtlTimeToSecondsSince1980@8 00466b90 f   ntosrtl:time.obj
 0001:00065bd4       _RtlSecondsSince1980ToTime@8 00466bd4 f   ntosrtl:time.obj
 0001:00065c0a       _RtlTimeToSecondsSince1970@8 00466c0a f   ntosrtl:time.obj
 0001:00065c4e       _RtlSecondsSince1970ToTime@8 00466c4e f   ntosrtl:time.obj
 0001:00065c84       _RtlpTraceDatabaseInternalFind@16 00466c84 f   ntosrtl:tracedb.obj
 0001:00065d00       _RtlpTraceStandardHashFunction@8 00466d00 f   ntosrtl:tracedb.obj
 0001:00065d34       _RtlpTraceDatabaseAllocate@12 00466d34 f   ntosrtl:tracedb.obj
 0001:00065d58       _RtlpTraceDatabaseFree@8   00466d58 f   ntosrtl:tracedb.obj
 0001:00065d72       _RtlpTraceDatabaseInitializeLock@4 00466d72 f   ntosrtl:tracedb.obj
 0001:00065db2       _RtlpTraceDatabaseAcquireLock@4 00466db2 f   ntosrtl:tracedb.obj
 0001:00065de8       _RtlpTraceDatabaseReleaseLock@4 00466de8 f   ntosrtl:tracedb.obj
 0001:00065e16       _RtlTraceDatabaseEnumerate@12 00466e16 f   ntosrtl:tracedb.obj
 0001:00065e9c       _RtlTraceDatabaseCreate@20 00466e9c f   ntosrtl:tracedb.obj
 0001:00065fb4       _RtlTraceDatabaseDestroy@4 00466fb4 f   ntosrtl:tracedb.obj
 0001:00066012       _RtlTraceDatabaseValidate@4 00467012 f   ntosrtl:tracedb.obj
 0001:0006605a       _RtlTraceDatabaseFind@16   0046705a f   ntosrtl:tracedb.obj
 0001:000660d0       _RtlpTraceDatabaseInternalAdd@16 004670d0 f   ntosrtl:tracedb.obj
 0001:00066220       _RtlTraceDatabaseLock@4    00467220 f   ntosrtl:tracedb.obj
 0001:0006622e       _RtlTraceDatabaseUnlock@4  0046722e f   ntosrtl:tracedb.obj
 0001:0006623c       _RtlTraceDatabaseAdd@16    0046723c f   ntosrtl:tracedb.obj
 0001:00066270       _RtlIsValidHandler@4       00467270 f   ntosrtl:exdsptch.obj
 0001:000662d2       _RtlDispatchException@8    004672d2 f   ntosrtl:exdsptch.obj
 0001:00066444       _RtlUnwind@16              00467444 f   ntosrtl:exdsptch.obj
 0001:0006664e       _KeInitializeSpinLockEx@4  0046764e f   ntosrtl:stktrace.obj
 0001:0006666a       _KeAcquireSpinLockEx@4     0046766a f   ntosrtl:stktrace.obj
 0001:00066690       _KeReleaseSpinLockEx@4     00467690 f   ntosrtl:stktrace.obj
 0001:000666ac       _RtlpAcquireStackTraceDataBase@0 004676ac f   ntosrtl:stktrace.obj
 0001:000666e6       _RtlpReleaseStackTraceDataBase@0 004676e6 f   ntosrtl:stktrace.obj
 0001:000666fc       _RtlInitializeStackTraceDataBase@12 004676fc f   ntosrtl:stktrace.obj
 0001:000667bc       _RtlpExtendStackTraceDataBase@8 004677bc f   ntosrtl:stktrace.obj
 0001:000668c4       _RtlpCaptureStackTraceForLogging@16 004678c4 f   ntosrtl:stktrace.obj
 0001:00066984       _RtlpLogCapturedStackTrace@8 00467984 f   ntosrtl:stktrace.obj
 0001:00066a82       _RtlpWalkFrameChainExceptionFilter@8 00467a82 f   ntosrtl:stktrace.obj
 0001:00066a8e       _RtlpLogStackBackTraceEx@4 00467a8e f   ntosrtl:stktrace.obj
 0001:00066ae4       _RtlLogUmodeStackBackTrace@0 00467ae4 f   ntosrtl:stktrace.obj
 0001:00066b2a       _RtlLogStackBackTrace@0    00467b2a f   ntosrtl:stktrace.obj
 0001:00066b38       _RtlpLogExceptionHandler@20 00467b38 f   ntosrtl:excptdbg.obj
 0001:00066bd0       _RtlpLogLastExceptionDisposition@8 00467bd0 f   ntosrtl:excptdbg.obj
 0001:00066bf8       _DebugService@20           00467bf8 f   ntosrtl:debug3.obj
 0001:00066c26       _DebugService2@12          00467c26 f   ntosrtl:debug3.obj
 0001:00066c3e       _DebugPrint@12             00467c3e f   ntosrtl:debug3.obj
 0001:00066c62       _DebugPrompt@8             00467c62 f   ntosrtl:debug3.obj
 0001:00066c8a       _RtlLookupFunctionTable@12 00467c8a f   ntosrtl:lookup.obj
 0001:00066d12       _SeSetAuditParameter@16    00467d12 f   ntosse:sepaudit.obj
 0001:00066e46       _SeReportSecurityEvent@16  00467e46 f   ntosse:sepaudit.obj
 0001:00066fe8       _SepInitProcessAuditSd@0   00467fe8 f   ntosse:seglobal.obj
 0001:00067190       _SeTokenCanImpersonate@12  00468190 f   ntosse:token.obj
 0001:000672da       _SepRegQueryHelper@24      004682da f   ntosse:adtutil.obj
 0001:000673e8       _ObpGetObjectRefInfo@4     004683e8 f   ob:obref.obj
 0001:00067422       _ObpGetTraceIndex@4        00468422 f   ob:obref.obj
 0001:000674b6       _ObpIsObjectTraced@4       004684b6 f   ob:obref.obj
 0001:0006751a       _ObpRegisterObject@4       0046851a f   ob:obref.obj
 0001:000675e4       _ObpDeregisterObject@4     004685e4 f   ob:obref.obj
 0001:00067668       _ObpPushStackInfo@8        00468668 f   ob:obref.obj
 0001:00067722       _ObReferenceObjectByPointer@16 00468722 f   ob:obref.obj
 0001:0006776e       _ObpDeferObjectDeletion@4  0046876e f   ob:obref.obj
 0001:000677aa       @ObfReferenceObject@4      004687aa f   ob:obref.obj
 0001:000677ce       @ObReferenceObjectEx@8     004687ce f   ob:obref.obj
 0001:000677e0       @ObDereferenceObjectEx@8   004687e0 f   ob:obref.obj
 0001:00067802       @ObReferenceObjectSafe@4   00468802 f   ob:obref.obj
 0001:00067840       _ObDereferenceObjectDeferDelete@4 00468840 f   ob:obref.obj
 0001:00067878       @ObfDereferenceObject@4    00468878 f   ob:obref.obj
 0001:000678f4       _ObDereferenceObject@4     004688f4 f   ob:obref.obj
 0001:00067908       _ObpIsUnsecureName@8       00468908 f   ob:obdir.obj
 0001:00067968       _NtSignalAndWaitForSingleObject@16 00468968 f   ob:obwait.obj
 0001:00067b52       _ObGetSecurityMode@0       00468b52 f   ob:obinit.obj
 0001:00067b5e       _PsWatchWorkingSet@12      00468b5e f   ps:psquery.obj
 0001:00067bca       _PspInsertQuotaBlock@4     00468bca f   ps:psquota.obj
 0001:00067c0e       _PspDereferenceQuotaBlock@4 00468c0e f   ps:psquota.obj
 0001:00067c82       _PspReleaseReturnedQuota@4 00468c82 f   ps:psquota.obj
 0001:00067d00       _PspExpandQuota@20         00468d00 f   ps:psquota.obj
 0001:00067da8       _PspGivebackQuota@8        00468da8 f   ps:psquota.obj
 0001:00067de8       _PsChargeProcessPoolQuota@12 00468de8 f   ps:psquota.obj
 0001:00067ed6       _PsReturnPoolQuota@12      00468ed6 f   ps:psquota.obj
 0001:00067fe2       _PsChargeProcessNonPagedPoolQuota@8 00468fe2 f   ps:psquota.obj
 0001:000680b0       _PsReturnProcessNonPagedPoolQuota@8 004690b0 f   ps:psquota.obj
 0001:00068194       _PsChargeProcessPagedPoolQuota@8 00469194 f   ps:psquota.obj
 0001:00068264       _PsReturnProcessPagedPoolQuota@8 00469264 f   ps:psquota.obj
 0001:0006834a       _PsChargeProcessPageFileQuota@8 0046934a f   ps:psquota.obj
 0001:000683e4       _PsReturnProcessPageFileQuota@8 004693e4 f   ps:psquota.obj
 0001:0006845e       _PsChargePoolQuota@12      0046945e f   ps:psquota.obj
 0001:00068482       _PsGetCurrentThreadId@0    00469482 f   ps:create.obj
 0001:00068494       _PsGetVersion@16           00469494 f   ps:create.obj
 0001:000684fe       _PsGetCurrentProcessSessionId@0 004694fe f   ps:pshelper.obj
 0001:00068512       _PsGetCurrentThread@0      00469512 f   ps:pshelper.obj
 0001:0006851e       _PsGetCurrentThreadStackBase@0 0046951e f   ps:pshelper.obj
 0001:00068530       _PsGetCurrentThreadStackLimit@0 00469530 f   ps:pshelper.obj
 0001:00068540       _ExGetPreviousMode@0       00469540 f   ex:exinit.obj
 0001:00068540       _PsGetCurrentThreadPreviousMode@0 00469540 f   ps:pshelper.obj
 0001:00068552       _PsGetJobLock@4            00469552 f   ps:pshelper.obj
 0001:00068564       _PsGetJobUIRestrictionsClass@4 00469564 f   ps:pshelper.obj
 0001:0006857a       _PsGetProcessCreateTimeQuadPart@4 0046957a f   ps:pshelper.obj
 0001:00068596       _PsGetJobSessionId@4       00469596 f   ps:pshelper.obj
 0001:00068596       _PsGetProcessDebugPort@4   00469596 f   ps:pshelper.obj
 0001:000685ac       _PsGetProcessExitStatus@4  004695ac f   ps:pshelper.obj
 0001:000685c2       _PsGetProcessId@4          004695c2 f   ps:pshelper.obj
 0001:000685d8       _PsGetProcessImageFileName@4 004695d8 f   ps:pshelper.obj
 0001:000685ec       _PsGetProcessInheritedFromUniqueProcessId@4 004695ec f   ps:pshelper.obj
 0001:00068602       _PsGetProcessJob@4         00469602 f   ps:pshelper.obj
 0001:00068618       _PsGetProcessSessionId@4   00469618 f   ps:pshelper.obj
 0001:00068626       _PsGetProcessSessionIdEx@4 00469626 f   ps:pshelper.obj
 0001:00068634       _PsGetProcessSectionBaseAddress@4 00469634 f   ps:pshelper.obj
 0001:0006864a       _PsGetProcessPeb@4         0046964a f   ps:pshelper.obj
 0001:00068660       _PsGetProcessPriorityClass@4 00469660 f   ps:pshelper.obj
 0001:00068676       _PsGetProcessWin32WindowStation@4 00469676 f   ps:pshelper.obj
 0001:0006868c       _PsGetProcessWin32Process@4 0046968c f   ps:pshelper.obj
 0001:000686a2       _PsGetCurrentProcessWin32Process@0 004696a2 f   ps:pshelper.obj
 0001:000686b8       _PsGetThreadId@4           004696b8 f   ps:pshelper.obj
 0001:000686ce       _PsGetThreadFreezeCount@4  004696ce f   ps:pshelper.obj
 0001:000686e4       _PsGetThreadHardErrorsAreDisabled@4 004696e4 f   ps:pshelper.obj
 0001:00068700       _PsGetCurrentThreadProcess@0 00469700 f   ps:pshelper.obj
 0001:00068712       _PsGetThreadProcessId@4    00469712 f   ps:pshelper.obj
 0001:00068728       _PsGetCurrentProcessId@0   00469728 f   ps:create.obj
 0001:00068728       _PsGetCurrentThreadProcessId@0 00469728 f   ps:pshelper.obj
 0001:0006873a       _PsGetThreadTeb@4          0046973a f   ps:pshelper.obj
 0001:0006874c       _PsGetCurrentThreadTeb@0   0046974c f   ps:pshelper.obj
 0001:0006875c       _PsGetThreadWin32Thread@4  0046975c f   ps:pshelper.obj
 0001:00068772       _PsGetCurrentThreadWin32Thread@0 00469772 f   ps:pshelper.obj
 0001:00068784       _PsGetCurrentThreadWin32ThreadAndEnterCriticalRegion@4 00469784 f   ps:pshelper.obj
 0001:000687ac       _PsSetThreadHardErrorsAreDisabled@8 004697ac f   ps:pshelper.obj
 0001:000687d6       _PspReaper@4               004697d6 f   ps:psdelete.obj
 0001:0006883a       _PsIsThreadTerminating@4   0046983a f   ps:psdelete.obj
 0001:00068852       _PspJobTimeLimitsDpcRoutine@16 00469852 f   ps:psjob.obj
 0001:00068866       _PerfGetCycleCount@0       00469866 f i wmi:traceapi.obj
 0001:0006886e       _WmipGetSystemTime@0       0046986e f i wmi:traceapi.obj
 0001:0006888c       _WmipGetPerfCounter@0      0046988c f i wmi:traceapi.obj
 0001:0006889a       @WmiGetClock@8             0046989a f   wmi:traceapi.obj
 0001:0006895e       @WmiTraceEvent@8           0046995e f   wmi:traceapi.obj
 0001:00068d80       @WmiTraceFastEvent@4       00469d80 f   wmi:traceapi.obj
 0001:00068e6a       _WmiTraceMessageVa@24      00469e6a f   wmi:traceapi.obj
 0001:0006914a       _WmiTraceMessage           0046a14a f   wmi:traceapi.obj
 0001:0006916c       _NtTraceEvent@16           0046a16c f   wmi:traceapi.obj
 0001:000692fa       _WmipEnterCritSection@4    0046a2fa f i wmi:api.obj
 0001:00069328       _StringCopyWorkerW@12      0046a328 f i wmi:api.obj
 0001:00069370       _StringVPrintfWorkerW@16   0046a370 f i wmi:api.obj
 0001:000693c0       _IoWMIWriteEvent@4         0046a3c0 f   wmi:api.obj
 0001:00069532       _StringCchCopyW@12         0046a532 f i wmi:api.obj
 0001:00069552       _StringCchPrintfW          0046a552 f i wmi:api.obj
 0001:0006957e       _WmipEnterTraceCritSection@4 0046a57e f i wmi:tracesup.obj
 0001:000695ac       _StringCbPrintfW           0046a5ac f i wmi:tracelog.obj
 0001:000695da       _WmipWmiIrpCompletion@12   0046a5da f   wmi:wmi.obj
 0001:00069604       _WmipWriteToEventlog@8     0046a604 f   wmi:mca.obj
 0001:00069654       _WmipFireOffWmiEvent@12    0046a654 f   wmi:mca.obj
 0001:00069704       _WmipMceDispatchRoutine@4  0046a704 f   wmi:mca.obj
 0001:00069730       _WmipMceDpcRoutine@16      0046a730 f   wmi:mca.obj
 0001:00069744       _WmipPollingDpcRoutine@16  0046a744 f   wmi:mca.obj
 0001:000697a6       _WmipMceDelivery@12        0046a7a6 f   wmi:mca.obj
 0001:00069838       _WmipMceEventDelivery@12   0046a838 f   wmi:mca.obj
 0001:000698a6       _WmipInsertQueueMCEDpc@4   0046a8a6 f   wmi:mca.obj
 0001:000698de       _WmipIsWbemRunningDispatch@16 0046a8de f   wmi:mca.obj
 0001:000698f2       _WmipQueryLogAndFireEvent@4 0046a8f2 f   wmi:mca.obj
 0001:0006994e       _WmipFirmwareTableHandler  0046a94e f   wmi:provider.obj
 0001:00069a1e       _WmipRawSMBiosTableHandler 0046aa1e f   wmi:provider.obj
 0001:00069ab8       _WmipDoFindRegEntryByDevice@8 0046aab8 f   wmi:register.obj
 0001:00069ae8       _WmipDecrementIrpCount@4   0046aae8 f   wmi:register.obj
 0001:00069b18       _StringCopyExWorkerW@28    0046ab18 f i wmi:consumer.obj
 0001:00069cba       _StringLengthWorkerW@12    0046acba f i wmi:consumer.obj
 0001:00069cfe       _WmipNotificationIrpCancel@8 0046acfe f   wmi:consumer.obj
 0001:00069d48       _WmipCsrClientMessageServer@16 0046ad48 f   wmi:consumer.obj
 0001:00069d9a       _WmipPumpThreadApc@20      0046ad9a f   wmi:consumer.obj
 0001:00069df2       _StringCbCopyW@12          0046adf2 f i wmi:consumer.obj
 0001:00069e1e       _StringCbCopyExW@24        0046ae1e f i wmi:consumer.obj
 0001:00069e7a       _StringCatWorkerW@12       0046ae7a f i wmi:consumer.obj
 0001:00069eb2       _StringCbCatW@12           0046aeb2 f i wmi:consumer.obj
 0001:00069ede       _StringVPrintfExWorkerW@32 0046aede f i wmi:ds.obj
 0001:0006a092       _StringCbPrintfExW         0046b092 f i wmi:ds.obj
 0001:0006a0f0       _ExpTimeRefreshDpcRoutine@16 0046b0f0 f   ntoswrk:SYSTIME.obj
 0001:0006a118       _ExpTimeZoneDpcRoutine@16  0046b118 f   ntoswrk:SYSTIME.obj
 0001:0006a140       _ExpCenturyDpcRoutine@16   0046b140 f   ntoswrk:SYSTIME.obj
 0001:0006a166       _ExSystemTimeToLocalTime@8 0046b166 f   ntoswrk:SYSTIME.obj
 0001:0006a18e       _ExLocalTimeToSystemTime@8 0046b18e f   ntoswrk:SYSTIME.obj
 0001:0006a1b6       _ExVerifySuite@4           0046b1b6 f   ntoswrk:EXSCAN.obj
 0001:0006a1ea       _CcHasInactiveViews@0      0046b1ea f   cache:cachesub.obj
 0001:0006a1ea       @xHalHandlerForBus@8       0046b1ea f   ntoswrk:HALFNC.obj
 0001:0006a1f2       _xHalInitPnpDriver@0       0046b1f2 f   ntoswrk:HALFNC.obj
 0001:0006a1fe       _xHalInitPowerManagement@8 0046b1fe f   ntoswrk:HALFNC.obj
 0001:0006a20c       _xHalEndMirroring@4        0046b20c f   ntoswrk:HALFNC.obj
 0001:0006a21a       _xHalMirrorPhysicalMemory@16 0046b21a f   ntoswrk:HALFNC.obj
 0001:0006a21a       _xHalMirrorVerify@16       0046b21a f   ntoswrk:HALFNC.obj
 0001:0006a228       _xHalTranslateBusAddress@24 0046b228 f   ntoswrk:HALFNC.obj
 0001:0006a228       _xHalAssignSlotResources@32 0046b228 f   ntoswrk:HALFNC.obj
 0001:0006a23c       _xHalHaltSystem@0          0046b23c f   ntoswrk:HALFNC.obj
 0001:0006a244       _MmMemoryUsage@16          0046b244 f   mm:dmpaddr.obj
 0001:0006a244       _xHalAllocateMapRegisters@16 0046b244 f   ntoswrk:HALFNC.obj
 0001:0006a252       _xKdSetupPciDeviceForDebugging@8 0046b252 f   ntoswrk:HALFNC.obj
 0001:0006a260       _xKdReleasePciDeviceForDebugging@4 0046b260 f   ntoswrk:HALFNC.obj
 0001:0006a26e       _PsWrapApcWow64Thread@8    0046b26e f   ps:psctx.obj
 0001:0006a26e       _xKdGetAcpiTablePhase0@8   0046b26e f   ntoswrk:HALFNC.obj
 0001:0006a278       _xHalVectorToIDTEntry@4    0046b278 f   ntoswrk:HALFNC.obj
 0001:0006a288       _xKdUnmapVirtualAddress@8  0046b288 f   ntoswrk:HALFNC.obj
 0001:0006a290       _UTF8Encode@8              0046b290 f   ntoswrk:HDLSTERM.obj
 0001:0006a2e0       _HeadlessDispatch@20       0046b2e0 f   ntoswrk:HDLSTERM.obj
 0001:0006a354       _HeadlessKernelAddLogEntry@8 0046b354 f   ntoswrk:HDLSTERM.obj
 0001:0006a376       _InbvAcquireLock@0         0046b376 f   ntoswrk:BOOTVID.obj
 0001:0006a3b4       _InbvReleaseLock@0         0046b3b4 f   ntoswrk:BOOTVID.obj
 0001:0006a3da       _InbvEnableBootDriver@4    0046b3da f   ntoswrk:BOOTVID.obj
 0001:0006a42c       _InbvEnableDisplayString@4 0046b42c f   ntoswrk:BOOTVID.obj
 0001:0006a446       _InbvIsBootDriverInstalled@0 0046b446 f   ntoswrk:BOOTVID.obj
 0001:0006a452       _InbvResetDisplay@0        0046b452 f   ntoswrk:BOOTVID.obj
 0001:0006a476       _InbvScreenToBufferBlt@24  0046b476 f   ntoswrk:BOOTVID.obj
 0001:0006a49a       _InbvBufferToScreenBlt@24  0046b49a f   ntoswrk:BOOTVID.obj
 0001:0006a4be       _InbvBitBlt@12             0046b4be f   ntoswrk:BOOTVID.obj
 0001:0006a4f4       _InbvSolidColorFill@20     0046b4f4 f   ntoswrk:BOOTVID.obj
 0001:0006a562       _InbvSetTextColor@4        0046b562 f   ntoswrk:BOOTVID.obj
 0001:0006a59c       _InbvInstallDisplayStringFilter@4 0046b59c f   ntoswrk:BOOTVID.obj
 0001:0006a5b0       _InbvDisplayString@4       0046b5b0 f   ntoswrk:BOOTVID.obj
 0001:0006a61c       _InbvSetProgressBarCoordinates@8 0046b61c f   ntoswrk:BOOTVID.obj
 0001:0006a640       _InbvUpdateProgressBar@4   0046b640 f   ntoswrk:BOOTVID.obj
 0001:0006a6bc       _InbvSetProgressBarSubset@8 0046b6bc f   ntoswrk:BOOTVID.obj
 0001:0006a6ea       _InbvGetResourceAddress@4  0046b6ea f   ntoswrk:BOOTVID.obj
 0001:0006a70c       _InbvNotifyDisplayOwnershipLost@4 0046b70c f   ntoswrk:BOOTVID.obj
 0001:0006a760       _InbvAcquireDisplayOwnership@0 0046b760 f   ntoswrk:BOOTVID.obj
 0001:0006a786       _InbvSetDisplayOwnership@4 0046b786 f   ntoswrk:BOOTVID.obj
 0001:0006a7a4       _InbvCheckDisplayOwnership@0 0046b7a4 f   ntoswrk:BOOTVID.obj
 0001:0006a7b6       _InbvGetDisplayState@0     0046b7b6 f   ntoswrk:BOOTVID.obj
 0001:0006a7c2       _InbvSetScrollRegion@16    0046b7c2 f   ntoswrk:BOOTVID.obj
 0001:0006a7d0       _RtlStringCopyWorkerA@12   0046b7d0 f i ntoswrk:INIT.obj
 0001:0006a810       _RtlStringCopyExWorkerA@28 0046b810 f i ntoswrk:INIT.obj
 0001:0006a998       _RtlStringVPrintfWorkerA@16 0046b998 f i ntoswrk:INIT.obj
 0001:0006a9e8       _RtlStringVPrintfExWorkerA@32 0046b9e8 f i ntoswrk:INIT.obj
 0001:0006ab8a       _RtlStringLengthWorkerA@12 0046bb8a f i ntoswrk:INIT.obj
 0001:0006abcc       _DisplayBootBitmap@4       0046bbcc f   ntoswrk:INIT.obj
 0001:0006ae04       _DisplayFilter@4           0046be04 f   ntoswrk:INIT.obj
 0001:0006ae4e       ___report_gsfailure        0046be4e f   ntoswrk:INIT.obj
 0001:0006ae76       _RtlStringCbCopyA@12       0046be76 f i ntoswrk:INIT.obj
 0001:0006ae96       _RtlStringCbCopyExA@24     0046be96 f i ntoswrk:INIT.obj
 0001:0006aeea       _RtlStringCbPrintfA        0046beea f i ntoswrk:INIT.obj
 0001:0006af16       _RtlStringCbPrintfExA      0046bf16 f i ntoswrk:INIT.obj
 0001:0006af6c       _RtlStringCatExWorkerA@28  0046bf6c f i ntoswrk:INIT.obj
 0001:0006b106       _RtlFormatBuffer2@20       0046c106 f   ntoswrk:INIT.obj
 0001:0006b12a       _RtlStringCbCatExA@24      0046c12a f i ntoswrk:INIT.obj
 0001:0006b17e       _IoAcquireRemoveLockEx@20  0046c17e f   ntoswrk:REMLOCK.obj
 0001:0006b224       _IoReleaseRemoveLockEx@12  0046c224 f   ntoswrk:REMLOCK.obj
 0001:0006b2e6       _IoInvalidateDeviceRelations@8 0046c2e6 f   ntoswrk:PNPIOAPI.obj
 0001:0006b34e       _IoInvalidateDeviceState@4 0046c34e f   ntoswrk:PNPIOAPI.obj
 0001:0006b39c       _IopQueueDeviceWorkItem@12 0046c39c f   ntoswrk:PNPIOAPI.obj
 0001:0006b3f0       _PnpCompletionRoutine@12   0046c3f0 f   ntoswrk:PNPIOAPI.obj
 0001:0006b3f0       _PopCompleteFindIrp@12     0046c3f0 f   ntoswrk:PONOTIFY.obj
 0001:0006b40e       _IoGetDeviceInstanceName@8 0046c40e f   ntoswrk:PNPIOAPI.obj
 0001:0006b456       _IoControlPnpDeviceActionQueue@4 0046c456 f   ntoswrk:PNPIOAPI.obj
 0001:0006b474       _StringCchPrintfExW        0046c474 f i ntoswrk:PNPIOAPI.obj
 0001:0006b4ac       _IoRequestDeviceEject@4    0046c4ac f   ntoswrk:PNPIOAPI.obj
 0001:0006b4f0       _IoReportTargetDeviceChangeAsynchronous@16 0046c4f0 f   ntoswrk:NOTIFY.obj
 0001:0006b628       _IopSetLegacyResourcesFlag@4 0046c628 f   ntoswrk:PNPRES.obj
 0001:0006b650       _IopEliminateBogusConflict@8 0046c650 f   ntoswrk:PNPRES.obj
 0001:0006b6e6       _IoTranslateBusAddress@24  0046c6e6 f   ntoswrk:PNPRES.obj
 0001:0006b852       _ExceptionRecord32To64@8   0046c852 f i ntoswrk:KDAPI.obj
 0001:0006b8a6       _KdUpdateTimeSlipEvent@4   0046c8a6 f   ntoswrk:KDAPI.obj
 0001:0006b8e6       _KdpSetCommonState@12      0046c8e6 f   ntoswrk:KDAPI.obj
 0001:0006b992       _KdChangeOption@24         0046c992 f   ntoswrk:KDAPI.obj
 0001:0006b9f8       _KdDisableDebuggerWithLock@4 0046c9f8 f   ntoswrk:KDAPI.obj
 0001:0006bac2       _KdDisableDebugger@0       0046cac2 f   ntoswrk:KDAPI.obj
 0001:0006bad0       _KdEnableDebuggerWithLock@4 0046cad0 f   ntoswrk:KDAPI.obj
 0001:0006bb72       _KdEnableDebugger@0        0046cb72 f   ntoswrk:KDAPI.obj
 0001:0006bb9e       _KdRefreshDebuggerNotPresent@0 0046cb9e f   ntoswrk:KDAPI.obj
 0001:0006bbf6       _KdPowerTransition@4       0046cbf6 f   ntoswrk:KDAPI.obj
 0001:0006bc2a       _KdpSwitchProcessor@12     0046cc2a f   ntoswrk:KDAPI.obj
 0001:0006bc58       _KdpPortLock@0             0046cc58 f   ntoswrk:KDLOCK.obj
 0001:0006bc68       _KdpPortUnlock@0           0046cc68 f   ntoswrk:KDLOCK.obj
 0001:0006bc78       _KdPollBreakIn@0           0046cc78 f   ntoswrk:KDLOCK.obj
 0001:0006bcec       _KdpPollBreakInWithPortLock@0 0046ccec f   ntoswrk:KDLOCK.obj
 0001:0006bd22       _KdCheckForDebugBreak@0    0046cd22 f i ntoswrk:DUMPCTL.obj
 0001:0006bd42       _X86PaeEnabled@0           0046cd42 f   ntoswrk:DUMPCTL.obj
 0001:0006bd5c       _IopIsAddressRangeValid@8  0046cd5c f   ntoswrk:DUMPCTL.obj
 0001:0006bdac       _IopGetMaxValidMemorySize@8 0046cdac f   ntoswrk:DUMPCTL.obj
 0001:0006be00       _IoAddTriageDumpDataBlock@8 0046ce00 f   ntoswrk:DUMPCTL.obj
 0001:0006be88       _IopAddRunTimeTriageDataBlocks@20 0046ce88 f   ntoswrk:DUMPCTL.obj
 0001:0006bedc       _IoIsTriageDumpEnabled@0   0046cedc f   ntoswrk:DUMPCTL.obj
 0001:0006bef6       _IopDisplayString          0046cef6 f   ntoswrk:DUMPCTL.obj
 0001:0006bf42       _IopGetDumpControlBlockCheck@4 0046cf42 f   ntoswrk:DUMPCTL.obj
 0001:0006bfd0       _IoInitializeDumpStack@8   0046cfd0 f   ntoswrk:DUMPCTL.obj
 0001:0006c02e       _IoGetDumpHiberRanges@8    0046d02e f   ntoswrk:DUMPCTL.obj
 0001:0006c084       _IopGetSecondaryDumpDataLimits@12 0046d084 f   ntoswrk:DUMPCTL.obj
 0001:0006c0d4       _IoFillDumpHeader@48       0046d0d4 f   ntoswrk:DUMPCTL.obj
 0001:0006c29a       _KeInitializeCrashDumpHeader@20 0046d29a f   ntoswrk:DUMPCTL.obj
 0001:0006c2f8       _IopMapPhysicalMemory@16   0046d2f8 f   ntoswrk:DUMPCTL.obj
 0001:0006c352       _IopAddPageToPageMap@16    0046d352 f   ntoswrk:DUMPCTL.obj
 0001:0006c378       _IopRemovePageFromPageMap@16 0046d378 f   ntoswrk:DUMPCTL.obj
 0001:0006c39e       _IoSetDumpRange@16         0046d39e f   ntoswrk:DUMPCTL.obj
 0001:0006c43e       _IoFreeDumpRange@16        0046d43e f   ntoswrk:DUMPCTL.obj
 0001:0006c4c4       _IopCalculateRequiredDumpSpace@20 0046d4c4 f   ntoswrk:DUMPCTL.obj
 0001:0006c550       _IopGetLoadedDriverInfo@8  0046d550 f   ntoswrk:DUMPCTL.obj
 0001:0006c5ba       _IopWriteDriverList@16     0046d5ba f   ntoswrk:DUMPCTL.obj
 0001:0006c6c8       _IopSizeTriageDumpDataBlocks@12 0046d6c8 f   ntoswrk:DUMPCTL.obj
 0001:0006c724       _IopWriteTriageDumpDataBlocks@8 0046d724 f   ntoswrk:DUMPCTL.obj
 0001:0006c7aa       _IopMapVirtualToPhysicalMdl@12 0046d7aa f   ntoswrk:DUMPCTL.obj
 0001:0006c80e       _IopCreateSummaryDump@4    0046d80e f   ntoswrk:DUMPCTL.obj
 0001:0006c862       _IopInvokeDumpIoCallbacks@12 0046d862 f   ntoswrk:DUMPCTL.obj
 0001:0006c9da       _KeCapturePersistentThreadState@32 0046d9da f   ntoswrk:DUMPCTL.obj
 0001:0006cf14       _IopInitializeDumpSpaceAndType@12 0046df14 f   ntoswrk:DUMPCTL.obj
 0001:0006cfbc       _IopWritePageToDisk@16     0046dfbc f   ntoswrk:DUMPCTL.obj
 0001:0006d0f8       _IopWriteSummaryDump@24    0046e0f8 f   ntoswrk:DUMPCTL.obj
 0001:0006d1ae       _IopInitializeSummaryDump@8 0046e1ae f   ntoswrk:DUMPCTL.obj
 0001:0006d216       _IopWriteSummaryHeader@24  0046e216 f   ntoswrk:DUMPCTL.obj
 0001:0006d2c4       _IopWriteToDisk@28         0046e2c4 f   ntoswrk:DUMPCTL.obj
 0001:0006d382       _IopInvokeSecondaryDumpDataCallbacks@36 0046e382 f   ntoswrk:DUMPCTL.obj
 0001:0006d6a2       _IopGetSecondaryDumpDataSpace@8 0046e6a2 f   ntoswrk:DUMPCTL.obj
 0001:0006d6ec       _IopWriteTriageDump@44     0046e6ec f   ntoswrk:DUMPCTL.obj
 0001:0006da30       _IoWriteCrashDump@32       0046ea30 f   ntoswrk:DUMPCTL.obj
 0001:0006dfba       _MiMapNewPfns@8            0046efba f   ntoswrk:DYNMEM.obj
 0001:0006e0c8       _MmRemovePhysicalMemoryEx@12 0046f0c8 f   ntoswrk:DYNMEM.obj
 0001:0006e110       _VerifierFreeTrackedPool@16 0046f110 f   ntoswrk:VERIFIER.obj
 0001:0006e13c       _MmIsDriverVerifying@4     0046f13c f   ntoswrk:VERIFIER.obj
 0001:0006e1f8       _VerifierMmMapIoSpace@16   0046f1f8 f   ntoswrk:VERIFIER.obj
 0001:0006e450       _VerifierExAllocatePoolWithQuota@8 0046f450 f   ntoswrk:VERIFIER.obj
 0001:0006e4e2       _MiPfFreeDummyPage@4       0046f4e2 f   ntoswrk:PFSUP.obj
 0001:0006e5e2       _MiMovePageToEndOfStandbyList@4 0046f5e2 f   ntoswrk:PFSUP.obj
 0001:0006e654       _MiPfPutPagesInTransition@8 0046f654 f   ntoswrk:PFSUP.obj
 0001:0006f006       _MiPfCompletePrefetchIos@4 00470006 f   ntoswrk:PFSUP.obj
 0001:0006f1d4       _VdmCheckPMCliTimeStamp@0  004701d4 f   ntoswrk:VDMENTRY.obj
 0001:0006f26e       _VdmSetPMCliTimeStamp@4    0047026e f   ntoswrk:VDMENTRY.obj
 0001:0006f2b8       _VdmClearPMCliTimeStamp@0  004702b8 f   ntoswrk:VDMENTRY.obj
 0001:0006f2de       _PopPassivePowerCall@4     004702de f   ntoswrk:POCALL.obj
 0001:0006f2fa       _PopFindIrpByInrush@0      004702fa f   ntoswrk:POCALL.obj
 0001:0006f328       _PopFindIrpByDeviceObject@8 00470328 f   ntoswrk:POCALL.obj
 0001:0006f366       _PopCompleteRequestIrp@12  00470366 f   ntoswrk:POCALL.obj
 0001:0006f40c       _PopPresentIrp@12          0047040c f   ntoswrk:POCALL.obj
 0001:0006f4f6       _PoStartNextPowerIrp@4     004704f6 f   ntoswrk:POCALL.obj
 0001:0006f7f0       _PoCallDriver@8            004707f0 f   ntoswrk:POCALL.obj
 0001:0006f9d0       _PoRequestPowerIrp@24      004709d0 f   ntoswrk:POCALL.obj
 0001:0006fb08       _PoCancelDeviceNotify@4    00470b08 f   ntoswrk:PONOTIFY.obj
 0001:0006fbba       _PopEnterNotification@28   00470bba f   ntoswrk:PONOTIFY.obj
 0001:0006fca4       _PopBuildPowerChannel@12   00470ca4 f   ntoswrk:PONOTIFY.obj
 0001:0006fe1a       _PopFindPowerDependencies@12 00470e1a f   ntoswrk:PONOTIFY.obj
 0001:0006ff6c       _PopPresentNotify@12       00470f6c f   ntoswrk:PONOTIFY.obj
 0001:0006ffe0       _PopRunDownSourceTargetList@4 00470fe0 f   ntoswrk:PONOTIFY.obj
 0001:000700f2       _PoRegisterDeviceNotify@24 004710f2 f   ntoswrk:PONOTIFY.obj
 0001:000701a8       _PopStateChangeNotify@8    004711a8 f   ntoswrk:PONOTIFY.obj
 0001:00070268       _PopScanIdleList@16        00471268 f   ntoswrk:IDLE.obj
 0001:00070324       _PopGetDope@4              00471324 f   ntoswrk:IDLE.obj
 0001:000703b4       _PoRegisterDeviceForIdleDetection@16 004713b4 f   ntoswrk:IDLE.obj
 0001:000704e4       _PopApplyAttributeState@8  004714e4 f   ntoswrk:ATTRIB.obj
 0001:00070562       _PopSystemRequiredSet@4    00471562 f   ntoswrk:ATTRIB.obj
 0001:0007057a       _PopDisplayRequired@4      0047157a f   ntoswrk:ATTRIB.obj
 0001:0007059e       _PoSetSystemState@4        0047159e f   ntoswrk:ATTRIB.obj
 0001:000705c4       _PoRegisterSystemState@8   004715c4 f   ntoswrk:ATTRIB.obj
 0001:00070626       _PoUnregisterSystemState@4 00471626 f   ntoswrk:ATTRIB.obj
 0001:0007064a       _PopUserPresentSet@4       0047164a f   ntoswrk:ATTRIB.obj
 0001:000706b4       _HIBER_GET_TICK_COUNT@4    004716b4 f i ntoswrk:HIBER.obj
 0001:000706e2       _PopGetRangeCount@4        004716e2 f   ntoswrk:HIBER.obj
 0001:00070722       _PopGetNextRange@16        00471722 f   ntoswrk:HIBER.obj
 0001:00070784       _PopSplitMdl@8             00471784 f   ntoswrk:HIBER.obj
 0001:00070992       _PopCreateHiberFileSecurityDescriptor@0 00471992 f   ntoswrk:HIBER.obj
 0001:00070b16       _PopSetRange@20            00471b16 f   ntoswrk:HIBER.obj
 0001:00070bb2       _PoSetPowerState@12        00471bb2 f   ntoswrk:POSTATE.obj
 0001:00070c84       _PopLockGetDoDevicePowerState@4 00471c84 f   ntoswrk:POSTATE.obj
 0001:00070cba       _PopResetActionDefaults@0  00471cba f   ntoswrk:PACTION.obj
 0001:00070cf0       _PopActionRetrieveInitialState@16 00471cf0 f   ntoswrk:PACTION.obj
 0001:00070da2       _RtlpVerCompare@20         00471da2 f   ntoswrk:VERSION.obj
 0001:00070e74       _RtlpVerGetConditionMask@12 00471e74 f   ntoswrk:VERSION.obj
 0001:00070ea4       _VerSetConditionMask@16    00471ea4 f   ntoswrk:VERSION.obj
 0001:00070ee0       _RtlVerifyVersionInfo@16   00471ee0 f   ntoswrk:VERSION.obj
 0001:00071280       _RtlRandomEx@4             00472280 f   ntoswrk:RANDOM.obj
 0001:000712c6       _VfIsVerificationEnabled@8 004722c6 f   ntoswrk:VFDDI.obj
 0001:0007131a       _VfFailDeviceNode          0047231a f   ntoswrk:VFDDI.obj
 0001:00071354       _VfFailSystemBIOS          00472354 f   ntoswrk:VFDDI.obj
 0001:0007138e       _VfFailDriver              0047238e f   ntoswrk:VFDDI.obj
 0001:000713d0       __CIcos                    004723d0 f   ntoswrk:cos.obj
 0001:000713e4       _cos                       004723e4     ntoswrk:cos.obj
 0001:00071490       __CIsin                    00472490 f   ntoswrk:sin.obj
 0001:000714a4       _sin                       004724a4     ntoswrk:sin.obj
 0001:00071550       __CIsqrt                   00472550 f   ntoswrk:sqrt.obj
 0001:00071564       _sqrt                      00472564     ntoswrk:sqrt.obj
 0001:00071610       __global_unwind2           00472610 f   ntoswrk:exsup.obj
 0001:0007166b       __local_unwind2            0047266b f   ntoswrk:exsup.obj
 0001:000716cb       __NLG_Return2              004726cb     ntoswrk:exsup.obj
 0001:000716db       __abnormal_termination     004726db f   ntoswrk:exsup.obj
 0001:000716fe       __NLG_Notify1              004726fe f   ntoswrk:exsup.obj
 0001:00071707       __NLG_Notify               00472707 f   ntoswrk:exsup.obj
 0001:0007171d       __NLG_Dispatch2            0047271d     ntoswrk:exsup.obj
 0001:0007171d       __NLG_Dispatch             0047271d     ntoswrk:exsup.obj
 0001:00071730       __alldiv                   00472730 f   ntoswrk:lldiv.obj
 0001:000717e0       __alldvrm                  004727e0 f   ntoswrk:lldvrm.obj
 0001:000718d0       __allmul                   004728d0 f   ntoswrk:llmul.obj
 0001:0007190c       __chkstk                   0047290c f   ntoswrk:chkstk.obj
 0001:0007190c       __alloca_probe             0047290c     ntoswrk:chkstk.obj
 0001:00071960       __allrem                   00472960 f   ntoswrk:llrem.obj
 0001:00071a20       __allshl                   00472a20 f   ntoswrk:llshl.obj
 0001:00071a50       __allshr                   00472a50 f   ntoswrk:llshr.obj
 0001:00071a80       __aulldiv                  00472a80 f   ntoswrk:ulldiv.obj
 0001:00071af0       __aulldvrm                 00472af0 f   ntoswrk:ulldvrm.obj
 0001:00071b90       __aullrem                  00472b90 f   ntoswrk:ullrem.obj
 0001:00071c10       __aullshr                  00472c10 f   ntoswrk:ullshr.obj
 0001:00071c38       __except_handler2          00472c38 f   ntoswrk:exsup2.obj
 0001:00071cf0       __except_handler3          00472cf0 f   ntoswrk:exsup3.obj
 0001:00071dd6       __seh_longjmp_unwind@4     00472dd6 f   ntoswrk:exsup3.obj
 0001:00071e3f       __itoa                     00472e3f f   ntoswrk:xtoa.obj
 0001:00071ec5       __itow                     00472ec5 f   ntoswrk:xtow.obj
 0001:00071ef4       __snprintf                 00472ef4 f   ntoswrk:snprintf.obj
 0001:00071f52       __snwprintf                00472f52 f   ntoswrk:snwprint.obj
 0001:00071fc9       __stricmp                  00472fc9 f   ntoswrk:stricmp.obj
 0001:00071fd9       __strlwr                   00472fd9 f   ntoswrk:strlwr.obj
 0001:00072006       __strnicmp                 00473006 f   ntoswrk:strnicmp.obj
 0001:00072020       __strnset                  00473020 f   ntoswrk:strnset.obj
 0001:00072050       __strrev                   00473050 f   ntoswrk:strrev.obj
 0001:00072090       __strset                   00473090 f   ntoswrk:strset.obj
 0001:000720b6       __strupr                   004730b6 f   ntoswrk:strupr.obj
 0001:000720e3       __vsnprintf                004730e3 f   ntoswrk:vsnprint.obj
 0001:00072140       __vsnwprintf               00473140 f   ntoswrk:vsnwprnt.obj
 0001:000721b6       __wcsicmp                  004731b6 f   ntoswrk:wcsicmp.obj
 0001:0007220a       __wcslwr                   0047320a f   ntoswrk:wcslwr.obj
 0001:00072240       __wcsnicmp                 00473240 f   ntoswrk:wcsnicmp.obj
 0001:000722a0       __wcsnset                  004732a0 f   ntoswrk:wcsnset.obj
 0001:000722d0       __wcsrev                   004732d0 f   ntoswrk:wcsrev.obj
 0001:0007230c       __wcsupr                   0047330c f   ntoswrk:wcsupr.obj
 0001:00072342       _atol                      00473342 f   ntoswrk:atox.obj
 0001:000723ce       _atoi                      004733ce f   ntoswrk:atox.obj
 0001:000723de       __atoi64                   004733de f   ntoswrk:atox.obj
 0001:0007249a       _isalpha                   0047349a f   ntoswrk:_ctype.obj
 0001:000724db       _isupper                   004734db f   ntoswrk:_ctype.obj
 0001:00072517       _islower                   00473517 f   ntoswrk:_ctype.obj
 0001:00072553       _isdigit                   00473553 f   ntoswrk:_ctype.obj
 0001:0007258f       _isxdigit                  0047358f f   ntoswrk:_ctype.obj
 0001:000725d0       _isspace                   004735d0 f   ntoswrk:_ctype.obj
 0001:0007260c       _isprint                   0047360c f   ntoswrk:_ctype.obj
 0001:0007264d       ___isascii                 0047364d f   ntoswrk:_ctype.obj
 0001:00072664       _mbstowcs                  00473664 f   ntoswrk:mbstowcs.obj
 0001:000726da       _mbtowc                    004736da f   ntoswrk:mbtowc.obj
 0001:00072720       _memchr                    00473720 f   ntoswrk:memchr.obj
 0001:000727e0       _memcpy                    004737e0 f   ntoswrk:memcpy.obj
 0001:00072b30       _memmove                   00473b30 f   ntoswrk:memmove.obj
 0001:00072e80       _memset                    00473e80 f   ntoswrk:memset.obj
 0001:00072f80       _qsort                     00473f80 f   ntoswrk:qsort.obj
 0001:000731ec       _srand                     004741ec f   ntoswrk:rand.obj
 0001:00073200       _rand                      00474200 f   ntoswrk:rand.obj
 0001:00073228       _sprintf                   00474228 f   ntoswrk:sprintf.obj
 0001:00073290       _strcpy                    00474290 f   ntoswrk:strcat.obj
 0001:000732a0       _strcat                    004742a0 f   ntoswrk:strcat.obj
 0001:000733a0       _strchr                    004743a0 f   ntoswrk:strchr.obj
 0001:000733a6       ___from_strstr_to_strchr   004743a6     ntoswrk:strchr.obj
 0001:00073470       _strcmp                    00474470 f   ntoswrk:strcmp.obj
 0001:00073500       _strlen                    00474500 f   ntoswrk:strlen.obj
 0001:00073590       _strncat                   00474590 f   ntoswrk:strncat.obj
 0001:000736d0       _strncmp                   004746d0 f   ntoswrk:strncmp.obj
 0001:00073710       _strncpy                   00474710 f   ntoswrk:strncpy.obj
 0001:00073840       _strrchr                   00474840 f   ntoswrk:strrchr.obj
 0001:00073880       _strspn                    00474880 f   ntoswrk:strspn.obj
 0001:000738d0       _strstr                    004748d0 f   ntoswrk:strstr.obj
 0001:0007395b       _swprintf                  0047495b f   ntoswrk:swprintf.obj
 0001:000739d1       _tolower                   004749d1 f   ntoswrk:tolower.obj
 0001:00073a17       _toupper                   00474a17 f   ntoswrk:toupper.obj
 0001:00073a6d       _towlower                  00474a6d f   ntoswrk:towlower.obj
 0001:00073a90       _towupper                  00474a90 f   ntoswrk:towupper.obj
 0001:00073aa4       _vsprintf                  00474aa4 f   ntoswrk:vsprintf.obj
 0001:00073b02       _wcscat                    00474b02 f   ntoswrk:wcscat.obj
 0001:00073b35       _wcscpy                    00474b35 f   ntoswrk:wcscat.obj
 0001:00073b59       _wcschr                    00474b59 f   ntoswrk:wcschr.obj
 0001:00073b84       _wcscmp                    00474b84 f   ntoswrk:wcscmp.obj
 0001:00073bc0       _wcscspn                   00474bc0 f   ntoswrk:wcscspn.obj
 0001:00073c0b       _wcslen                    00474c0b f   ntoswrk:wcslen.obj
 0001:00073c2a       _wcsncat                   00474c2a f   ntoswrk:wcsncat.obj
 0001:00073c6e       _wcsncmp                   00474c6e f   ntoswrk:wcsncmp.obj
 0001:00073caa       _wcsncpy                   00474caa f   ntoswrk:wcsncpy.obj
 0001:00073cef       _wcsrchr                   00474cef f   ntoswrk:wcsrchr.obj
 0001:00073d28       _wcsspn                    00474d28 f   ntoswrk:wcsspn.obj
 0001:00073d76       _wcsstr                    00474d76 f   ntoswrk:wcsstr.obj
 0001:00073ddc       _wcstombs                  00474ddc f   ntoswrk:wcstombs.obj
 0001:00073e5c       _wctomb                    00474e5c f   ntoswrk:wctomb.obj
 0001:00073ea0       __SEH_prolog               00474ea0 f   ntoswrk:sehprolg.obj
 0001:00073edb       __SEH_epilog               00474edb f   ntoswrk:sehprolg.obj
 0001:00073ef2       _CcPfEndBootTimerRoutine@16 00474ef2 f   ntoswrk:PREFBOOT.obj
 0001:00073f77       @__security_check_cookie@4 00474f77 f   ntoswrk:secchk.obj
 0001:00073f92       _RtlBackoff@4              00474f92 f   ntoswrk:BACKOFF.obj
 0001:00074018       _MiRecoverSpecialPtes@4    00475018 f   ntoswrk:SPECPOOL.obj
 0001:00074090       _MmQuerySpecialPoolBlockSize@4 00475090 f   ntoswrk:SPECPOOL.obj
 0001:000740be       _MmIsSpecialPoolAddress@4  004750be f   ntoswrk:SPECPOOL.obj
 0001:000740e4       _MmIsSpecialPoolAddressFree@4 004750e4 f   ntoswrk:SPECPOOL.obj
 0001:00074116       _MiCheckSingleFilter@8     00475116 f   ntoswrk:SPECPOOL.obj
 0001:0007415a       _MmUseSpecialPool@8        0047515a f   ntoswrk:SPECPOOL.obj
 0001:000741a6       _MmAllocateSpecialPool@16  004751a6 f   ntoswrk:SPECPOOL.obj
 0001:000741c4       _MmProtectSpecialPool@8    004751c4 f   ntoswrk:SPECPOOL.obj
 0001:000741e2       @CcPfAddRef@4              004751e2 f   ntoswrk:PREFETCH.obj
 0001:0007420c       @CcPfDecRef@4              0047520c f   ntoswrk:PREFETCH.obj
 0001:0007421a       @CcPfAddRefEx@8            0047521a f   ntoswrk:PREFETCH.obj
 0001:00074242       _CcPfReferenceProcessTrace@4 00475242 f   ntoswrk:PREFETCH.obj
 0001:00074304       _CcPfRemoveProcessTrace@4  00475304 f   ntoswrk:PREFETCH.obj
 0001:00074350       _CcPfAddProcessTrace@8     00475350 f   ntoswrk:PREFETCH.obj
 0001:0007438a       _CcPfHashValue@8           0047538a f   ntoswrk:PREFETCH.obj
 0001:000743c6       _CcPfActivateTrace@4       004753c6 f   ntoswrk:PREFETCH.obj
 0001:00074474       _CcPfTraceTimerRoutine@16  00475474 f   ntoswrk:PREFETCH.obj
 0001:00074542       _CcPfCancelTraceTimer@4    00475542 f   ntoswrk:PREFETCH.obj
 0001:0007458e       _CcPfLookUpSection@16      0047558e f   ntoswrk:PREFETCH.obj
 0001:00074668       _CcPfLogPageFault@16       00475668 f   ntoswrk:PREFETCH.obj
 0001:000748f8       _CcPfDeactivateTrace@4     004758f8 f   ntoswrk:PREFETCH.obj
 0001:000749cc       _IopMarkHalDeviceNode@0    004759cc f   ntoswrk:PNPINIT.obj
 0001:00074a06       _IopPnpDriverStarted@12    00475a06 f   ntoswrk:PNPINIT.obj
 0001:00074a52       _KdGetDataBlock@0          00475a52 f   ntoswrk:KDINIT.obj
 0001:00074a5e       _KdLogDbgPrint@4           00475a5e f   ntoswrk:KDINIT.obj
 0001:00074ba2       _KdSetDbgPrintBufferSize@4 00475ba2 f   ntoswrk:KDINIT.obj
 0001:00074ca2       _RotBarInit@0              00475ca2 f   ntoswrk:ANIM.obj
 0001:00074d72       _FadePalette@4             00475d72 f   ntoswrk:ANIM.obj
 0001:00074de2       _FadePaletteColor@8        00475de2 f   ntoswrk:ANIM.obj
 0001:00074e50       _RotBarUpdate@0            00475e50 f   ntoswrk:ANIM.obj
 0001:00075032       _InbvRotBarInit@0          00476032 f   ntoswrk:ANIM.obj
 0001:00075046       _InbvRotateGuiBootDisplay@4 00476046 f   ntoswrk:ANIM.obj
 0001:0007509c       _FinalizeBootLogo@0        0047609c f   ntoswrk:ANIM.obj
 0001:000750d0       _Ki386GetSelectorParameters@16 004760d0 f   ntoswrk:VDMKE.obj
 0001:0007520a       _KeVdmInsertQueueApc@32    0047620a f   ntoswrk:VDMKE.obj
 0001:000753de       _PoNotifySystemTimeSet@0   004763de f   ntoswrk:MISC.obj
 0001:0007541e       @PopInternalAddToDumpFile@24 0047641e f   ntoswrk:MISC.obj
 0001:000755b0       @_PopInternalError@4       004765b0 f   ntoswrk:MISC.obj
 0001:000755c8       _PoSimpleCheck@12          004765c8 f   ntoswrk:MISC.obj
 0001:000755d6       _PopLoggingInformation@8   004765d6 f   ntoswrk:MISC.obj
 0001:00075698       _PopGetReasonListByReasonCode@4 00476698 f   ntoswrk:MISC.obj
 0001:000756c4       _PopInsertLoggingEntry@4   004766c4 f   ntoswrk:MISC.obj
 0001:0007571c       _PopRemoveReasonRecordByReasonCode@4 0047671c f   ntoswrk:MISC.obj
 0001:0007575e       _PopReadShutdownPolicy@0   0047675e f   ntoswrk:MISC.obj
 0001:00075802       _PoRunDownDeviceObject@4   00476802 f   ntoswrk:MISC.obj
 0001:0007597c       _IopNotifyPnpWhenChainDereferenced@20 0047697c f   ntoswrk:PNPSUBS.obj
 0001:00075ac0       _PiLockDeviceActionQueue@0 00476ac0 f   ntoswrk:PNPENUM.obj
 0001:00075b2c       _PpMarkDeviceStackStartPending@8 00476b2c f   ntoswrk:PNPENUM.obj
 0001:00075b72       _PpRemoveDeviceActionRequests@4 00476b72 f   ntoswrk:PNPENUM.obj
 0001:00075bf6       _PiCollapseEnumRequests@4  00476bf6 f   ntoswrk:PNPENUM.obj
 0001:00075cac       _PipDeviceActionWorker@4   00476cac f   ntoswrk:PNPENUM.obj
 0001:00075f0a       _PiUnlockDeviceActionQueue@0 00476f0a f   ntoswrk:PNPENUM.obj
 0001:00075f76       _PipRequestDeviceAction@24 00476f76 f   ntoswrk:PNPENUM.obj
 0001:000760a2       _PpProcessClearProblem@4   004770a2 f   ntoswrk:PNPENUM.obj
 0001:00076108       _IopRemoveLockedDeviceNode@12 00477108 f   ntoswrk:PNPDEL.obj
 0001:0007635c       @IoPerfCompleteRequest@8   0047735c f   ntoswrk:IOPERF.obj
 0001:0007641e       _PipSetDevNodeState@12     0047741e f   ntoswrk:DEVNODE.obj
 0001:00076492       _PipRestoreDevNodeState@4  00477492 f   ntoswrk:DEVNODE.obj
 0001:000764de       _PpDevNodeInsertIntoTree@8 004774de f   ntoswrk:DEVNODE.obj
 0001:0007653c       _PpDevNodeRemoveFromTree@4 0047753c f   ntoswrk:DEVNODE.obj
 0001:000765c4       _Ki386SetupAndExitToV86Code@4 004775c4 f   ntoswrk:BIOSA.obj
 0001:000766da       Ki386BiosCallReturnAddress 004776da     ntoswrk:BIOSA.obj
 0001:00076744       _VdmDispatchOpcode_try@4   00477744 f   ntoswrk:VDMUSERREFS.obj
 0001:0007677c       _KdSetOwedBreakpoints@0    0047777c f   ntoswrk:KDBREAK.obj
 0001:00076854       _KdDeleteAllBreakpoints@0  00477854 f   ntoswrk:KDBREAK.obj
 0001:00076882       _KiEnableHeadlessBlueScreen@0 00477882 f   ntoswrk:BUGCHCKI.obj
 0001:00076900       _KiDumpParameterImages@16  00477900 f   ntoswrk:BUGCHCKI.obj
 0001:00076abe       _KiDisplayBlueScreen@20    00477abe f   ntoswrk:BUGCHCKI.obj
 0001:00076c7c       _KdpStub@24                00477c7c f   ntoswrk:KDTRAP.obj
 0001:00076d18       _PopIdleVerifyIdleHandlers@8 00477d18 f   ntoswrk:PIDLE.obj
 0001:00076dec       _PopConvertUsToPerfCount@4 00477dec f   ntoswrk:PIDLE.obj
 0001:00076e4a       @PopDemoteIdleness@8       00477e4a f   ntoswrk:PIDLE.obj
 0001:00076e78       @PopPromoteIdleness@8      00477e78 f   ntoswrk:PIDLE.obj
 0001:00076eae       _PopIdleUpdateIdleHandler@12 00477eae f   ntoswrk:PIDLE.obj
 0001:00077012       @PopProcessorIdle@4        00478012 f   ntoswrk:PIDLE.obj
 0001:000770e2       _PopPromoteFromIdle0@8     004780e2 f   ntoswrk:PIDLE.obj
 0001:00077170       @PopIdle0@4                00478170 f   ntoswrk:PIDLE.obj
 0001:000771be       _PopProcessorInformation@12 004781be f   ntoswrk:PIDLE.obj
 0001:00077318       _PopIdleSwitchIdleHandler@8 00478318 f   ntoswrk:PIDLE.obj
 0001:000773cc       _PopIdleSwitchIdleHandlers@8 004783cc f   ntoswrk:PIDLE.obj
 0001:00077496       _PopIdleUpdateIdleHandlers@0 00478496 f   ntoswrk:PIDLE.obj
 0001:00077597       __amsg_exit                00478597 f   ntoswrk:stubs.obj
 0001:0007759e       _StringCatExWorkerW@28     0047859e f i ntoswrk:PNPEVENT.obj
 0001:00077740       _StringCbCatExW@24         00478740 f i ntoswrk:PNPEVENT.obj
 0001:0007779c       _PopVerifyProcessorPowerPolicy@12 0047879c f   ntoswrk:PINFO.obj
 0001:0007782c       _PopVerifyThrottle@8       0047882c f   ntoswrk:PINFO.obj
 0001:00077852       _PopMapInternalActionToIrpAction@12 00478852 f   ntoswrk:PINFO.obj
 0001:00077886       _PopApplyProcessorPolicy@16 00478886 f   ntoswrk:PINFO.obj
 0001:00077a0c       _NtQueryDebugFilterState@8 00478a0c f   ntoswrk:KDQUERY.obj
 0001:00077a60       _VdmpQueueIntNopRoutine@12 00478a60 f   ntoswrk:VDMINTS.obj
 0001:00077a68       _VdmRundownDpcs@4          00478a68 f   ntoswrk:VDMINTS.obj
 0001:00077b0c       _VdmpQueueIntApcRoutine@20 00478b0c f   ntoswrk:VDMINTS.obj
 0001:00077d9a       _VdmpDelayIntApcRoutine@20 00478d9a f   ntoswrk:VDMINTS.obj
 0001:00077eb0       _VdmpQueueInterrupt@4      00478eb0 f   ntoswrk:VDMINTS.obj
 0001:00077f6e       _VdmpDelayIntDpcRoutine@16 00478f6e f   ntoswrk:VDMINTS.obj
 0001:00078060       _VdmpDelayInterrupt@4      00479060 f   ntoswrk:VDMINTS.obj
 0001:000784b4       _MiDoCopyMemory@16         004794b4 f   ntoswrk:MMPATCH.obj
 0001:0007859c       _MmSizeOfUnloadedDriverInformation@0 0047959c f   ntoswrk:MMTRIAGE.obj
 0001:000785b4       _MmWriteUnloadedDriverInformation@4 004795b4 f   ntoswrk:MMTRIAGE.obj
 0001:00078672       _MmSizeOfTriageInformation@0 00479672 f   ntoswrk:MMTRIAGE.obj
 0001:0007867c       _MmWriteTriageInformation@4 0047967c f   ntoswrk:MMTRIAGE.obj
 0001:0007871c       _PopCaptureCounts@16       0047971c f   ntoswrk:SIDLE.obj
 0001:000789b8       _strtol                    004799b8 f   ntoswrk:strtol.obj
 0001:000789d7       _strtoul                   004799d7 f   ntoswrk:strtol.obj
 0001:00078bc2       _wcstol                    00479bc2 f   ntoswrk:wcstol.obj
 0001:00078be1       _iswctype                  00479be1 f   ntoswrk:iswctype.obj
 0001:00078c18       __wtol                     00479c18 f   ntoswrk:wtox.obj
 0001:00078c84       __wtoi                     00479c84 f   ntoswrk:wtox.obj
 0001:00078c94       _MY_READ_PORT_UCHAR@4      00479c94 f   ntoswrk:PORT.obj
 0001:00078ca4       _MY_READ_REGISTER_UCHAR@4  00479ca4 f   ntoswrk:PORT.obj
 0001:00078cb2       _MY_WRITE_PORT_UCHAR@8     00479cb2 f   ntoswrk:PORT.obj
 0001:00078cc2       _MY_WRITE_REGISTER_UCHAR@8 00479cc2 f   ntoswrk:PORT.obj
 0001:00078cd0       _InbvPortTerminate@4       00479cd0 f   ntoswrk:PORT.obj
 0001:00078cec       _CpEnableFifo@8            00479cec f   ntoswrk:PORT.obj
 0001:00078d08       _CpDoesPortExist@4         00479d08 f   ntoswrk:PORT.obj
 0001:00078d6e       _CpReadLsr@8               00479d6e f   ntoswrk:PORT.obj
 0001:00078dbc       _CpSetBaud@8               00479dbc f   ntoswrk:PORT.obj
 0001:00078e28       _CpGetByte@16              00479e28 f   ntoswrk:PORT.obj
 0001:00078eb0       _CpPutByte@8               00479eb0 f   ntoswrk:PORT.obj
 0001:00078f14       _InbvPortPutByte@8         00479f14 f   ntoswrk:PORT.obj
 0001:00078f36       _InbvPortGetByte@8         00479f36 f   ntoswrk:PORT.obj
 0001:00078f62       _InbvPortPollOnly@4        00479f62 f   ntoswrk:PORT.obj
 0001:00078f90       _CpInitialize@12           00479f90 f   ntoswrk:PORT.obj
 0001:00078fce       _InbvPortEnableFifo@8      00479fce f   ntoswrk:PORT.obj
 0001:00078ff0       _InbvPortInitialize@20     00479ff0 f   ntoswrk:PORT.obj
 0001:000790dc       @PpvUtilCallAddDevice@16   0047a0dc f   ntoswrk:PPVUTIL.obj
 0001:00079126       @PpvUtilTestStartedPdoStack@4 0047a126 f   ntoswrk:PPVUTIL.obj
 0001:0007913a       @PpvUtilFailDriver@16      0047a13a f   ntoswrk:PPVUTIL.obj
 0001:000791b8       _IopDeviceEjectComplete@12 0047a1b8 f   ntoswrk:PNPIRP.obj
 0001:000791fc       _IopLockMountedDeviceForRemove@12 0047a1fc f   ntoswrk:PNPIRP.obj
 0001:000792d0       _IopUnlockMountedDeviceForRemove@12 0047a2d0 f   ntoswrk:PNPIRP.obj
 0001:00079356       _IopQueryDeviceRelations@16 0047a356 f   ntoswrk:PNPIRP.obj
 0001:000793c2       _PiIrpQueryRemoveDeviceCompletionRoutine@12 0047a3c2 f   ntoswrk:PNPIRP.obj
 0001:00079406       _KdpIsTryFinallyReturn@8   0047a406 f   ntoswrk:KDCPUAPI.obj
 0001:000794b2       _MiDbgWriteCheck@12        0047a4b2 f   ntoswrk:DEBUGSUP.obj
 0001:00079534       _MiDbgReleaseAddress@8     0047a534 f   ntoswrk:DEBUGSUP.obj
 0001:0007957c       _MiDbgTranslatePhysicalAddress@12 0047a57c f   ntoswrk:DEBUGSUP.obj
 0001:000796f8       _MiDbgUnTranslatePhysicalAddress@0 0047a6f8 f   ntoswrk:DEBUGSUP.obj
 0001:0007971a       _MmDbgCopyMemory@20        0047a71a f   ntoswrk:DEBUGSUP.obj
 0001:00079c66       _MmDbgIsLowMemOk@12        0047ac66 f   ntoswrk:DEBUGSUP.obj
 0001:00079c7c       _MiIsAddressRangeValid@8   0047ac7c f   ntoswrk:CRASHDMP.obj
 0001:00079cce       _MiRemoveFreePoolMemoryFromDump@4 0047acce f   ntoswrk:CRASHDMP.obj
 0001:00079d62       _MiAddPagesWithNoMappings@4 0047ad62 f   ntoswrk:CRASHDMP.obj
 0001:00079da8       _MiAddRangeToCrashDump@12  0047ada8 f   ntoswrk:CRASHDMP.obj
 0001:00079f26       _MiAddActivePageDirectories@4 0047af26 f   ntoswrk:CRASHDMP.obj
 0001:00079f72       _MmGetKernelDumpRange@4    0047af72 f   ntoswrk:CRASHDMP.obj
 0001:00079fa6       _INCREMENT_SCATTER_GATHER_LISTS@4 0047afa6 f i ntoswrk:VFHAL.obj
 0001:00079fca       _VF_FIND_BUFFER@8          0047afca f i ntoswrk:VFHAL.obj
 0001:0007a018       _VF_FIND_DEVICE_INFORMATION@4 0047b018 f i ntoswrk:VFHAL.obj
 0001:0007a062       _VF_FIND_INACTIVE_ADAPTER@4 0047b062 f i ntoswrk:VFHAL.obj
 0001:0007a0b8       _VF_MARK_FOR_DEFERRED_REMOVE@4 0047b0b8 f i ntoswrk:VFHAL.obj
 0001:0007a0fe       _VF_MARK_SCATTER_GATHER_LIST@8 0047b0fe f i ntoswrk:VFHAL.obj
 0001:0007a122       _VF_UNMARK_SCATTER_GATHER_LIST@8 0047b122 f i ntoswrk:VFHAL.obj
 0001:0007a152       _VfIsPCIBus@4              0047b152 f   ntoswrk:VFHAL.obj
 0001:0007a1b2       _VfGetPDO@4                0047b1b2 f   ntoswrk:VFHAL.obj
 0001:0007a1d6       _VfDisableHalVerifier@0    0047b1d6 f   ntoswrk:VFHAL.obj
 0001:0007a210       _VF_ASSERT_IRQL@4          0047b210 f i ntoswrk:VFHAL.obj
 0001:0007a2a4       _VF_ASSERT_MAX_IRQL@4      0047b2a4 f i ntoswrk:VFHAL.obj
 0001:0007a338       _ADD_MAP_REGISTERS@12      0047b338 f i ntoswrk:VFHAL.obj
 0001:0007a462       _SUBTRACT_MAP_REGISTERS@8  0047b462 f i ntoswrk:VFHAL.obj
 0001:0007a500       _DECREMENT_COMMON_BUFFERS@4 0047b500 f i ntoswrk:VFHAL.obj
 0001:0007a598       _INCREASE_MAPPED_TRANSFER_BYTE_COUNT@8 0047b598 f i ntoswrk:VFHAL.obj
 0001:0007a634       _INCREMENT_ADAPTER_CHANNELS@4 0047b634 f i ntoswrk:VFHAL.obj
 0001:0007a6d4       _DECREMENT_ADAPTER_CHANNELS@4 0047b6d4 f i ntoswrk:VFHAL.obj
 0001:0007a76e       _DECREMENT_SCATTER_GATHER_LISTS@4 0047b76e f i ntoswrk:VFHAL.obj
 0001:0007a80a       _VERIFY_BUFFER_LOCKED@4    0047b80a f i ntoswrk:VFHAL.obj
 0001:0007a8a0       _VfCalculateScatterGatherListSize@24 0047b8a0 f   ntoswrk:VFHAL.obj
 0001:0007a8b6       _VfBuildMdlFromScatterGatherList@16 0047b8b6 f   ntoswrk:VFHAL.obj
 0001:0007a9c4       _Ki386LoadTargetInt21Entry@16 0047b9c4 f   ntoswrk:VDMINT21.obj
 0001:0007aa22       _Ke386SetVdmInterruptHandler@20 0047ba22 f   ntoswrk:VDMINT21.obj
 0001:0007aab0       _PopCalculateBusyPercentage@4 0047bab0 f   ntoswrk:THROTTLE.obj
 0001:0007ab1a       _PopCalculateC3Percentage@4 0047bb1a f   ntoswrk:THROTTLE.obj
 0001:0007abce       _PopRoundThrottle@20       0047bbce f   ntoswrk:THROTTLE.obj
 0001:0007ace2       _PopSetThrottle@20         0047bce2 f   ntoswrk:THROTTLE.obj
 0001:0007ad90       _PopUpdateProcessorThrottle@0 0047bd90 f   ntoswrk:THROTTLE.obj
 0001:0007aefa       _PopPerfIdle@4             0047befa f   ntoswrk:THROTTLE.obj
 0001:0007b046       _PopPerfIdleDpc@16         0047c046 f   ntoswrk:THROTTLE.obj
 0001:0007b060       _PopSetPerfFlagAndUpdateThrottle@12 0047c060 f   ntoswrk:THROTTLE.obj
 0001:0007b0c8       _PopSetPerfLevels@4        0047c0c8 f   ntoswrk:THROTTLE.obj
 0001:0007b4fe       _PopUpdateAllThrottles@4   0047c4fe f   ntoswrk:THROTTLE.obj
 0001:0007b54c       _PopPerfHandleInrush@4     0047c54c f   ntoswrk:THROTTLE.obj
 0001:0007b580       _PopLogNotifyDevice@12     0047c580 f   ntoswrk:SYSDEV.obj
 0001:0007b650       _IovUtilRelateDeviceObjects@12 0047c650 f   ntoswrk:IOVUTIL.obj
 0001:0007b6f0       @IovUtilMarkDeviceObject@8 0047c6f0 f   ntoswrk:IOVUTIL.obj
 0001:0007b73c       @IovUtilMarkStack@16       0047c73c f   ntoswrk:IOVUTIL.obj
 0001:0007b79a       @IovUtilWatermarkIrp@8     0047c79a f   ntoswrk:IOVUTIL.obj
 0001:0007b7ae       _PopGetPolicyWorker@4      0047c7ae f   ntoswrk:PWORK.obj
 0001:0007b7dc       _PopCompletePolicyIrp@12   0047c7dc f   ntoswrk:PWORK.obj
 0001:0007b86a       _PopPolicyWorkerThread@4   0047c86a f   ntoswrk:PWORK.obj
 0001:0007b924       _PopEventCalloutDispatch@8 0047c924 f   ntoswrk:PWORK.obj
 0001:0007ba26       _PopSetNotificationWork@4  0047ca26 f   ntoswrk:PWORK.obj
 0001:0007ba50       _PopAttribNop@4            0047ca50 f   ntoswrk:ATTRIB.obj
 0001:0007ba50       _KiSuspendRundown@4        0047ca50 f   ke:thredsup.obj
 0001:0007ba50       _PopDispatchProcessorPolicyCallout@4 0047ca50 f   ntoswrk:PWORK.obj
 0001:0007ba58       _PopCheckForWork@4         0047ca58 f   ntoswrk:PWORK.obj
 0001:0007bb10       __trandisp1                0047cb10 f   ntoswrk:87disp.obj
 0001:0007bb77       __trandisp2                0047cb77 f   ntoswrk:87disp.obj
 0001:0007bc03       __rttospopde               0047cc03     ntoswrk:87disp.obj
 0001:0007bc08       __rttospop                 0047cc08     ntoswrk:87disp.obj
 0001:0007bc0a       __rtnospop                 0047cc0a     ntoswrk:87disp.obj
 0001:0007bc0c       __rttosnpop                0047cc0c     ntoswrk:87disp.obj
 0001:0007bc0d       __rtnospopde               0047cc0d     ntoswrk:87disp.obj
 0001:0007bc14       __rtzeropop                0047cc14     ntoswrk:87disp.obj
 0001:0007bc16       __rtzeronpop               0047cc16     ntoswrk:87disp.obj
 0001:0007bc1b       __rtonepop                 0047cc1b     ntoswrk:87disp.obj
 0001:0007bc1d       __rtonenpop                0047cc1d     ntoswrk:87disp.obj
 0001:0007bc22       __tosnan1                  0047cc22     ntoswrk:87disp.obj
 0001:0007bc4d       __nosnan2                  0047cc4d     ntoswrk:87disp.obj
 0001:0007bc4f       __tosnan2                  0047cc4f     ntoswrk:87disp.obj
 0001:0007bc77       __nan2                     0047cc77     ntoswrk:87disp.obj
 0001:0007bcb6       __rtindfpop                0047ccb6     ntoswrk:87disp.obj
 0001:0007bcb8       __rtindfnpop               0047ccb8     ntoswrk:87disp.obj
 0001:0007bcc9       __rttosnpopde              0047ccc9     ntoswrk:87disp.obj
 0001:0007bcd3       __rtchsifneg               0047ccd3     ntoswrk:87disp.obj
 0001:0007bce0       __twoToTOS                 0047cce0 f   ntoswrk:common.obj
 0001:0007bcf5       __load_CW                  0047ccf5 f   ntoswrk:common.obj
 0001:0007bd0c       __convertTOStoQNaN         0047cd0c f   ntoswrk:common.obj
 0001:0007bd25       __fload_withFB             0047cd25 f   ntoswrk:common.obj
 0001:0007bd68       __checkTOS_withFB          0047cd68 f   ntoswrk:common.obj
 0001:0007bd7e       __fast_exit                0047cd7e f   ntoswrk:common.obj
 0001:0007bd8b       __math_exit                0047cd8b f   ntoswrk:common.obj
 0001:0007bdb5       __check_overflow_exit      0047cdb5 f   ntoswrk:common.obj
 0001:0007bdc9       __check_range_exit         0047cdc9 f   ntoswrk:common.obj
 0001:0007be80       __startTwoArgErrorHandling 0047ce80 f   ntoswrk:genexcep.obj
 0001:0007be97       __startOneArgErrorHandling 0047ce97 f   ntoswrk:genexcep.obj
 0001:0007bed8       __ValidateEH3RN            0047ced8 f   ntoswrk:eh3valid.obj
 0001:0007bef1       __flsbuf                   0047cef1 f   ntoswrk:_flsbuf.obj
 0001:0007bfa9       __output                   0047cfa9 f   ntoswrk:output.obj
 0001:0007ca1a       __woutput                  0047da1a f   ntoswrk:woutput.obj
 0001:0007d450       ___ascii_stricmp           0047e450 f   ntoswrk:_stricmp.obj
 0001:0007d4b0       ___ascii_strnicmp          0047e4b0 f   ntoswrk:_strnicm.obj
 0001:0007d516       __matherr                  0047e516 f   ntoswrk:matherr.obj
 0001:0007d516       __isctype                  0047e516 f   ntoswrk:isctype.obj
 0001:0007d51e       __mbstrlen                 0047e51e f   ntoswrk:_mbslen.obj
 0001:0007d560       _IopPowerDispatch@8        0047e560 f   ntoswrk:PNPDD.obj
 0001:0007d5d8       _IopPnPCompleteRequest@12  0047e5d8 f   ntoswrk:PNPDD.obj
 0001:0007d6b0       _PiProfileUpdateHardwareProfile@4 0047e6b0 f   ntoswrk:PPPROFILE.obj
 0001:0007d8ae       __memicmp                  0047e8ae f   ntoswrk:memicmp.obj
 0001:0007d8cc       _tcpxsum@12                0047e8cc f   ntoswrk:XSUM.obj
 0001:0007da9e       _KdpReport@24              0047ea9e f   ntoswrk:PRINT.obj
 0001:0007db92       _PpHandleEnumerateHandlesAgainstPdoStack@12 0047eb92 f   ntoswrk:PPHANDLE.obj
 0001:0007dc60       _PopThermalZoneCleanup@12  0047ec60 f   ntoswrk:THERMAL.obj
 0001:0007dcb0       _PopThermalZoneDpc@16      0047ecb0 f   ntoswrk:THERMAL.obj
 0001:0007dcee       _PopApplyThermalThrottle@0 0047ecee f   ntoswrk:THERMAL.obj
 0001:0007deb0       _PopThermalUpdateThrottle@12 0047eeb0 f   ntoswrk:THERMAL.obj
 0001:0007e05c       _PopCompositeBatteryUpdateThrottleLimit@8 0047f05c f   ntoswrk:PBATT.obj
 0001:0007e166       _RtlpSearchValidationCode@16 0047f166 f   ntoswrk:RTLPATCH.obj
 0001:0007e1d0       _RtlpNormalizePeHeaderForIdHash@4 0047f1d0 f   ntoswrk:RTLPATCH.obj
 0001:0007e348       _RtlpCopyAndNormalizePeHeaderForHash@20 0047f348 f   ntoswrk:RTLPATCH.obj
 0001:0007e3ce       _RtlpPeHeaderHash2@8       0047f3ce f   ntoswrk:RTLPATCH.obj
 0001:0007e428       _RtlpGetColdpatchDebugSignature@4 0047f428 f   ntoswrk:RTLPATCH.obj
 0001:0007e4cc       _RtlpValidatePeHeaderHash2@8 0047f4cc f   ntoswrk:RTLPATCH.obj
 0001:0007e598       _RtlpValidatePeChecksum@8  0047f598 f   ntoswrk:RTLPATCH.obj
 0001:0007e66c       _RtlpValidateTargetModule@8 0047f66c f   ntoswrk:RTLPATCH.obj
 0001:0007e6fa       _TriageActUpon@4           0047f6fa f   ntoswrk:TRIAGE.obj
 0001:0007e72a       _TriageGetLoaderEntry@8    0047f72a f   ntoswrk:TRIAGE.obj
 0001:0007e77e       _TriageGetMmInformation@4  0047f77e f   ntoswrk:TRIAGE.obj
 0001:0007e7ab       __wchartodigit             0047f7ab f   ntoswrk:wchtodig.obj
 0001:0007e92d       __87except                 0047f92d f   ntoswrk:87except.obj
 0001:0007ea6d       _fputwc                    0047fa6d f   ntoswrk:fputwc.obj
 0001:0007eaa0       ___ascii_memicmp           0047faa0 f   ntoswrk:_memicmp.obj
 0001:0007eafe       _RaiseException@16         0047fafe f   ntoswrk:fpexcept.obj
 0001:0007eb5a       __raise_exc_ex             0047fb5a f   ntoswrk:fpexcept.obj
 0001:0007edd0       __raise_exc                0047fdd0 f   ntoswrk:fpexcept.obj
 0001:0007edf8       __handle_exc               0047fdf8 f   ntoswrk:fpexcept.obj
 0001:0007f023       __set_errno                00480023 f   ntoswrk:fpexcept.obj
 0001:0007f053       __statfp                   00480053 f   ntoswrk:fpctrl.obj
 0001:0007f068       __clrfp                    00480068 f   ntoswrk:fpctrl.obj
 0001:0007f07e       __ctrlfp                   0048007e f   ntoswrk:fpctrl.obj
 0001:0007f0a9       __set_statfp               004800a9 f   ntoswrk:fpctrl.obj
 0001:0007f106       __fptrap                   00480106 f   ntoswrk:crt0fp.obj
 0001:0007f114       __flswbuf                  00480114 f   ntoswrk:_flswbuf.obj
 0001:0007f12c       __set_exp                  0048012c f   ntoswrk:util.obj
 0001:0007f15d       __decomp                   0048015d f   ntoswrk:util.obj
 0001:0007f220       @KeReleaseQueuedSpinLock@8 00480220 f   hal:HAL.dll
 0001:0007f22c       @KeAcquireQueuedSpinLock@4 0048022c f   hal:HAL.dll
 0001:0007f238       @KfReleaseSpinLock@8       00480238 f   hal:HAL.dll
 0001:0007f244       @KfAcquireSpinLock@4       00480244 f   hal:HAL.dll
 0001:0007f250       @KfLowerIrql@4             00480250 f   hal:HAL.dll
 0001:0007f25c       @KfRaiseIrql@4             0048025c f   hal:HAL.dll
 0001:0007f268       _KeRaiseIrqlToDpcLevel@0   00480268 f   hal:HAL.dll
 0001:0007f274       @HalSystemVectorDispatchEntry@12 00480274 f   hal:HAL.dll
 0001:0007f280       _KeReleaseSpinLock@8       00480280 f   hal:HAL.dll
 0001:0007f28c       _KeAcquireSpinLock@8       0048028c f   hal:HAL.dll
 0001:0007f298       _KeLowerIrql@4             00480298 f   hal:HAL.dll
 0001:0007f2a4       _KeRaiseIrql@8             004802a4 f   hal:HAL.dll
 0001:0007f2b0       _HalReadDmaCounter@4       004802b0 f   hal:HAL.dll
 0001:0007f2bc       _IoMapTransfer@24          004802bc f   hal:HAL.dll
 0001:0007f2c8       _IoFreeMapRegisters@12     004802c8 f   hal:HAL.dll
 0001:0007f2d4       _IoFreeAdapterChannel@4    004802d4 f   hal:HAL.dll
 0001:0007f2e0       _IoFlushAdapterBuffers@24  004802e0 f   hal:HAL.dll
 0001:0007f2ec       _HalFreeCommonBuffer@24    004802ec f   hal:HAL.dll
 0001:0007f2f8       _HalAllocateCommonBuffer@16 004802f8 f   hal:HAL.dll
 0001:0007f304       _VidCleanUp@0              00480304 f   bootvid:BOOTVID.dll
 0001:0007f310       _VidResetDisplay@4         00480310 f   bootvid:BOOTVID.dll
 0001:0007f31c       _VidScreenToBufferBlt@24   0048031c f   bootvid:BOOTVID.dll
 0001:0007f328       _VidBufferToScreenBlt@24   00480328 f   bootvid:BOOTVID.dll
 0001:0007f334       _VidBitBlt@12              00480334 f   bootvid:BOOTVID.dll
 0001:0007f340       _VidSolidColorFill@20      00480340 f   bootvid:BOOTVID.dll
 0001:0007f34c       _VidSetTextColor@4         0048034c f   bootvid:BOOTVID.dll
 0001:0007f358       _VidDisplayString@4        00480358 f   bootvid:BOOTVID.dll
 0001:0007f364       _VidInitialize@4           00480364 f   bootvid:BOOTVID.dll
 0001:0007f370       _VidSetScrollRegion@16     00480370 f   bootvid:BOOTVID.dll
 0001:0007f37b       _SdbpIsExeEntryEnabled@16  0048037b f   sdbapint:sdbapi.obj
 0001:0007f3d1       _SdbpFormatMatchModeType@4 004803d1 f   sdbapint:sdbapi.obj
 0001:0007f407       _SdbpResolveAndSplitPath@28 00480407 f   sdbapint:sdbapi.obj
 0001:0007f509       _SdbpFormatMatchMode@4     00480509 f   sdbapint:sdbapi.obj
 0001:0007f555       _SdbpCheckExe@44           00480555 f   sdbapint:sdbapi.obj
 0001:0007f605       _SdbQueryDataExTagID@28    00480605 f   sdbapint:sdbapi.obj
 0001:0007f936       _KdDebuggerInitialize1@4   00480936 f   kdcom:KDCOM.dll
 0001:0007f942       _KdSave@4                  00480942 f   kdcom:KDCOM.dll
 0001:0007f94e       _KdRestore@4               0048094e f   kdcom:KDCOM.dll
 0001:0007f95a       _KdSendPacket@16           0048095a f   kdcom:KDCOM.dll
 0001:0007f966       _KdD0Transition@0          00480966 f   kdcom:KDCOM.dll
 0001:0007f972       _KdD3Transition@0          00480972 f   kdcom:KDCOM.dll
 0001:0007f97e       _KdReceivePacket@20        0048097e f   kdcom:KDCOM.dll
 0001:0007f98a       _KdDebuggerInitialize0@4   0048098a f   kdcom:KDCOM.dll
 0001:0007f996       _ExInsertTailNBQueue@12    00480996 f   ex:nbqueue.obj
 0001:0007fa60       _ExRemoveHeadNBQueue@8     00480a60 f   ex:nbqueue.obj
 0001:0007fb12       _IopCheckUnloadDriver@8    00480b12 f   iomgr:loadunld.obj
 0001:0007fbba       _KiFlushTargetEntireTb@16  00480bba f   ke:flushtb.obj
 0001:0007fbd4       _KiFlushTargetProcessTb@16 00480bd4 f   ke:flushtb.obj
 0001:0007fbee       _KiFlushTargetMultipleTb@16 00480bee f   ke:flushtb.obj
 0001:0007fc18       _KiFlushTargetSingleTb@16  00480c18 f   ke:flushtb.obj
 0001:0007fc32       _KxFlushEntireTb@0         00480c32 f   ke:flushtb.obj
 0001:0007fcd2       _KeFlushProcessTb@0        00480cd2 f   ke:flushtb.obj
 0001:0007fd42       _KeFlushMultipleTb@12      00480d42 f   ke:flushtb.obj
 0001:0007fdde       @KeFlushSingleTb@8         00480dde f   ke:flushtb.obj
 0001:0007fe68       _KiAdjustIrpCredits@0      00480e68 f   ke:balmgr.obj
 0001:0007fede       _KiInSwapKernelStacks@4    00480ede f   ke:balmgr.obj
 0001:0007ff4a       _KiInSwapProcesses@4       00480f4a f   ke:balmgr.obj
 0001:0007ffbe       _KiOutSwapKernelStacks@0   00480fbe f   ke:balmgr.obj
 0001:000800ec       _KiOutSwapProcesses@4      004810ec f   ke:balmgr.obj
 0001:000801c4       _KiScanReadyQueues@16      004811c4 f   ke:balmgr.obj
 0001:0008036e       _KeBalanceSetManager@4     0048136e f   ke:balmgr.obj
 0001:0008047c       _KeSwapProcessOrStack@4    0048147c f   ke:balmgr.obj
 0001:00080500       _Ki386LoadTargetLdtr@16    00481500 f   ke:ldtsup.obj
 0001:0008053e       _Ki386FlushTargetDescriptors@16 0048153e f   ke:ldtsup.obj
 0001:00080584       _Ke386SetLdtProcess@12     00481584 f   ke:ldtsup.obj
 0001:00080604       _Ke386SetDescriptorProcess@16 00481604 f   ke:ldtsup.obj
 0001:00080650       @RtlInterlockedSetClearBits@12 00481650 f   ntosrtl:intbits.obj
 0001:0008068a       _RawCompletionRoutine@12   0048168a f   raw:RawDisp.obj
 0001:000806d6       _RawVerifyVolume@8         004816d6 f   raw:FsCtrl.obj
 0001:00080768       _RawCheckForDismount@8     00481768 f   raw:StrucSup.obj
 0001:0008085c       _PerfSetLogging@4          0048185c f   ntoswrk:SETLOG.obj
 0001:00080898       @ExInterlockedAddLargeStatistic@8 00481898 f   ex:intrlfst.obj
 0001:000808a4       @ExfInterlockedAddUlong@12 004818a4 f   ex:intrlfst.obj
 0001:000808d0       @ExfInterlockedInsertHeadList@12 004818d0 f   ex:intrlfst.obj
 0001:00080908       @ExfInterlockedInsertTailList@12 00481908 f   ex:intrlfst.obj
 0001:00080940       @ExfInterlockedRemoveHeadList@8 00481940 f   ex:intrlfst.obj
 0001:00080974       @ExfInterlockedPopEntryList@8 00481974 f   ex:intrlfst.obj
 0001:000809a4       @ExfInterlockedPushEntryList@12 004819a4 f   ex:intrlfst.obj
 0001:000809dc       @Exfi386InterlockedIncrementLong@4 004819dc f   ex:intrlfst.obj
 0001:000809e8       @Exfi386InterlockedDecrementLong@4 004819e8 f   ex:intrlfst.obj
 0001:000809f4       @Exfi386InterlockedExchangeUlong@8 004819f4 f   ex:intrlfst.obj
 0001:000809fc       @__InterlockedIncrement@4  004819fc f   ex:intrlfst.obj
 0001:00080a08       @__InterlockedDecrement@4  00481a08 f   ex:intrlfst.obj
 0001:00080a14       @__InterlockedCompareExchange@12 00481a14 f   ex:intrlfst.obj
 0001:00080a20       @ExfInterlockedCompareExchange64@12 00481a20 f   ex:intrlfst.obj
 0001:00080a3c       @ExInterlockedCompareExchange64@16 00481a3c f   ex:intrlfst.obj
 0001:00080a58       @__InterlockedExchangeAdd@8 00481a58 f   ex:intrlfst.obj
 0001:00080a64       _ExInterlockedAddLargeInteger@16 00481a64 f   ex:intrlock.obj
 0001:00080ab4       _ExInterlockedAddUlong@12  00481ab4 f   ex:intrlock.obj
 0001:00080ae8       _ExInterlockedInsertHeadList@12 00481ae8 f   ex:intrlock.obj
 0001:00080b2c       _ExInterlockedInsertTailList@12 00481b2c f   ex:intrlock.obj
 0001:00080b70       _ExInterlockedRemoveHeadList@8 00481b70 f   ex:intrlock.obj
 0001:00080bbc       _ExInterlockedPopEntryList@8 00481bbc f   ex:intrlock.obj
 0001:00080bf4       _ExInterlockedPushEntryList@12 00481bf4 f   ex:intrlock.obj
 0001:00080c2c       _ExInterlockedIncrementLong@8 00481c2c f   ex:intrlock.obj
 0001:00080c40       _ExInterlockedDecrementLong@8 00481c40 f   ex:intrlock.obj
 0001:00080c54       _ExInterlockedExchangeUlong@12 00481c54 f   ex:intrlock.obj
 0001:00080c64       _Exi386InterlockedIncrementLong@4 00481c64 f   ex:intrlock.obj
 0001:00080c78       _Exi386InterlockedDecrementLong@4 00481c78 f   ex:intrlock.obj
 0001:00080c8c       _Exi386InterlockedExchangeUlong@8 00481c8c f   ex:intrlock.obj
 0001:00080ca0       @KefAcquireSpinLockAtDpcLevel@4 00481ca0 f   ke:spinlock.obj
 0001:00080cb4       _KeAcquireSpinLockAtDpcLevel@4 00481cb4 f   ke:spinlock.obj
 0001:00080ce0       @KefReleaseSpinLockFromDpcLevel@4 00481ce0 f   ke:spinlock.obj
 0001:00080ce8       _KeReleaseSpinLockFromDpcLevel@4 00481ce8 f   ke:spinlock.obj
 0001:00080d00       @KiAcquireSpinLock@4       00481d00 f   ke:spinlock.obj
 0001:00080d20       @KiReleaseSpinLock@4       00481d20 f   ke:spinlock.obj
 0001:00080d28       _KeTryToAcquireSpinLock@8  00481d28 f   ke:spinlock.obj
 0001:00080d6c       @KeTryToAcquireSpinLockAtDpcLevel@4 00481d6c f   ke:spinlock.obj
 0001:00080d84       @KeTestSpinLock@4          00481d84 f   ke:spinlock.obj
 0001:00080da0       @KeAcquireInStackQueuedSpinLockAtDpcLevel@8 00481da0 f   ke:spinlock.obj
 0001:00080db0       @KeAcquireQueuedSpinLockAtDpcLevel@4 00481db0 f   ke:spinlock.obj
 0001:00080dd8       @KeReleaseInStackQueuedSpinLockFromDpcLevel@4 00481dd8 f   ke:spinlock.obj
 0001:00080ddc       @KeReleaseQueuedSpinLockFromDpcLevel@4 00481ddc f   ke:spinlock.obj
 0001:00080e10       @KeTryToAcquireQueuedSpinLockAtRaisedIrql@4 00481e10 f   ke:spinlock.obj
 0001:00080e28       _KeTryToAcquireQueuedSpinLockAtRaisedIrqlUP 00481e28     ke:spinlock.obj
 0001:00080e40       _KiStartUnexpectedRange@0  00481e40     ke:trap.obj
 0001:00080e40       _KiUnexpectedInterrupt0    00481e40 f   ke:trap.obj
 0001:00080e4a       _KiUnexpectedInterrupt1    00481e4a f   ke:trap.obj
 0001:00080e54       _KiUnexpectedInterrupt2    00481e54 f   ke:trap.obj
 0001:00080e5e       _KiUnexpectedInterrupt3    00481e5e f   ke:trap.obj
 0001:00080e68       _KiUnexpectedInterrupt4    00481e68 f   ke:trap.obj
 0001:00080e72       _KiUnexpectedInterrupt5    00481e72 f   ke:trap.obj
 0001:00080e7c       _KiUnexpectedInterrupt6    00481e7c f   ke:trap.obj
 0001:00080e86       _KiUnexpectedInterrupt7    00481e86 f   ke:trap.obj
 0001:00080e90       _KiUnexpectedInterrupt8    00481e90 f   ke:trap.obj
 0001:00080e9a       _KiUnexpectedInterrupt9    00481e9a f   ke:trap.obj
 0001:00080ea4       _KiUnexpectedInterrupt10   00481ea4 f   ke:trap.obj
 0001:00080eae       _KiUnexpectedInterrupt11   00481eae f   ke:trap.obj
 0001:00080eb8       _KiUnexpectedInterrupt12   00481eb8 f   ke:trap.obj
 0001:00080ec2       _KiUnexpectedInterrupt13   00481ec2 f   ke:trap.obj
 0001:00080ecc       _KiUnexpectedInterrupt14   00481ecc f   ke:trap.obj
 0001:00080ed6       _KiUnexpectedInterrupt15   00481ed6 f   ke:trap.obj
 0001:00080ee0       _KiUnexpectedInterrupt16   00481ee0 f   ke:trap.obj
 0001:00080eea       _KiUnexpectedInterrupt17   00481eea f   ke:trap.obj
 0001:00080ef4       _KiUnexpectedInterrupt18   00481ef4 f   ke:trap.obj
 0001:00080efe       _KiUnexpectedInterrupt19   00481efe f   ke:trap.obj
 0001:00080f08       _KiUnexpectedInterrupt20   00481f08 f   ke:trap.obj
 0001:00080f12       _KiUnexpectedInterrupt21   00481f12 f   ke:trap.obj
 0001:00080f1c       _KiUnexpectedInterrupt22   00481f1c f   ke:trap.obj
 0001:00080f26       _KiUnexpectedInterrupt23   00481f26 f   ke:trap.obj
 0001:00080f30       _KiUnexpectedInterrupt24   00481f30 f   ke:trap.obj
 0001:00080f3a       _KiUnexpectedInterrupt25   00481f3a f   ke:trap.obj
 0001:00080f44       _KiUnexpectedInterrupt26   00481f44 f   ke:trap.obj
 0001:00080f4e       _KiUnexpectedInterrupt27   00481f4e f   ke:trap.obj
 0001:00080f58       _KiUnexpectedInterrupt28   00481f58 f   ke:trap.obj
 0001:00080f62       _KiUnexpectedInterrupt29   00481f62 f   ke:trap.obj
 0001:00080f6c       _KiUnexpectedInterrupt30   00481f6c f   ke:trap.obj
 0001:00080f76       _KiUnexpectedInterrupt31   00481f76 f   ke:trap.obj
 0001:00080f80       _KiUnexpectedInterrupt32   00481f80 f   ke:trap.obj
 0001:00080f8a       _KiUnexpectedInterrupt33   00481f8a f   ke:trap.obj
 0001:00080f94       _KiUnexpectedInterrupt34   00481f94 f   ke:trap.obj
 0001:00080f9e       _KiUnexpectedInterrupt35   00481f9e f   ke:trap.obj
 0001:00080fa8       _KiUnexpectedInterrupt36   00481fa8 f   ke:trap.obj
 0001:00080fb2       _KiUnexpectedInterrupt37   00481fb2 f   ke:trap.obj
 0001:00080fbc       _KiUnexpectedInterrupt38   00481fbc f   ke:trap.obj
 0001:00080fc6       _KiUnexpectedInterrupt39   00481fc6 f   ke:trap.obj
 0001:00080fd0       _KiUnexpectedInterrupt40   00481fd0 f   ke:trap.obj
 0001:00080fda       _KiUnexpectedInterrupt41   00481fda f   ke:trap.obj
 0001:00080fe4       _KiUnexpectedInterrupt42   00481fe4 f   ke:trap.obj
 0001:00080fee       _KiUnexpectedInterrupt43   00481fee f   ke:trap.obj
 0001:00080ff8       _KiUnexpectedInterrupt44   00481ff8 f   ke:trap.obj
 0001:00081002       _KiUnexpectedInterrupt45   00482002 f   ke:trap.obj
 0001:0008100c       _KiUnexpectedInterrupt46   0048200c f   ke:trap.obj
 0001:00081016       _KiUnexpectedInterrupt47   00482016 f   ke:trap.obj
 0001:00081020       _KiUnexpectedInterrupt48   00482020 f   ke:trap.obj
 0001:0008102a       _KiUnexpectedInterrupt49   0048202a f   ke:trap.obj
 0001:00081034       _KiUnexpectedInterrupt50   00482034 f   ke:trap.obj
 0001:0008103e       _KiUnexpectedInterrupt51   0048203e f   ke:trap.obj
 0001:00081048       _KiUnexpectedInterrupt52   00482048 f   ke:trap.obj
 0001:00081052       _KiUnexpectedInterrupt53   00482052 f   ke:trap.obj
 0001:0008105c       _KiUnexpectedInterrupt54   0048205c f   ke:trap.obj
 0001:00081066       _KiUnexpectedInterrupt55   00482066 f   ke:trap.obj
 0001:00081070       _KiUnexpectedInterrupt56   00482070 f   ke:trap.obj
 0001:0008107a       _KiUnexpectedInterrupt57   0048207a f   ke:trap.obj
 0001:00081084       _KiUnexpectedInterrupt58   00482084 f   ke:trap.obj
 0001:0008108e       _KiUnexpectedInterrupt59   0048208e f   ke:trap.obj
 0001:00081098       _KiUnexpectedInterrupt60   00482098 f   ke:trap.obj
 0001:000810a2       _KiUnexpectedInterrupt61   004820a2 f   ke:trap.obj
 0001:000810ac       _KiUnexpectedInterrupt62   004820ac f   ke:trap.obj
 0001:000810b6       _KiUnexpectedInterrupt63   004820b6 f   ke:trap.obj
 0001:000810c0       _KiUnexpectedInterrupt64   004820c0 f   ke:trap.obj
 0001:000810ca       _KiUnexpectedInterrupt65   004820ca f   ke:trap.obj
 0001:000810d4       _KiUnexpectedInterrupt66   004820d4 f   ke:trap.obj
 0001:000810de       _KiUnexpectedInterrupt67   004820de f   ke:trap.obj
 0001:000810e8       _KiUnexpectedInterrupt68   004820e8 f   ke:trap.obj
 0001:000810f2       _KiUnexpectedInterrupt69   004820f2 f   ke:trap.obj
 0001:000810fc       _KiUnexpectedInterrupt70   004820fc f   ke:trap.obj
 0001:00081106       _KiUnexpectedInterrupt71   00482106 f   ke:trap.obj
 0001:00081110       _KiUnexpectedInterrupt72   00482110 f   ke:trap.obj
 0001:0008111a       _KiUnexpectedInterrupt73   0048211a f   ke:trap.obj
 0001:00081124       _KiUnexpectedInterrupt74   00482124 f   ke:trap.obj
 0001:0008112e       _KiUnexpectedInterrupt75   0048212e f   ke:trap.obj
 0001:00081138       _KiUnexpectedInterrupt76   00482138 f   ke:trap.obj
 0001:00081142       _KiUnexpectedInterrupt77   00482142 f   ke:trap.obj
 0001:0008114c       _KiUnexpectedInterrupt78   0048214c f   ke:trap.obj
 0001:00081156       _KiUnexpectedInterrupt79   00482156 f   ke:trap.obj
 0001:00081160       _KiUnexpectedInterrupt80   00482160 f   ke:trap.obj
 0001:0008116a       _KiUnexpectedInterrupt81   0048216a f   ke:trap.obj
 0001:00081174       _KiUnexpectedInterrupt82   00482174 f   ke:trap.obj
 0001:0008117e       _KiUnexpectedInterrupt83   0048217e f   ke:trap.obj
 0001:00081188       _KiUnexpectedInterrupt84   00482188 f   ke:trap.obj
 0001:00081192       _KiUnexpectedInterrupt85   00482192 f   ke:trap.obj
 0001:0008119c       _KiUnexpectedInterrupt86   0048219c f   ke:trap.obj
 0001:000811a6       _KiUnexpectedInterrupt87   004821a6 f   ke:trap.obj
 0001:000811b0       _KiUnexpectedInterrupt88   004821b0 f   ke:trap.obj
 0001:000811ba       _KiUnexpectedInterrupt89   004821ba f   ke:trap.obj
 0001:000811c4       _KiUnexpectedInterrupt90   004821c4 f   ke:trap.obj
 0001:000811ce       _KiUnexpectedInterrupt91   004821ce f   ke:trap.obj
 0001:000811d8       _KiUnexpectedInterrupt92   004821d8 f   ke:trap.obj
 0001:000811e2       _KiUnexpectedInterrupt93   004821e2 f   ke:trap.obj
 0001:000811ec       _KiUnexpectedInterrupt94   004821ec f   ke:trap.obj
 0001:000811f6       _KiUnexpectedInterrupt95   004821f6 f   ke:trap.obj
 0001:00081200       _KiUnexpectedInterrupt96   00482200 f   ke:trap.obj
 0001:0008120a       _KiUnexpectedInterrupt97   0048220a f   ke:trap.obj
 0001:00081214       _KiUnexpectedInterrupt98   00482214 f   ke:trap.obj
 0001:0008121e       _KiUnexpectedInterrupt99   0048221e f   ke:trap.obj
 0001:00081228       _KiUnexpectedInterrupt100  00482228 f   ke:trap.obj
 0001:00081232       _KiUnexpectedInterrupt101  00482232 f   ke:trap.obj
 0001:0008123c       _KiUnexpectedInterrupt102  0048223c f   ke:trap.obj
 0001:00081246       _KiUnexpectedInterrupt103  00482246 f   ke:trap.obj
 0001:00081250       _KiUnexpectedInterrupt104  00482250 f   ke:trap.obj
 0001:0008125a       _KiUnexpectedInterrupt105  0048225a f   ke:trap.obj
 0001:00081264       _KiUnexpectedInterrupt106  00482264 f   ke:trap.obj
 0001:0008126e       _KiUnexpectedInterrupt107  0048226e f   ke:trap.obj
 0001:00081278       _KiUnexpectedInterrupt108  00482278 f   ke:trap.obj
 0001:00081282       _KiUnexpectedInterrupt109  00482282 f   ke:trap.obj
 0001:0008128c       _KiUnexpectedInterrupt110  0048228c f   ke:trap.obj
 0001:00081296       _KiUnexpectedInterrupt111  00482296 f   ke:trap.obj
 0001:000812a0       _KiUnexpectedInterrupt112  004822a0 f   ke:trap.obj
 0001:000812aa       _KiUnexpectedInterrupt113  004822aa f   ke:trap.obj
 0001:000812b4       _KiUnexpectedInterrupt114  004822b4 f   ke:trap.obj
 0001:000812be       _KiUnexpectedInterrupt115  004822be f   ke:trap.obj
 0001:000812c8       _KiUnexpectedInterrupt116  004822c8 f   ke:trap.obj
 0001:000812d2       _KiUnexpectedInterrupt117  004822d2 f   ke:trap.obj
 0001:000812dc       _KiUnexpectedInterrupt118  004822dc f   ke:trap.obj
 0001:000812e6       _KiUnexpectedInterrupt119  004822e6 f   ke:trap.obj
 0001:000812f0       _KiUnexpectedInterrupt120  004822f0 f   ke:trap.obj
 0001:000812fa       _KiUnexpectedInterrupt121  004822fa f   ke:trap.obj
 0001:00081304       _KiUnexpectedInterrupt122  00482304 f   ke:trap.obj
 0001:0008130e       _KiUnexpectedInterrupt123  0048230e f   ke:trap.obj
 0001:00081318       _KiUnexpectedInterrupt124  00482318 f   ke:trap.obj
 0001:00081322       _KiUnexpectedInterrupt125  00482322 f   ke:trap.obj
 0001:0008132c       _KiUnexpectedInterrupt126  0048232c f   ke:trap.obj
 0001:00081336       _KiUnexpectedInterrupt127  00482336 f   ke:trap.obj
 0001:00081340       _KiUnexpectedInterrupt128  00482340 f   ke:trap.obj
 0001:0008134a       _KiUnexpectedInterrupt129  0048234a f   ke:trap.obj
 0001:00081354       _KiUnexpectedInterrupt130  00482354 f   ke:trap.obj
 0001:0008135e       _KiUnexpectedInterrupt131  0048235e f   ke:trap.obj
 0001:00081368       _KiUnexpectedInterrupt132  00482368 f   ke:trap.obj
 0001:00081372       _KiUnexpectedInterrupt133  00482372 f   ke:trap.obj
 0001:0008137c       _KiUnexpectedInterrupt134  0048237c f   ke:trap.obj
 0001:00081386       _KiUnexpectedInterrupt135  00482386 f   ke:trap.obj
 0001:00081390       _KiUnexpectedInterrupt136  00482390 f   ke:trap.obj
 0001:0008139a       _KiUnexpectedInterrupt137  0048239a f   ke:trap.obj
 0001:000813a4       _KiUnexpectedInterrupt138  004823a4 f   ke:trap.obj
 0001:000813ae       _KiUnexpectedInterrupt139  004823ae f   ke:trap.obj
 0001:000813b8       _KiUnexpectedInterrupt140  004823b8 f   ke:trap.obj
 0001:000813c2       _KiUnexpectedInterrupt141  004823c2 f   ke:trap.obj
 0001:000813cc       _KiUnexpectedInterrupt142  004823cc f   ke:trap.obj
 0001:000813d6       _KiUnexpectedInterrupt143  004823d6 f   ke:trap.obj
 0001:000813e0       _KiUnexpectedInterrupt144  004823e0 f   ke:trap.obj
 0001:000813ea       _KiUnexpectedInterrupt145  004823ea f   ke:trap.obj
 0001:000813f4       _KiUnexpectedInterrupt146  004823f4 f   ke:trap.obj
 0001:000813fe       _KiUnexpectedInterrupt147  004823fe f   ke:trap.obj
 0001:00081408       _KiUnexpectedInterrupt148  00482408 f   ke:trap.obj
 0001:00081412       _KiUnexpectedInterrupt149  00482412 f   ke:trap.obj
 0001:0008141c       _KiUnexpectedInterrupt150  0048241c f   ke:trap.obj
 0001:00081426       _KiUnexpectedInterrupt151  00482426 f   ke:trap.obj
 0001:00081430       _KiUnexpectedInterrupt152  00482430 f   ke:trap.obj
 0001:0008143a       _KiUnexpectedInterrupt153  0048243a f   ke:trap.obj
 0001:00081444       _KiUnexpectedInterrupt154  00482444 f   ke:trap.obj
 0001:0008144e       _KiUnexpectedInterrupt155  0048244e f   ke:trap.obj
 0001:00081458       _KiUnexpectedInterrupt156  00482458 f   ke:trap.obj
 0001:00081462       _KiUnexpectedInterrupt157  00482462 f   ke:trap.obj
 0001:0008146c       _KiUnexpectedInterrupt158  0048246c f   ke:trap.obj
 0001:00081476       _KiUnexpectedInterrupt159  00482476 f   ke:trap.obj
 0001:00081480       _KiUnexpectedInterrupt160  00482480 f   ke:trap.obj
 0001:0008148a       _KiUnexpectedInterrupt161  0048248a f   ke:trap.obj
 0001:00081494       _KiUnexpectedInterrupt162  00482494 f   ke:trap.obj
 0001:0008149e       _KiUnexpectedInterrupt163  0048249e f   ke:trap.obj
 0001:000814a8       _KiUnexpectedInterrupt164  004824a8 f   ke:trap.obj
 0001:000814b2       _KiUnexpectedInterrupt165  004824b2 f   ke:trap.obj
 0001:000814bc       _KiUnexpectedInterrupt166  004824bc f   ke:trap.obj
 0001:000814c6       _KiUnexpectedInterrupt167  004824c6 f   ke:trap.obj
 0001:000814d0       _KiUnexpectedInterrupt168  004824d0 f   ke:trap.obj
 0001:000814da       _KiUnexpectedInterrupt169  004824da f   ke:trap.obj
 0001:000814e4       _KiUnexpectedInterrupt170  004824e4 f   ke:trap.obj
 0001:000814ee       _KiUnexpectedInterrupt171  004824ee f   ke:trap.obj
 0001:000814f8       _KiUnexpectedInterrupt172  004824f8 f   ke:trap.obj
 0001:00081502       _KiUnexpectedInterrupt173  00482502 f   ke:trap.obj
 0001:0008150c       _KiUnexpectedInterrupt174  0048250c f   ke:trap.obj
 0001:00081516       _KiUnexpectedInterrupt175  00482516 f   ke:trap.obj
 0001:00081520       _KiUnexpectedInterrupt176  00482520 f   ke:trap.obj
 0001:0008152a       _KiUnexpectedInterrupt177  0048252a f   ke:trap.obj
 0001:00081534       _KiUnexpectedInterrupt178  00482534 f   ke:trap.obj
 0001:0008153e       _KiUnexpectedInterrupt179  0048253e f   ke:trap.obj
 0001:00081548       _KiUnexpectedInterrupt180  00482548 f   ke:trap.obj
 0001:00081552       _KiUnexpectedInterrupt181  00482552 f   ke:trap.obj
 0001:0008155c       _KiUnexpectedInterrupt182  0048255c f   ke:trap.obj
 0001:00081566       _KiUnexpectedInterrupt183  00482566 f   ke:trap.obj
 0001:00081570       _KiUnexpectedInterrupt184  00482570 f   ke:trap.obj
 0001:0008157a       _KiUnexpectedInterrupt185  0048257a f   ke:trap.obj
 0001:00081584       _KiUnexpectedInterrupt186  00482584 f   ke:trap.obj
 0001:0008158e       _KiUnexpectedInterrupt187  0048258e f   ke:trap.obj
 0001:00081598       _KiUnexpectedInterrupt188  00482598 f   ke:trap.obj
 0001:000815a2       _KiUnexpectedInterrupt189  004825a2 f   ke:trap.obj
 0001:000815a9       _KiUnexpectedInterrupt190  004825a9 f   ke:trap.obj
 0001:000815b0       _KiUnexpectedInterrupt191  004825b0 f   ke:trap.obj
 0001:000815b7       _KiUnexpectedInterrupt192  004825b7 f   ke:trap.obj
 0001:000815be       _KiUnexpectedInterrupt193  004825be f   ke:trap.obj
 0001:000815c5       _KiUnexpectedInterrupt194  004825c5 f   ke:trap.obj
 0001:000815cc       _KiUnexpectedInterrupt195  004825cc f   ke:trap.obj
 0001:000815d3       _KiUnexpectedInterrupt196  004825d3 f   ke:trap.obj
 0001:000815da       _KiUnexpectedInterrupt197  004825da f   ke:trap.obj
 0001:000815e1       _KiUnexpectedInterrupt198  004825e1 f   ke:trap.obj
 0001:000815e8       _KiUnexpectedInterrupt199  004825e8 f   ke:trap.obj
 0001:000815ef       _KiUnexpectedInterrupt200  004825ef f   ke:trap.obj
 0001:000815f6       _KiUnexpectedInterrupt201  004825f6 f   ke:trap.obj
 0001:000815fd       _KiUnexpectedInterrupt202  004825fd f   ke:trap.obj
 0001:00081604       _KiUnexpectedInterrupt203  00482604 f   ke:trap.obj
 0001:0008160b       _KiUnexpectedInterrupt204  0048260b f   ke:trap.obj
 0001:00081612       _KiUnexpectedInterrupt205  00482612 f   ke:trap.obj
 0001:00081619       _KiUnexpectedInterrupt206  00482619 f   ke:trap.obj
 0001:00081620       _KiUnexpectedInterrupt207  00482620 f   ke:trap.obj
 0001:00081627       _KiEndUnexpectedRange@0    00482627     ke:trap.obj
 0001:00081632       _KiBBTUnexpectedRange      00482632     ke:trap.obj
 0001:0008167c       Dr_kss_a                   0048267c     ke:trap.obj
 0001:000816fc       Dr_FastCallDrSave          004826fc     ke:trap.obj
 0001:0008177a       _KiSystemService           0048277a f   ke:trap.obj
 0001:000817f5       _KiFastCallEntry2          004827f5     ke:trap.obj
 0001:00081840       _KiFastCallEntry           00482840 f   ke:trap.obj
 0001:0008194e       _KiServiceExit             0048294e     ke:trap.obj
 0001:00081a38       _KiSystemCallExitBranch    00482a38     ke:trap.obj
 0001:00081a3f       _KiSystemCallExit          00482a3f     ke:trap.obj
 0001:00081a40       _KiSystemCallExit2         00482a40     ke:trap.obj
 0001:00081a5a       _KiSystemCallExit3         00482a5a     ke:trap.obj
 0001:00081b00       _KiServiceExit2            00482b00     ke:trap.obj
 0001:00081c37       _BBT_Exclude_Trap_Code_Begin 00482c37     ke:trap.obj
 0001:00081c40       Dr_kitx_a                  00482c40     ke:trap.obj
 0001:00081cc0       V86_kitx_a                 00482cc0     ke:trap.obj
 0001:00081cea       _KiGetTickCount            00482cea f   ke:trap.obj
 0001:00081dec       Dr_kcb_a                   00482dec     ke:trap.obj
 0001:00081e70       _KiCallbackReturn          00482e70 f   ke:trap.obj
 0001:00081efc       Dr_kira_a                  00482efc     ke:trap.obj
 0001:00081f7c       V86_kira_a                 00482f7c     ke:trap.obj
 0001:00081fa4       _KiRaiseAssertion          00482fa4 f   ke:trap.obj
 0001:00082024       Dr_kui_a                   00483024     ke:trap.obj
 0001:000820a4       Abios_kui_a                004830a4     ke:trap.obj
 0001:000820d0       V86_kui_a                  004830d0     ke:trap.obj
 0001:000820f7       _KiUnexpectedInterruptTail 004830f7 f   ke:trap.obj
 0001:000821d0       _KiExceptionExit           004831d0     ke:trap.obj
 0001:000821d0       Kei386EoiHelper@0          004831d0 f   ke:trap.obj
 0001:00082358       CommonDispatchException    00483358 f   ke:trap.obj
 0001:00082410       Dr_kit0_a                  00483410     ke:trap.obj
 0001:00082490       V86_kit0_a                 00483490     ke:trap.obj
 0001:000824b8       _KiTrap00                  004834b8 f   ke:trap.obj
 0001:00082590       Dr_kit1_a                  00483590     ke:trap.obj
 0001:00082610       V86_kit1_a                 00483610     ke:trap.obj
 0001:00082638       _KiTrap01                  00483638 f   ke:trap.obj
 0001:00082728       _KiTrap02                  00483728 f   ke:trap.obj
 0001:000828bc       Dr_kids_a                  004838bc     ke:trap.obj
 0001:0008293c       V86_kids_a                 0048393c     ke:trap.obj
 0001:00082964       _KiDebugService            00483964 f   ke:trap.obj
 0001:000829e4       Dr_kit3_a                  004839e4     ke:trap.obj
 0001:00082a64       V86_kit3_a                 00483a64     ke:trap.obj
 0001:00082a8c       _KiTrap03                  00483a8c f   ke:trap.obj
 0001:00082b64       Dr_kit4_a                  00483b64     ke:trap.obj
 0001:00082be4       V86_kit4_a                 00483be4     ke:trap.obj
 0001:00082c0c       _KiTrap04                  00483c0c f   ke:trap.obj
 0001:00082cc4       Dr_kit5_a                  00483cc4     ke:trap.obj
 0001:00082d44       V86_kit5_a                 00483d44     ke:trap.obj
 0001:00082d6c       _KiTrap05                  00483d6c f   ke:trap.obj
 0001:00082e28       Dr_kit6_a                  00483e28     ke:trap.obj
 0001:00082eb4       V86_kit6_a                 00483eb4     ke:trap.obj
 0001:00082ee0       _KiTrap06                  00483ee0 f   ke:trap.obj
 0001:000834a8       Dr_kit7_a                  004844a8     ke:trap.obj
 0001:00083528       V86_kit7_a                 00484528     ke:trap.obj
 0001:00083550       _KiTrap07                  00484550 f   ke:trap.obj
 0001:00083842       _KiTrap08                  00484842 f   ke:trap.obj
 0001:000838bc       Dr_kit9_a                  004848bc     ke:trap.obj
 0001:0008393c       V86_kit9_a                 0048493c     ke:trap.obj
 0001:00083964       _KiTrap09                  00484964 f   ke:trap.obj
 0001:000839e0       Dr_kita_a                  004849e0     ke:trap.obj
 0001:00083a60       V86_kita_a                 00484a60     ke:trap.obj
 0001:00083a88       _KiTrap0A                  00484a88 f   ke:trap.obj
 0001:00083b20       Dr_kitb_a                  00484b20     ke:trap.obj
 0001:00083ba0       V86_kitb_a                 00484ba0     ke:trap.obj
 0001:00083bc8       _KiTrap0B                  00484bc8 f   ke:trap.obj
 0001:00083d80       Dr_kitc_a                  00484d80     ke:trap.obj
 0001:00083e00       V86_kitc_a                 00484e00     ke:trap.obj
 0001:00083e28       _KiTrap0C                  00484e28 f   ke:trap.obj
 0001:00083fa1       VdmFixEspEbp               00484fa1 f   ke:trap.obj
 0001:00084058       Dr_kitd_a                  00485058     ke:trap.obj
 0001:000840e4       V86_kitd_a                 004850e4     ke:trap.obj
 0001:00084110       _KiTrap0D                  00485110 f   ke:trap.obj
 0001:00084754       Dr_kite_a                  00485754     ke:trap.obj
 0001:000847d4       V86_kite_a                 004857d4     ke:trap.obj
 0001:000847fc       _KiTrap0E                  004857fc f   ke:trap.obj
 0001:00084ae0       Dr_kitf_a                  00485ae0     ke:trap.obj
 0001:00084b60       V86_kitf_a                 00485b60     ke:trap.obj
 0001:00084b88       _KiTrap0F                  00485b88 f   ke:trap.obj
 0001:00084c04       Dr_kit10_a                 00485c04     ke:trap.obj
 0001:00084c84       V86_kit10_a                00485c84     ke:trap.obj
 0001:00084cac       _KiTrap10                  00485cac f   ke:trap.obj
 0001:00084d44       Dr_kit11_a                 00485d44     ke:trap.obj
 0001:00084dc4       V86_kit11_a                00485dc4     ke:trap.obj
 0001:00084dec       _KiTrap11                  00485dec f   ke:trap.obj
 0001:00084eb0       Dr_kit13_a                 00485eb0     ke:trap.obj
 0001:00084f30       V86_kit13_a                00485f30     ke:trap.obj
 0001:00084f58       _KiTrap13                  00485f58 f   ke:trap.obj
 0001:00085120       _KiCoprocessorError@0      00486120 f   ke:trap.obj
 0001:0008513f       _BBT_Exclude_Trap_Code_End 0048613f     ke:trap.obj
 0001:00085140       _KiFlushNPXState@4         00486140 f   ke:trap.obj
 0001:000851f8       _KiSystemFatalException    004861f8 f   ke:trap.obj
 0001:00085208       _NtContinue@8              00486208 f   ke:trap.obj
 0001:00085250       _NtRaiseException@12       00486250 f   ke:trap.obj
 0001:00085294       _Ki386VdmReflectException_A@4 00486294 f   ke:trap.obj
 0001:000852c8       Kii386SpinOnSpinLock@8     004862c8 f   ke:spindbg.obj
 0001:000852d0       ___KeGetCurrentThread@0    004862d0 f   ke:i386pcr.obj
 0001:000852d8       _KeGetPreviousMode@0       004862d8 f   ke:i386pcr.obj
 0001:000852e8       ___KeIsExecutingDpc@0      004862e8 f   ke:i386pcr.obj
 0001:000852f4       GetMachineBootPointers@0   004862f4 f   ke:i386pcr.obj
 0001:00085344       _KeUpdateSystemTime@0      00486344 f   ke:clockint.obj
 0001:00085474       _KeUpdateRunTime@4         00486474 f   ke:clockint.obj
 0001:000855a4       _KeProfileInterrupt@4      004865a4 f   ke:clockint.obj
 0001:000855ac       _KeProfileInterruptWithSource@8 004865ac f   ke:clockint.obj
 0001:00085750       _KeSynchronizeExecution@12 00486750 f   ke:intsup.obj
 0001:00085790       _KiChainedDispatch@0       00486790 f   ke:intsup.obj
 0001:000857c5       _KiInterruptDispatch2ndLvl@0 004867c5     ke:intsup.obj
 0001:000857c8       _KiChainedDispatch2ndLvl@0 004867c8 f   ke:intsup.obj
 0001:000858d0       _KiFloatingDispatch@0      004868d0 f   ke:intsup.obj
 0001:00085980       _KiInterruptDispatch@0     00486980 f   ke:intsup.obj
 0001:00085a30       _KiGetInterruptDispatchPatchAddresses@8 00486a30 f   ke:intsup.obj
 0001:00085a47       _KiInterruptTemplate       00486a47     ke:intsup.obj
 0001:00085ae8       _KiInterruptTemplate2ndDispatch 00486ae8     ke:intsup.obj
 0001:00085aed       _KiInterruptTemplateObject 00486aed     ke:intsup.obj
 0001:00085af2       _KiInterruptTemplateDispatch 00486af2     ke:intsup.obj
 0001:00085af4       Dr_kit_a                   00486af4     ke:intsup.obj
 0001:00085b70       Abios_kit_a                00486b70     ke:intsup.obj
 0001:00085b9c       V86_kit_a                  00486b9c     ke:intsup.obj
 0001:00085bc6       _KiUnexpectedInterrupt     00486bc6 f   ke:intsup.obj
 0001:00085be0       @KiRDTSC@4                 00486be0 f   ke:ctxswap.obj
 0001:00085be8       @KiSwapContext@8           00486be8 f   ke:ctxswap.obj
 0001:00085c30       _KiDispatchInterrupt@0     00486c30 f   ke:ctxswap.obj
 0001:00085d10       SwapContext                00486d10 f   ke:ctxswap.obj
 0001:00085e3e       _ScPatchFxb                00486e3e     ke:ctxswap.obj
 0001:00085e41       _ScPatchFxe                00486e41     ke:ctxswap.obj
 0001:00085e90       _KeFlushCurrentTb@0        00486e90 f   ke:ctxswap.obj
 0001:00085eac       _KiFlushIcache@0           00486eac f   ke:ctxswap.obj
 0001:00085eac       _KiFlushDcache@0           00486eac f   ke:ctxswap.obj
 0001:00085eb0       _KiSwapProcess@8           00486eb0 f   ke:ctxswap.obj
 0001:00085f28       @KiIdleLoop@0              00486f28 f   ke:ctxswap.obj
 0001:0008601c       _Ki386AdjustEsp0@4         0048701c f   ke:ctxswap.obj
 0001:00086050       _Ki386VdmEnablePentiumExtentions@4 00487050 f   ke:instemul.obj
 0001:0008607c       _KiComputeTimerTableIndex@8 0048707c f   ke:timindex.obj
 0001:000860cc       OpcodeNPXV86               004870cc f   ke:emv86.obj
 0001:00086101       KiVdmSetUserCR0            00487101 f   ke:emv86.obj
 0001:0008618c       _KiThreadStartup@4         0048718c f   ke:threadbg.obj
 0001:000861bc       @ExInterlockedFlushSList@4 004871bc f   ntosrtl:slist.obj
 0001:000861bc       @RtlpInterlockedFlushSList@4 004871bc f   ntosrtl:slist.obj
 0001:000861dc       @ExInterlockedPopEntrySList@8 004871dc f   ntosrtl:slist.obj
 0001:000861dc       @RtlpInterlockedPopEntrySList@4 004871dc f   ntosrtl:slist.obj
 0001:000861dc       @InterlockedPopEntrySList@4 004871dc f   ntosrtl:slist.obj
 0001:000861e0       ExpInterlockedPopEntrySListResume 004871e0     ntosrtl:slist.obj
 0001:000861e0       _ExpInterlockedPopEntrySListResume@0 004871e0     ntosrtl:slist.obj
 0001:000861ed       ExpInterlockedPopEntrySListFault 004871ed     ntosrtl:slist.obj
 0001:000861ed       _ExpInterlockedPopEntrySListFault@0 004871ed     ntosrtl:slist.obj
 0001:000861ef       _ExpInterlockedPopEntrySListEnd@0 004871ef     ntosrtl:slist.obj
 0001:000861ef       ExpInterlockedPopEntrySListEnd 004871ef     ntosrtl:slist.obj
 0001:000861fc       @ExInterlockedPushEntrySList@12 004871fc f   ntosrtl:slist.obj
 0001:00086200       @InterlockedPushEntrySList@8 00487200 f   ntosrtl:slist.obj
 0001:00086200       @RtlpInterlockedPushEntrySList@8 00487200 f   ntosrtl:slist.obj
 0001:00086220       @InterlockedPushListSList@16 00487220 f   ntosrtl:slist.obj
 0001:00086248       _FirstEntrySList@4         00487248 f   ntosrtl:slist.obj
 0001:00086254       @RtlInterlockedCompareExchange64@12 00487254 f   ntosrtl:slist.obj
 0001:00086270       _InterlockedCompareExchange64@20 00487270 f   ntosrtl:slist.obj
 0001:000862a0       _RtlCompareMemory@12       004872a0 f   ntosrtl:movemem.obj
 0001:000862f0       _RtlCompareMemoryUlong@12  004872f0 f   ntosrtl:movemem.obj
 0001:00086320       _RtlFillMemory@12          00487320 f   ntosrtl:movemem.obj
 0001:00086360       _RtlFillMemoryUlonglong@16 00487360 f   ntosrtl:movemem.obj
 0001:00086390       _RtlFillMemoryUlong@12     00487390 f   ntosrtl:movemem.obj
 0001:000863b0       _RtlZeroMemory@8           004873b0 f   ntosrtl:movemem.obj
 0001:000863e0       _RtlMoveMemory@12          004873e0 f   ntosrtl:movemem.obj
 0001:00086424       _RtlCopyMemoryNonTemporal@12 00487424 f   ntosrtl:movemem.obj
 0001:00086668       @RtlPrefetchMemoryNonTemporal@8 00487668 f   ntosrtl:movemem.obj
 0001:00086680       _RtlLargeIntegerAdd@16     00487680 f   ntosrtl:largeint.obj
 0001:00086694       __RtlEnlargedIntegerMultiply@8 00487694 f   ntosrtl:largeint.obj
 0001:000866a0       __RtlEnlargedUnsignedMultiply@8 004876a0 f   ntosrtl:largeint.obj
 0001:000866ac       __RtlEnlargedUnsignedDivide@16 004876ac f   ntosrtl:largeint.obj
 0001:000866cc       _RtlExtendedLargeIntegerDivide@16 004876cc f   ntosrtl:largeint.obj
 0001:00086728       _RtlExtendedMagicDivide@20 00487728 f   ntosrtl:largeint.obj
 0001:000867b8       _RtlExtendedIntegerMultiply@12 004877b8 f   ntosrtl:largeint.obj
 0001:00086810       _RtlLargeIntegerShiftLeft@12 00487810 f   ntosrtl:largeint.obj
 0001:00086838       _RtlLargeIntegerShiftRight@12 00487838 f   ntosrtl:largeint.obj
 0001:00086860       _RtlLargeIntegerArithmeticShift@12 00487860 f   ntosrtl:largeint.obj
 0001:0008688c       _RtlLargeIntegerNegate@8   0048788c f   ntosrtl:largeint.obj
 0001:000868a0       _RtlLargeIntegerSubtract@16 004878a0 f   ntosrtl:largeint.obj
 0001:000868b4       ___RtlConvertLongToLargeInteger@4 004878b4 f   ntosrtl:largeint.obj
 0001:000868bc       ___RtlConvertUlongToLargeInteger@4 004878bc f   ntosrtl:largeint.obj
 0001:000868cc       _KiLoadLdtr@0              004878cc f   ke:ldtsup2.obj
 0001:00086900       _KiFlushDescriptors@0      00487900 f   ke:ldtsup2.obj
 0001:00086914       _RtlRaiseException@4       00487914 f   ntosrtl:raise.obj
 0001:00086968       _RtlRaiseStatus@4          00487968 f   ntosrtl:raise.obj
 0001:000869cc       _RtlpExecuteHandlerForException@20 004879cc f   ntosrtl:xcptmisc.obj
 0001:000869d4       _RtlpExecuteHandlerForUnwind@20 004879d4 f   ntosrtl:xcptmisc.obj
 0001:000869dc       ExecuteHandler@20          004879dc f   ntosrtl:xcptmisc.obj
 0001:00086a08       ExecuteHandler2@20         00487a08 f   ntosrtl:xcptmisc.obj
 0001:00086a90       _RtlpUnlinkHandler@4       00487a90 f   ntosrtl:xcptmisc.obj
 0001:00086aa0       _RtlCaptureContext@4       00487aa0 f   ntosrtl:xcptmisc.obj
 0001:00086ad0       _RtlpCaptureContext@4      00487ad0 f   ntosrtl:xcptmisc.obj
 0001:00086b5c       _RtlpGetStackLimits@8      00487b5c f   ntosrtl:xcptmisc.obj
 0001:00086b84       _RtlpGetRegistrationHead@0 00487b84 f   ntosrtl:xcptmisc.obj
 0002:00000006       _ExDeferredFreePool@4      00488006 f   ex:pool.obj
 0002:00000342       _ExFreePoolWithTag@8       00488342 f   ex:pool.obj
 0002:00000b5c       _ExFreePool@4              00488b5c f   ex:pool.obj
 0002:00000b72       _ExAllocatePoolWithTag@12  00488b72 f   ex:pool.obj
 0003:00000006       _MiReleaseSystemPtes@12    0048a006 f   mm:sysptes.obj
 0003:00000226       _MiReserveAlignedSystemPtes@12 0048a226 f   mm:sysptes.obj
 0003:00000534       _MiFeedSysPtePool@4        0048a534 f   mm:sysptes.obj
 0003:0000058e       _MiReserveSystemPtes@8     0048a58e f   mm:sysptes.obj
 0004:00000006       _MiAllocatePoolPages@8     0048b006 f   mm:allocpag.obj
 0004:000010c2       _MiFreePoolPages@4         0048c0c2 f   mm:allocpag.obj
 0005:00000000       _CcFirstDelay              0048d000     cache:cachedat.obj
 0005:00000008       _CcIdleDelay               0048d008     cache:cachedat.obj
 0005:00000010       _CcCollisionDelay          0048d010     cache:cachedat.obj
 0005:00000018       _CcTargetCleanDelay        0048d018     cache:cachedat.obj
 0005:00000020       _CcMaxVacbLevelsSeen       0048d020     cache:cachedat.obj
 0005:00000024       _CcAvailablePagesThreshold 0048d024     cache:cachedat.obj
 0005:00000028       _CcMissCounter             0048d028     cache:cachedat.obj
 0005:0000002c       _CcMaxDirtyWrite           0048d02c     cache:cachesub.obj
 0005:00000030       _CmMaxViewsPerHive         0048d030     config:cmmapvw.obj
 0005:00000034       _CmRegistryLogSizeLimit    0048d034     config:cmsubs3.obj
 0005:00000038       _CmpHashTableSize          0048d038     config:cmsubs.obj
 0005:0000003c       _CmpLazyFlushIntervalInSeconds 0048d03c     config:cmworker.obj
 0005:00000040       _CmpLazyFlushHiveCount     0048d040     config:cmworker.obj
 0005:00000044       _CmpHoldLazyFlush          0048d044     config:cmworker.obj
 0005:00000048       _CmpLazyFlushCount         0048d048     config:cmworker.obj
 0005:0000004c       _CmSelfHeal                0048d04c     config:cmsysini.obj
 0005:00000050       _CmpDelayedCloseSize       0048d050     config:cmdelay.obj
 0005:00000054       _CmpDelayCloseIntervalInSeconds 0048d054     config:cmdelay.obj
 0005:00000058       _CmpDelayDerefKCBIntervalInSeconds 0048d058     config:cmdelay.obj
 0005:00000060       _ExShortTime               0048d060     ex:resource.obj
 0005:00000068       _ExResourceCheckFlags      0048d068     ex:resource.obj
 0005:0000006c       _ExResourceTimeoutCount    0048d06c     ex:resource.obj
 0005:00000070       _PoolHitTag                0048d070     ex:pool.obj
 0005:00000074       _ExpNumberOfPagedPools     0048d074     ex:pool.obj
 0005:00000078       _ExpNumberOfNonPagedPools  0048d078     ex:pool.obj
 0005:0000007c       _ExpPoolIndex              0048d07c     ex:pool.obj
 0005:00000080       _ExFreePoolMask            0048d080     ex:pool.obj
 0005:00000084       _ExMinimumLookasideDepth   0048d084     ex:lookasid.obj
 0005:00000088       _ExpEventBoost             0048d088     ex:event.obj
 0005:00000098       _Win32kFullPath            0048d098     ex:sysinfo.obj
 0005:0000010c       _ExpSemaphoreBoost         0048d10c     ex:semphore.obj
 0005:00001000       _pIofCallDriver            0048e000     ex:splocks.obj
 0005:00001004       _pIofCompleteRequest       0048e004     ex:splocks.obj
 0005:00001008       _pIoAllocateIrp            0048e008     ex:splocks.obj
 0005:0000100c       _pIoFreeIrp                0048e00c     ex:splocks.obj
 0005:00001080       _KiIdleSummary             0048e080     ex:splocks.obj
 0005:00001084       _KiIdleSMTSummary          0048e084     ex:splocks.obj
 0005:00001100       _KiTbFlushTimeStamp        0048e100     ex:splocks.obj
 0005:00001180       _KeTickCount               0048e180     ex:splocks.obj
 0005:0000118c       _KeMaximumIncrement        0048e18c     ex:splocks.obj
 0005:00001190       _KiTimeIncrementReciprocal 0048e190     ex:splocks.obj
 0005:00001198       _KeTimeAdjustment          0048e198     ex:splocks.obj
 0005:0000119c       _KiTimeIncrementShiftCount 0048e19c     ex:splocks.obj
 0005:000011a0       _KiTickOffset              0048e1a0     ex:splocks.obj
 0005:00001200       _KiMaximumDpcQueueDepth    0048e200     ex:splocks.obj
 0005:00001204       _KiMinimumDpcRate          0048e204     ex:splocks.obj
 0005:00001208       _KiAdjustDpcThreshold      0048e208     ex:splocks.obj
 0005:0000120c       _KiIdealDpcRate            0048e20c     ex:splocks.obj
 0005:00001280       _KeErrorMask               0048e280     ex:splocks.obj
 0005:00001284       _MmPaeErrMask              0048e284     ex:splocks.obj
 0005:00001288       _MmPaeMask                 0048e288     ex:splocks.obj
 0005:00001290       _MmHighestUserAddress      0048e290     ex:splocks.obj
 0005:00001294       _MmSystemRangeStart        0048e294     ex:splocks.obj
 0005:00001298       _MmUserProbeAddress        0048e298     ex:splocks.obj
 0005:0000129c       _MmHighestPhysicalPage     0048e29c     ex:splocks.obj
 0005:000012a0       _MmPfnDatabase             0048e2a0     ex:splocks.obj
 0005:000012a4       _MmSecondaryColors         0048e2a4     ex:splocks.obj
 0005:000012a8       _MmSecondaryColorMask      0048e2a8     ex:splocks.obj
 0005:000012ac       _MmSecondaryColorNodeShift 0048e2ac     ex:splocks.obj
 0005:00001300       _MmPfnDereferenceSListHead 0048e300     ex:splocks.obj
 0005:00001380       _MmPfnDeferredList         0048e380     ex:splocks.obj
 0005:00001400       _MmSystemLockPagesCount    0048e400     ex:splocks.obj
 0005:00001480       _ExGlobalAtomTableCallout  0048e480     ex:exatom.obj
 0005:00001488       _ExpLuid                   0048e488     ex:luid.obj
 0005:00001498       _NtInitialUserProcessBuffer 0048e498     init:initos.obj
 0005:00001598       _NtInitialUserProcessBufferLength 0048e598     init:initos.obj
 0005:0000159c       _NtInitialUserProcessBufferType 0048e59c     init:initos.obj
 0005:000015a0       _IoCountOperations         0048e5a0     iomgr:iosubs.obj
 0005:000015a4       _IopFailZeroAccessCreate   0048e5a4     iomgr:iodata.obj
 0005:000045b0       _KiDoubleFaultStack        004915b0     ke:newsysbg.obj
 0005:000075b0       _KiDoubleFaultTSS          004945b0     ke:newsysbg.obj
 0005:000075b0       P0BootStack                004945b0     ke:newsysbg.obj
 0005:00007618       _KiNMITSS                  00494618     ke:newsysbg.obj
 0005:00007680       _KiCommonDataArea          00494680     ke:newsysbg.obj
 0005:00007684       _KiAbiosPresent            00494684     ke:newsysbg.obj
 0005:00007694       _KiUnexpectedEntrySize     00494694     ke:trap.obj
 0005:000076b0       _KeBugCheckCount           004946b0     ke:bugcheck.obj
 0005:000076b4       _KeBugCheckOwner           004946b4     ke:bugcheck.obj
 0005:000076b8       _KeTimerCheckFlags         004946b8     ke:timerobj.obj
 0005:000076c0       _KiIsrTscLimit             004946c0     ke:intobj.obj
 0005:000076c8       _KiProfileIrql             004946c8     ke:i386init.obj
 0005:000076cc       _MsgISROverflow            004946cc     ke:i386init.obj
 0005:00007700       _KiISROverflow             00494700     ke:i386init.obj
 0005:00007704       _KiQueuedLockTableSize     00494704     ke:kernldat.obj
 0005:00007708       _KiSystemSharedData        00494708     ke:kernldat.obj
 0005:0000770c       _KiTimerTableSize          0049470c     ke:kernldat.obj
 0005:00007710       _KeProcessorArchitecture   00494710     ke:kernldat.obj
 0005:00007712       _KeTimeSynchronization     00494712     ke:kernldat.obj
 0005:00007714       _KeLargestCacheLine        00494714     ke:kernldat.obj
 0005:00007718       _KiDPCTimeout              00494718     ke:kernldat.obj
 0005:0000771c       _KiSpinlockTimeout         0049471c     ke:kernldat.obj
 0005:00007720       _KeNumberNodes             00494720     ke:kernldat.obj
 0005:00007724       _KeNodeBlock               00494724     ke:kernldat.obj
 0005:00007728       _KiProfileInterval         00494728     ke:kernldat.obj
 0005:0000772c       ProfileCount               0049472c     ke:clockint.obj
 0005:00007730       _KiSynchPacket             00494730     ke:mpipia.obj
 0005:00007734       _KeZeroPages               00494734     ke:kernlini.obj
 0005:00007738       _KeZeroPagesFromIdleThread 00494738     ke:kernlini.obj
 0005:0000773c       _KePrefetchNTAGranularity  0049473c     ke:kernlini.obj
 0005:00007780       _KiDebugRoutine            00494780     ke:debug.obj
 0005:00007788       _KiMtrrMaskBase            00494788     ke:mtrr.obj
 0005:00007790       _KiMtrrMaskMask            00494790     ke:mtrr.obj
 0005:00007798       _KiMtrrOverflowMask        00494798     ke:mtrr.obj
 0005:000077a0       _KiMtrrResBitMask          004947a0     ke:mtrr.obj
 0005:000077a8       _KiMtrrMaxRangeShift       004947a8     ke:mtrr.obj
 0005:000077ac       _LpcMaxEventLogs           004947ac     lpc:lpcreply.obj
 0005:000077b0       _MmPlentyFreePages         004947b0     mm:wsmanage.obj
 0005:000077b4       _MiAgingShift              004947b4     mm:wsmanage.obj
 0005:000077b8       _MiEstimationShift         004947b8     mm:wsmanage.obj
 0005:000077bc       _MiMaximumWslesPerSweep    004947bc     mm:wsmanage.obj
 0005:000077c0       _MiClaimAdjustmentThreshold 004947c0     mm:wsmanage.obj
 0005:000077e0       _MiTrimInProgressCount     004947e0     mm:wsmanage.obj
 0005:000077e8       _MmProcessColorSeed        004947e8     mm:miglobal.obj
 0005:000077ec       _MmLowestPhysicalPage      004947ec     mm:miglobal.obj
 0005:000077f0       _MiLastVadBit              004947f0     mm:miglobal.obj
 0005:000077f4       _MmPagesAboveWsThreshold   004947f4     mm:miglobal.obj
 0005:000077f8       _MmHiberPages              004947f8     mm:miglobal.obj
 0005:000077fc       _MmZeroedPageListHead      004947fc     mm:miglobal.obj
 0005:0000780c       _MmFreePageListHead        0049480c     mm:miglobal.obj
 0005:0000781c       _MmStandbyPageListHead     0049481c     mm:miglobal.obj
 0005:0000782c       _MmModifiedPageListHead    0049482c     mm:miglobal.obj
 0005:0000783c       _MmModifiedNoWritePageListHead 0049483c     mm:miglobal.obj
 0005:0000784c       _MmBadPageListHead         0049484c     mm:miglobal.obj
 0005:0000785c       _MmRomPageListHead         0049485c     mm:miglobal.obj
 0005:0000786c       _MmPageLocationList        0049486c     mm:miglobal.obj
 0005:0000788c       _MmMinimumFreePagesToZero  0049488c     mm:miglobal.obj
 0005:00007890       _MmSnapUnloads             00494890     mm:miglobal.obj
 0005:00007894       _MmMinimumNonPagedPoolSize 00494894     mm:miglobal.obj
 0005:00007898       _MmMinAdditionNonPagedPoolPerMb 00494898     mm:miglobal.obj
 0005:0000789c       _MmDefaultMaximumNonPagedPool 0049489c     mm:miglobal.obj
 0005:000078a0       _MmMaxAdditionNonPagedPoolPerMb 004948a0     mm:miglobal.obj
 0005:000078a4       _MmSizeOfPagedPoolInBytes  004948a4     mm:miglobal.obj
 0005:000078a8       _MmSizeOfPagedPoolInPages  004948a8     mm:miglobal.obj
 0005:000078ac       _MmSystemCacheWorkingSetList 004948ac     mm:miglobal.obj
 0005:000078b0       _MmSystemCacheStart        004948b0     mm:miglobal.obj
 0005:000078b4       _MmSystemCacheWsMinimum    004948b4     mm:miglobal.obj
 0005:000078b8       _MmMaximumDeadKernelStacks 004948b8     mm:miglobal.obj
 0005:000078bc       _MmMinimumFreePages        004948bc     mm:miglobal.obj
 0005:000078c0       _MmFreeGoal                004948c0     mm:miglobal.obj
 0005:000078c4       _MmMinimumFreeDiskSpace    004948c4     mm:miglobal.obj
 0005:000078c8       _MmPageFileExtension       004948c8     mm:miglobal.obj
 0005:000078cc       _MmMinimumPageFileReduction 004948cc     mm:miglobal.obj
 0005:000078d0       _MmModifiedWriteClusterSize 004948d0     mm:miglobal.obj
 0005:000078d4       _MmReadClusterSize         004948d4     mm:miglobal.obj
 0005:000078d8       _MmSystemProcessWorkingSetMin 004948d8     mm:miglobal.obj
 0005:000078dc       _MmSystemProcessWorkingSetMax 004948dc     mm:miglobal.obj
 0005:000078e0       _MmMinimumWorkingSetSize   004948e0     mm:miglobal.obj
 0005:000078e4       _MmHeapSegmentReserve      004948e4     mm:miglobal.obj
 0005:000078e8       _MmHeapSegmentCommit       004948e8     mm:miglobal.obj
 0005:000078ec       _MmHeapDeCommitTotalFreeThreshold 004948ec     mm:miglobal.obj
 0005:000078f0       _MmHeapDeCommitFreeBlockThreshold 004948f0     mm:miglobal.obj
 0005:000078f8       _MmProtectToValue          004948f8     mm:miglobal.obj
 0005:00007978       _MmProtectToPteMask        00494978     mm:miglobal.obj
 0005:000079f8       _MmMakeProtectNotWriteCopy 004949f8     mm:miglobal.obj
 0005:00007a78       _MiPlatformCacheAttributes 00494a78     mm:miglobal.obj
 0005:00007aa8       _MiIoRetryMask             00494aa8     mm:miglobal.obj
 0005:00007aac       _MiFaultRetryMask          00494aac     mm:miglobal.obj
 0005:00007ab0       _MiUserFaultRetryMask      00494ab0     mm:miglobal.obj
 0005:00007ab4       _MmVerifyDriverBufferLength 00494ab4     mm:miglobal.obj
 0005:00007ab8       _MmLargePageDriverBufferLength 00494ab8     mm:miglobal.obj
 0005:00007abc       _MiCacheStrings            00494abc     mm:iosup.obj
 0005:00007acc       _MmReferenceCountCheck     00494acc     mm:iosup.obj
 0005:00007ad0       _MmImageProtectionArray    00494ad0     mm:creasect.obj
 0005:00007ae0       _MmMakeLowMemory           00494ae0     mm:sysload.obj
 0005:00007ae4       _MmEnforceWriteProtection  00494ae4     mm:sysload.obj
 0005:00007ae8       _PsNtosImageBase           00494ae8     mm:sysload.obj
 0005:00007aec       _MmLargeStackSize          00494aec     mm:procsup.obj
 0005:00007af0       _KernelDemandZeroPte       00494af0     mm:procsup.obj
 0005:00007af4       _MmInPageSupportMinimum    00494af4     mm:pagfault.obj
 0005:00007af8       _MmMaxTransitionCluster    00494af8     mm:pagfault.obj
 0005:00007afc       _MmCompatibleProtectionMask 00494afc     mm:mmsup.obj
 0005:00007b1c       _MmUserProtectionToMask1   00494b1c     mm:mmsup.obj
 0005:00007b2c       _MmUserProtectionToMask2   00494b2c     mm:mmsup.obj
 0005:00007b3c       _MmSysPteIndex             00494b3c     mm:sysptes.obj
 0005:00007b50       _MmSysPteTables            00494b50     mm:sysptes.obj
 0005:00007b64       _MmSysPteMinimumFree       00494b64     mm:sysptes.obj
 0005:00007b78       _MmDecommittedPte          00494b78     mm:freevm.obj
 0005:00007b7c       _MiNonPagedPoolSListMaximum 00494b7c     mm:allocpag.obj
 0005:00007b80       _MiPagedPoolSListMaximum   00494b80     mm:allocpag.obj
 0005:00007b84       _MmUnusedSegmentForceFreeDefault 00494b84     mm:allocpag.obj
 0005:00007b88       _MmSystemCommitReserve     00494b88     mm:mmquota.obj
 0005:00007b8c       _MiNextZeroProcessor       00494b8c     mm:zeropage.obj
 0005:00007b90       _ValidKernelPte            00494b90     mm:data386.obj
 0005:00007b94       _ValidKernelPde            00494b94     mm:data386.obj
 0005:00007b98       _DemandZeroPde             00494b98     mm:data386.obj
 0005:00007b9c       _PrototypePte              00494b9c     mm:data386.obj
 0005:00007ba0       _MmNonPagedPoolEnd         00494ba0     mm:data386.obj
 0005:00007ba4       _MmPagedPoolStart          00494ba4     mm:data386.obj
 0005:00007ba8       _MiMaximumWorkingSet       00494ba8     mm:data386.obj
 0005:00007bac       _MmModifiedPageListByColor 00494bac     mm:data386.obj
 0005:00007bbc       _MmDebugPte                00494bbc     mm:data386.obj
 0005:00007bc0       _MmCrashDumpPte            00494bc0     mm:data386.obj
 0005:00007bc4       _Mi4dBreak                 00494bc4     mm:pfnlist.obj
 0005:00007bc8       _MxMapLargePages           00494bc8     mm:init386.obj
 0005:00007bcc       _MmReadWrite               00494bcc     mm:acceschk.obj
 0005:00007bf0       _BestCaseFill              00494bf0     ntosrtl:avltable.obj
 0005:00007c78       _WorstCaseFill             00494c78     ntosrtl:avltable.obj
 0005:00007cfc       _ObpTracePoolTagsLength    00494cfc     ob:obref.obj
 0005:00007d00       _ObpCaseInsensitive        00494d00     ob:obdir.obj
 0005:00007d04       _ObpUnsecureGlobalNamesLength 00494d04     ob:obdir.obj
 0005:00007d08       _ObpDefaultSecurityDescriptorLength 00494d08     ob:obse.obj
 0005:00007d0c       _ObpAccessProtectCloseBit  00494d0c     ob:obinit.obj
 0005:00007d10       _ObpObjectSecurityMode     00494d10     ob:obinit.obj
 0005:00007d14       _PerfInfoProfileSourceActive 00494d14     perf:perfdata.obj
 0005:00007d18       _PerfInfoProfileInterval   00494d18     perf:perfdata.obj
 0005:00007d20       _ShortTime                 00494d20     ps:psdelete.obj
 0005:00007d28       _WmipEventLogger           00494d28     wmi:tracesup.obj
 0005:00007d2c       _WmiGetCpuClock            00494d2c     wmi:tracesup.obj
 0005:00007d30       _WmiTraceAlignment         00494d30     wmi:tracelog.obj
 0005:00007d34       _WmiUsePerfClock           00494d34     wmi:tracelog.obj
 0005:00007d38       _WmipMaxKmWnodeEventSize   00494d38     wmi:wmi.obj
 0005:00007d40       _WmipMSMCAEvent_InvalidErrorGuid 00494d40     wmi:mca.obj
 0005:00007d50       _WmipMcaQueryInfo          00494d50     wmi:mca.obj
 0005:00007e08       _WmipCmcQueryInfo          00494e08     wmi:mca.obj
 0005:00007ec0       _WmipCpeQueryInfo          00494ec0     wmi:mca.obj
 0005:00007f78       _WmipWaitingMCAEvents      00494f78     wmi:mca.obj
 0005:00007f80       _WmipFirmwareTableArray    00494f80     wmi:provider.obj
 0005:00007f90       _WmipInUseRegEntryHead     00494f90     wmi:register.obj
 0005:00007f98       _WmipRegWorkItemCount      00494f98     wmi:register.obj
 0005:00007f9c       _WmipRegWorkList           00494f9c     wmi:register.obj
 0005:00007fa4       _WmipNPEvent               00494fa4     wmi:notify.obj
 0005:00007fac       _GUID_REGISTRATION_CHANGE_NOTIFICATION 00494fac     wmi:alloc.obj
 0005:00007fbc       _GUID_MOF_RESOURCE_ADDED_NOTIFICATION 00494fbc     wmi:alloc.obj
 0005:00007fcc       _GUID_MOF_RESOURCE_REMOVED_NOTIFICATION 00494fcc     wmi:alloc.obj
 0005:00007fdc       _WmipDSChunkInfo           00494fdc     wmi:alloc.obj
 0005:00007ff8       _WmipGEChunkInfo           00494ff8     wmi:alloc.obj
 0005:00008014       _WmipISChunkInfo           00495014     wmi:alloc.obj
 0005:00008030       _WmipMRChunkInfo           00495030     wmi:alloc.obj
 0005:0000804c       _WmipMSMCAEvent_InvalidErrGuid 0049504c     wmi:mcaevent.obj
 0005:0000805c       _WmipMSMCAEvent_MemoryHierarchyErrorGuid 0049505c     wmi:mcaevent.obj
 0005:0000806c       _WmipMSMCAEvent_TLBErrorGuid 0049506c     wmi:mcaevent.obj
 0005:0000807c       _WmipMSMCAEvent_BusErrorGuid 0049507c     wmi:mcaevent.obj
 0005:0000808c       _ExpMaxTimeSeparationBeforeCorrect 0049508c     ntoswrk:SYSTIME.obj
 0005:00008090       _ExpSystemIsInCmosMode     00495090     ntoswrk:SYSTIME.obj
 0005:00008091       _ExCmosClockIsSane         00495091     ntoswrk:SYSTIME.obj
 0005:000080d0       _HalDispatchTable          004950d0     ntoswrk:HALFNC.obj
 0005:00008128       _HalPrivateDispatchTable   00495128     ntoswrk:HALFNC.obj
 0005:00008178       _PcAnsiToUnicode           00495178     ntoswrk:HDLSTERM.obj
 0005:00008378       _InbvTerminalBkgdColor     00495378     ntoswrk:BOOTVID.obj
 0005:0000837c       _InbvTerminalTextColor     0049537c     ntoswrk:BOOTVID.obj
 0005:00008380       _ShowProgressBar           00495380     ntoswrk:BOOTVID.obj
 0005:00008384       ___security_cookie_complement 00495384     ntoswrk:INIT.obj
 0005:00008388       ___security_cookie         00495388     ntoswrk:INIT.obj
 0005:0000838c       _NtBuildNumber             0049538c     ntoswrk:INIT.obj
 0005:000083e0       _KdVersionBlock            004953e0     ntoswrk:KDDATA.obj
 0005:00008408       _KdDebuggerDataBlock       00495408     ntoswrk:KDDATA.obj
 0005:00008720       _Kd_WIN2000_Mask           00495720     ntoswrk:KDDATA.obj
 0005:00008728       _KdComponentTable          00495728     ntoswrk:KDDATA.obj
 0005:000088c8       _KdComponentTableSize      004958c8     ntoswrk:KDDATA.obj
 0005:000088cc       _KdpTimeSlipPending        004958cc     ntoswrk:KDDATA.obj
 0005:000088d0       _KdPitchDebugger           004958d0     ntoswrk:KDDATA.obj
 0005:000088d4       _IopFinalCrashDumpStatus   004958d4     ntoswrk:DUMPCTL.obj
 0005:000088d8       _IopRunTimeContextOffsets  004958d8     ntoswrk:DUMPCTL.obj
 0005:000088f0       _VerifierRequiredTimeSinceBoot 004958f0     ntoswrk:VERIFIER.obj
 0005:000088f8       _KernelVerifierTickPage    004958f8     ntoswrk:VERIFIER.obj
 0005:000088fc       _ViHideCacheConflicts      004958fc     ntoswrk:VERIFIER.obj
 0005:00008900       _ViTrackIrqlQueueLength    00495900     ntoswrk:VERIFIER.obj
 0005:00008904       _ViFaultTracesLength       00495904     ntoswrk:VERIFIER.obj
 0005:00008908       _ViTrimSpaces              00495908     ntoswrk:VERIFIER.obj
 0005:00008938       __NLG_Destination          00495938     ntoswrk:exsup.obj
 0005:00008960       _PopIdleDetectionMode      00495960     ntoswrk:PODATA.obj
 0005:00008964       _PopSimulate               00495964     ntoswrk:PODATA.obj
 0005:00008968       _PopIdleThrottleCheckRate  00495968     ntoswrk:PODATA.obj
 0005:0000896c       _PopIdleThrottleCheckTimeout 0049596c     ntoswrk:PODATA.obj
 0005:00008970       _PopIdleFrom0Delay         00495970     ntoswrk:PODATA.obj
 0005:00008974       _PopIdleFrom0IdlePercent   00495974     ntoswrk:PODATA.obj
 0005:00008978       _PopIdle0TimeCheck         00495978     ntoswrk:PODATA.obj
 0005:0000897c       _PopIdleTimeCheck          0049597c     ntoswrk:PODATA.obj
 0005:00008980       _PopIdleTo0Percent         00495980     ntoswrk:PODATA.obj
 0005:00008984       _PopIdleDefaultDemotePercent 00495984     ntoswrk:PODATA.obj
 0005:00008988       _PopIdleDefaultDemoteTime  00495988     ntoswrk:PODATA.obj
 0005:0000898c       _PopIdleDefaultPromotePercent 0049598c     ntoswrk:PODATA.obj
 0005:00008990       _PopIdleDefaultPromoteTime 00495990     ntoswrk:PODATA.obj
 0005:00008994       _PopIdleDefaultDemoteToC1Percent 00495994     ntoswrk:PODATA.obj
 0005:00008998       _PopIdleDefaultDemoteToC1Time 00495998     ntoswrk:PODATA.obj
 0005:0000899c       _PopIdleDefaultPromoteFromC1Percent 0049599c     ntoswrk:PODATA.obj
 0005:000089a0       _PopIdleDefaultPromoteFromC1Time 004959a0     ntoswrk:PODATA.obj
 0005:000089a4       _PopPerfTimeDelta          004959a4     ntoswrk:PODATA.obj
 0005:000089a8       _PopPerfCriticalTimeDelta  004959a8     ntoswrk:PODATA.obj
 0005:000089ac       _PopPerfIncreasePercentModifier 004959ac     ntoswrk:PODATA.obj
 0005:000089b0       _PopPerfIncreaseAbsoluteModifier 004959b0     ntoswrk:PODATA.obj
 0005:000089b4       _PopPerfDecreasePercentModifier 004959b4     ntoswrk:PODATA.obj
 0005:000089b8       _PopPerfDecreaseAbsoluteModifier 004959b8     ntoswrk:PODATA.obj
 0005:000089bc       _PopPerfIncreaseTimeValue  004959bc     ntoswrk:PODATA.obj
 0005:000089c0       _PopPerfIncreaseMinimumTime 004959c0     ntoswrk:PODATA.obj
 0005:000089c4       _PopPerfDecreaseTimeValue  004959c4     ntoswrk:PODATA.obj
 0005:000089c8       _PopPerfDecreaseMinimumTime 004959c8     ntoswrk:PODATA.obj
 0005:000089cc       _PopPerfDegradeThrottleMinCapacity 004959cc     ntoswrk:PODATA.obj
 0005:000089d0       _PopPerfDegradeThrottleMinFrequency 004959d0     ntoswrk:PODATA.obj
 0005:000089d4       _PopPerfMaxC3Frequency     004959d4     ntoswrk:PODATA.obj
 0005:000089d8       _PopPerfBusyAdjustmentThreshold 004959d8     ntoswrk:PODATA.obj
 0005:000089e0       _PopAttributes             004959e0     ntoswrk:PODATA.obj
 0005:00008a30       _VersionDataKeys           00495a30     ntoswrk:CMSYSINI2.obj
 0005:00008a40       _MmSpecialPoolCatchOverruns 00495a40     ntoswrk:SPECPOOL.obj
 0005:00008a48       _FadingIn                  00495a48     ntoswrk:ANIM.obj
 0005:00008a4c       _PalettePtr                00495a4c     ntoswrk:ANIM.obj
 0005:00008a50       _pbih                      00495a50     ntoswrk:ANIM.obj
 0005:00008a58       _MainPalette               00495a58     ntoswrk:ANIM.obj
 0005:00008a98       _KeI386EFlagsAndMaskV86    00495a98     ntoswrk:VDMKE.obj
 0005:00008a9c       _KeI386EFlagsOrMaskV86     00495a9c     ntoswrk:VDMKE.obj
 0005:00008aa0       _KeRegisteredProcessors    00495aa0     ntoswrk:ALLPROCHAL.obj
 0005:00008aa4       __fltused                  00495aa4     ntoswrk:stubs.obj
 0005:00008aa8       __ldused                   00495aa8     ntoswrk:stubs.obj
 0005:00008ab0       _EventGuidTable            00495ab0     ntoswrk:PNPEVENT.obj
 0005:00008b58       _Port                      00495b58     ntoswrk:PORT.obj
 0005:00008b88       _READ_UCHAR                00495b88     ntoswrk:PORT.obj
 0005:00008b8c       _WRITE_UCHAR               00495b8c     ntoswrk:PORT.obj
 0005:00008b90       ?enable@?2??VF_ASSERT_IRQL@@9@9 00495b90     ntoswrk:VFHAL.obj
 0005:00008b94       ?enable@?2??VF_ASSERT_MAX_IRQL@@9@9 00495b94     ntoswrk:VFHAL.obj
 0005:00008b98       ?enable@?5??ADD_MAP_REGISTERS@@9@9 00495b98     ntoswrk:VFHAL.obj
 0005:00008b9c       ?enable@?2??ADD_MAP_REGISTERS@@9@9 00495b9c     ntoswrk:VFHAL.obj
 0005:00008ba0       ?enable@?2??SUBTRACT_MAP_REGISTERS@@9@9 00495ba0     ntoswrk:VFHAL.obj
 0005:00008ba4       ?enable@?2??DECREMENT_COMMON_BUFFERS@@9@9 00495ba4     ntoswrk:VFHAL.obj
 0005:00008ba8       ?enable@?2??INCREASE_MAPPED_TRANSFER_BYTE_COUNT@@9@9 00495ba8     ntoswrk:VFHAL.obj
 0005:00008bac       ?enable@?2??INCREMENT_ADAPTER_CHANNELS@@9@9 00495bac     ntoswrk:VFHAL.obj
 0005:00008bb0       ?enable@?2??DECREMENT_ADAPTER_CHANNELS@@9@9 00495bb0     ntoswrk:VFHAL.obj
 0005:00008bb4       ?enable@?2??DECREMENT_SCATTER_GATHER_LISTS@@9@9 00495bb4     ntoswrk:VFHAL.obj
 0005:00008bb8       ?enable@?2??VERIFY_BUFFER_LOCKED@@9@9 00495bb8     ntoswrk:VFHAL.obj
 0005:00008bbc       _ViVerifyMode              00495bbc     ntoswrk:VFTRIAGE.obj
 0005:00008bc0       _PopWakeTimer              00495bc0     ntoswrk:SYSDEV.obj
 0005:00008bd0       __indefinite               00495bd0     ntoswrk:87disp.obj
 0005:00008bda       __piby2                    00495bda     ntoswrk:87disp.obj
 0005:00008bec       __cpower                   00495bec     ntoswrk:87disp.obj
 0005:00008c00       ___nullstring              00495c00     ntoswrk:output.obj
 0005:00008c04       ___wnullstring             00495c04     ntoswrk:output.obj
 0005:00008c10       __pctype                   00495c10     ntoswrk:ctype.obj
 0005:00008c14       __pwctype                  00495c14     ntoswrk:ctype.obj
 0005:00008c18       ___mb_cur_max              00495c18     ntoswrk:nlsdata1.obj
 0005:00008c1c       ___decimal_point           00495c1c     ntoswrk:nlsdata1.obj
 0005:00008c20       ___decimal_point_length    00495c20     ntoswrk:nlsdata1.obj
 0005:00008c24       _CcPfAppLaunchScenarioTypePrefix 00495c24     ntoswrk:PREFPARM.obj
 0005:00008c28       _CcPfBootScenarioTypePrefix 00495c28     ntoswrk:PREFPARM.obj
 0005:00008c2c       _CcPfInvalidScenarioTypePrefix 00495c2c     ntoswrk:PREFPARM.obj
 0005:00008c30       _PbBiosInitialized         00495c30     ntoswrk:PBIOSC.obj
 0005:00008c34       _TriageImagePageSize       00495c34     ntoswrk:TRIAGE.obj
 0005:00008c38       __cfltcvt_tab              00495c38     ntoswrk:cmiscdat.obj
 0005:00008c50       _VerifierFilterDriverName  00495c50     ntoswrk:VFFILTER.obj
 0005:00008d68       __matherr_flag             00495d68     ntoswrk:matherr.obj
 0005:00008d88       __d_inf                    00495d88     ntoswrk:util.obj
 0005:00008d90       __d_ind                    00495d90     ntoswrk:util.obj
 0005:00008d98       __d_max                    00495d98     ntoswrk:util.obj
 0005:00008da0       __d_min                    00495da0     ntoswrk:util.obj
 0005:00008da8       __d_mzero                  00495da8     ntoswrk:util.obj
 0005:00008e10       _g_rgAttributeTags         00495e10     sdbapint:attributes.obj
 0005:00009298       _g_rgDirectoryTags         00496298     sdbapint:attributes.obj
 0005:00009300       _CcTwilightLookasideList   00496300     cache:cachedat.obj
 0005:00009380       _CcNumberWorkerThreads     00496380     cache:cachedat.obj
 0005:00009384       _CcNumberActiveWorkerThreads 00496384     cache:cachedat.obj
 0005:00009388       _CcQueueThrottle           00496388     cache:cachedat.obj
 0005:0000938c       _CcVacbLevelEntries        0049638c     cache:cachedat.obj
 0005:00009390       _CcVacbLevelFreeList       00496390     cache:cachedat.obj
 0005:00009394       _CcVacbLevelWithBcbsEntries 00496394     cache:cachedat.obj
 0005:00009398       _CcVacbLevelWithBcbsFreeList 00496398     cache:cachedat.obj
 0005:0000939c       _CcPagesWrittenLastTime    0049639c     cache:cachedat.obj
 0005:000093a0       _CcDirtyPagesLastScan      004963a0     cache:cachedat.obj
 0005:000093a4       _CcTotalDirtyPages         004963a4     cache:cachedat.obj
 0005:000093a8       _CcTune                    004963a8     cache:cachedat.obj
 0005:000093ac       _CmpAllocInited            004963ac     config:cmalloc.obj
 0005:000093ad       _CmpTrackHiveClose         004963ad     config:cmmapvw.obj
 0005:000093b0       _CmpFlushStarveWriters     004963b0     config:cmsubs3.obj
 0005:000093b4       _CmpFlushOnLockRelease     004963b4     config:cmsubs3.obj
 0005:000093b5       _CmpLazyFlushPending       004963b5     config:cmworker.obj
 0005:000093b6       _CmpForceForceFlush        004963b6     config:cmworker.obj
 0005:000093b7       _CmpDontGrowLogFile        004963b7     config:cmworker.obj
 0005:000093b8       _CmpSystemHiveHysteresisLow 004963b8     config:cmgquota.obj
 0005:000093bc       _CmpSystemHiveHysteresisHigh 004963bc     config:cmgquota.obj
 0005:000093c0       _CmpSystemHiveHysteresisContext 004963c0     config:cmgquota.obj
 0005:000093c4       _CmpSystemHiveHysteresisCallback 004963c4     config:cmgquota.obj
 0005:000093c8       _CmpSystemHiveHysteresisHitRatio 004963c8     config:cmgquota.obj
 0005:000093cc       _CmpSystemHiveHysteresisLowSeen 004963cc     config:cmgquota.obj
 0005:000093cd       _CmpSystemHiveHysteresisHighSeen 004963cd     config:cmgquota.obj
 0005:000093ce       _CmpSelfHealWorkerActive   004963ce     config:cmgquota.obj
 0005:000093d0       _CmpLoadWorkerIncrement    004963d0     config:cmsysini.obj
 0005:000093d4       _CmpSystemHiveConversionFailed 004963d4     config:cmsysini.obj
 0005:000093d8       _CmpDelayedCloseElements   004963d8     config:cmdelay.obj
 0005:000093dc       _CmpDelayCloseWorkItemActive 004963dc     config:cmdelay.obj
 0005:000093dd       _CmpDelayDerefKCBWorkItemActive 004963dd     config:cmdelay.obj
 0005:000093e0       _ExPushLockSpinCount       004963e0     ex:pushlock.obj
 0005:00009400       _ExpSmallPagedPoolLookasideLists 00496400     ex:pool.obj
 0005:0000a400       _ExpSmallNPagedPoolLookasideLists 00497400     ex:pool.obj
 0005:0000b400       _ExpPoolFlags              00498400     ex:pool.obj
 0005:0000b404       _ExpPoolScanCount          00498404     ex:lookasid.obj
 0005:0000b408       _ExpScanCount              00498408     ex:lookasid.obj
 0005:0000b40c       _TotalTraceBuffers         0049840c     ex:handle.obj
 0005:0000b410       _ExpWdHandler              00498410     ex:sysinfo.obj
 0005:0000b414       _ExpWdHandlerContext       00498414     ex:sysinfo.obj
 0005:0000b418       _ExReadyForErrors          00498418     ex:harderr.obj
 0005:0000b41c       _HardErrorState            0049841c     ex:harderr.obj
 0005:0000b420       _ExpTooLateForErrors       00498420     ex:harderr.obj
 0005:0000b440       _TunnelLookasideList       00498440     fsrtl:Tunnel.obj
 0005:0000b500       _FsRtlFirstMappingLookasideList 00498500     fsrtl:LargeMcb.obj
 0005:0000b5c0       _FsRtlFastMutexLookasideList 004985c0     fsrtl:LargeMcb.obj
 0005:0000b680       _FsRtlSharedLockLookasideList 00498680     fsrtl:FileLock.obj
 0005:0000b740       _FsRtlLockInfoLookasideList 00498740     fsrtl:FileLock.obj
 0005:0000b800       _FsRtlExclusiveLockLookasideList 00498800     fsrtl:FileLock.obj
 0005:0000b8c0       _FsRtlLockTreeNodeLookasideList 004988c0     fsrtl:FileLock.obj
 0005:0000b980       _FsRtlFileLockLookasideList 00498980     fsrtl:FileLock.obj
 0005:0000ba40       _FsRtlWaitingLockLookasideList 00498a40     fsrtl:FileLock.obj
 0005:0000bb00       _IopCompletionLookasideList 00498b00     iomgr:iodata.obj
 0005:0000bb80       _IopLargeIrpLookasideList  00498b80     iomgr:iodata.obj
 0005:0000bc00       _IopMdlLookasideList       00498c00     iomgr:iodata.obj
 0005:0000bc80       _IopSmallIrpLookasideList  00498c80     iomgr:iodata.obj
 0005:0000bd04       _IopErrorLogObject         00498d04     iomgr:ioinit.obj
 0005:0000bd08       _KiHardwareTrigger         00498d08     ke:hifreqlk.obj
 0005:0000bd0c       _KeBugCheckActive          00498d0c     ke:bugcheck.obj
 0005:0000bd18       _KeI386MachineType         00498d18     ke:i386init.obj
 0005:0000bd1c       _KiInBiosCall              00498d1c     ke:i386init.obj
 0005:0000bd20       _FlagState                 00498d20     ke:i386init.obj
 0005:0000bd40       _KiNode0                   00498d40     ke:kernldat.obj
 0005:0000bd80       _KiInitialProcess          00498d80     ke:kernldat.obj
 0005:0000c000       _KiInitialThread           00499000     ke:kernldat.obj
 0005:0000c280       _KiTimerTableListHead      00499280     ke:kernldat.obj
 0005:0000e280       _KeActiveProcessors        0049b280     ke:kernldat.obj
 0005:0000e284       _KeLoaderBlock             0049b284     ke:kernldat.obj
 0005:0000e288       _KeThreadDpcEnable         0049b288     ke:kernldat.obj
 0005:0000e28c       _KeNumberProcessors        0049b28c     ke:kernldat.obj
 0005:0000e290       _KeNumprocSpecified        0049b290     ke:kernldat.obj
 0005:0000e294       _KeProcessorLevel          0049b294     ke:kernldat.obj
 0005:0000e298       _KeProcessorRevision       0049b298     ke:kernldat.obj
 0005:0000e29c       _KeFeatureBits             0049b29c     ke:kernldat.obj
 0005:0000e2a0       _KiBugCodeMessages         0049b2a0     ke:kernldat.obj
 0005:0000e2a4       _KiEnableTimerWatchdog     0049b2a4     ke:kernldat.obj
 0005:0000e2a8       _KiFastCallCopyDoneOnce    0049b2a8     ke:misc.obj
 0005:0000e2a9       _KiI386PentiumLockErrataPresent 0049b2a9     ke:kernlini.obj
 0005:0000e2aa       _KiIgnoreUnexpectedTrap07  0049b2aa     ke:kernlini.obj
 0005:0000e2ac       _KiProcessorStartControl   0049b2ac     ke:allproc.obj
 0005:0000e2b0       _KiBarrierWait             0049b2b0     ke:allproc.obj
 0005:0000e2b4       _LpcpEventCounts           0049b2b4     lpc:lpcreply.obj
 0005:0000e2c0       _LpcpMessagesLookaside     0049b2c0     lpc:lpcqueue.obj
 0005:0000e380       _MiReplacing               0049b380     mm:wsmanage.obj
 0005:0000e384       _MmTotalClaim              0049b384     mm:wsmanage.obj
 0005:0000e388       _MmTotalEstimatedAvailable 0049b388     mm:wsmanage.obj
 0005:0000e38c       _MiHardTrim                0049b38c     mm:wsmanage.obj
 0005:0000e398       _MmLargePageDriverBuffer   0049b398     mm:miglobal.obj
 0005:0000e798       _MmTrackPtes               0049b798     mm:iosup.obj
 0005:0000e79c       _MiTrackPtesAborted        0049b79c     mm:iosup.obj
 0005:0000e79d       _MiWriteCombiningPtes      0049b79d     mm:iosup.obj
 0005:0000e7a0       _MiMdlsAdjusted            0049b7a0     mm:iosup.obj
 0005:0000e7d4       _MmSharedCommit            0049b7d4     mm:sectsup.obj
 0005:0000e808       _MiFirstPageFileCreatedAndReady 0049b808     mm:modwrite.obj
 0005:0000e80c       _MiDrainingMappedWrites    0049b80c     mm:modwrite.obj
 0005:0000e810       _MiFirstDriverLoadEver     0049b810     mm:sysload.obj
 0005:0000e814       _MmKeepBootRegistry        0049b814     mm:mminit.obj
 0005:0000e818       _MmPagedPoolMaximumDesired 0049b818     mm:mminit.obj
 0005:0000e81c       _MiSafeBooted              0049b81c     mm:mminit.obj
 0005:0000e820       _MiTimerPending            0049b820     mm:mminit.obj
 0005:0000e821       _MiAllMainMemoryMustBeCached 0049b821     mm:mminit.obj
 0005:0000e824       _MiZeroingDisabled         0049b824     mm:zeropage.obj
 0005:0000e828       _MmPteGlobal               0049b828     mm:data386.obj
 0005:0000e82c       _MmTotalPagesForPagingFile 0049b82c     mm:data386.obj
 0005:0000e830       _RtlpExceptionLog          0049b830     ntosrtl:excptdbg.obj
 0005:0000e834       _SepLsaQueueLock           0049b834     ntosse:seglobal.obj
 0005:0000e86c       _SepExWorkItem             0049b86c     ntosse:seglobal.obj
 0005:0000e880       _SepRmDbLock               0049b880     ntosse:rmvars.obj
 0005:0000e960       _SepRmNotifyMutex          0049b960     ntosse:rmvars.obj
 0005:0000e980       _ObpTraceNoDeregister      0049b980     ob:obref.obj
 0005:0000e988       _ObpTracePoolTagsBuffer    0049b988     ob:obref.obj
 0005:0000ea88       _ObpTraceEnabled           0049ba88     ob:obref.obj
 0005:0000ea8c       _ObpStackTable             0049ba8c     ob:obref.obj
 0005:0000ea90       _ObpObjectTable            0049ba90     ob:obref.obj
 0005:0000ea98       _ObpUnsecureGlobalNamesBuffer 0049ba98     ob:obdir.obj
 0005:0000ebc0       _ObpCreateInfoLookasideList 0049bbc0     ob:obinit.obj
 0005:0000ec40       _ObpNameBufferLookasideList 0049bc40     ob:obinit.obj
 0005:0000ecc0       _ObSystemDeviceMap         0049bcc0     ob:obinit.obj
 0005:0000ecc4       _PerfInfoProfileSourceRequested 0049bcc4     perf:perfdata.obj
 0005:0000ecc8       _PsWatchEnabled            0049bcc8     ps:psquery.obj
 0005:0000ecc9       _PsUseImpersonationToken   0049bcc9     ps:create.obj
 0005:0000eccc       _WmipKernelLogger          0049bccc     wmi:tracesup.obj
 0005:0000ecd0       _WmipGlobalSequence        0049bcd0     wmi:tracelog.obj
 0005:0000ecd4       _WmipTraceFileFlag         0049bcd4     wmi:callouts.obj
 0005:0000ecd8       _WmipFileIndex             0049bcd8     wmi:callouts.obj
 0005:0000ecdc       _WmipWorkItemCounter       0049bcdc     wmi:callouts.obj
 0005:0000ece0       _WmipFileTable             0049bce0     wmi:callouts.obj
 0005:0000ed00       _WmipRegLookaside          0049bd00     wmi:register.obj
 0005:0000edc0       _WmipInUseRegEntryCount    0049bdc0     wmi:register.obj
 0005:0000edc4       _ExpRealTimeIsUniversal    0049bdc4     ntoswrk:SYSTIME.obj
 0005:0000edd0       _HeadlessGlobals           0049bdd0     ntoswrk:HDLSTERM.obj
 0005:0000edd4       _InbvBootDriverInstalled   0049bdd4     ntoswrk:BOOTVID.obj
 0005:0000edd5       _InbvDisplayDebugStrings   0049bdd5     ntoswrk:BOOTVID.obj
 0005:0000edd8       _InbvDisplayState          0049bdd8     ntoswrk:BOOTVID.obj
 0005:0000eddc       _InbvResetDisplayParameters 0049bddc     ntoswrk:BOOTVID.obj
 0005:0000ede0       _InbvDisplayFilter         0049bde0     ntoswrk:BOOTVID.obj
 0005:0000ede4       _ResourceCount             0049bde4     ntoswrk:BOOTVID.obj
 0005:0000edf8       _InitIsWinPEMode           0049bdf8     ntoswrk:INIT.obj
 0005:0000edfc       _InitWinPEModeType         0049bdfc     ntoswrk:INIT.obj
 0005:0000ee0c       _KdDisableCount            0049be0c     ntoswrk:KDAPI.obj
 0005:0000ee10       _KdPreviouslyEnabled       0049be10     ntoswrk:KDAPI.obj
 0005:0000ee11       _TraceDataBufferFilled     0049be11     ntoswrk:KDAPI.obj
 0005:0000ee18       _Kd_SYSTEM_Mask            0049be18     ntoswrk:KDDATA.obj
 0005:0000ee1c       _Kd_SMSS_Mask              0049be1c     ntoswrk:KDDATA.obj
 0005:0000ee20       _Kd_SETUP_Mask             0049be20     ntoswrk:KDDATA.obj
 0005:0000ee24       _Kd_NTFS_Mask              0049be24     ntoswrk:KDDATA.obj
 0005:0000ee28       _Kd_FSTUB_Mask             0049be28     ntoswrk:KDDATA.obj
 0005:0000ee2c       _Kd_CRASHDUMP_Mask         0049be2c     ntoswrk:KDDATA.obj
 0005:0000ee30       _Kd_CDAUDIO_Mask           0049be30     ntoswrk:KDDATA.obj
 0005:0000ee34       _Kd_CDROM_Mask             0049be34     ntoswrk:KDDATA.obj
 0005:0000ee38       _Kd_CLASSPNP_Mask          0049be38     ntoswrk:KDDATA.obj
 0005:0000ee3c       _Kd_DISK_Mask              0049be3c     ntoswrk:KDDATA.obj
 0005:0000ee40       _Kd_REDBOOK_Mask           0049be40     ntoswrk:KDDATA.obj
 0005:0000ee44       _Kd_STORPROP_Mask          0049be44     ntoswrk:KDDATA.obj
 0005:0000ee48       _Kd_SCSIPORT_Mask          0049be48     ntoswrk:KDDATA.obj
 0005:0000ee4c       _Kd_SCSIMINIPORT_Mask      0049be4c     ntoswrk:KDDATA.obj
 0005:0000ee50       _Kd_CONFIG_Mask            0049be50     ntoswrk:KDDATA.obj
 0005:0000ee54       _Kd_I8042PRT_Mask          0049be54     ntoswrk:KDDATA.obj
 0005:0000ee58       _Kd_SERMOUSE_Mask          0049be58     ntoswrk:KDDATA.obj
 0005:0000ee5c       _Kd_LSERMOUS_Mask          0049be5c     ntoswrk:KDDATA.obj
 0005:0000ee60       _Kd_KBDHID_Mask            0049be60     ntoswrk:KDDATA.obj
 0005:0000ee64       _Kd_MOUHID_Mask            0049be64     ntoswrk:KDDATA.obj
 0005:0000ee68       _Kd_KBDCLASS_Mask          0049be68     ntoswrk:KDDATA.obj
 0005:0000ee6c       _Kd_MOUCLASS_Mask          0049be6c     ntoswrk:KDDATA.obj
 0005:0000ee70       _Kd_TWOTRACK_Mask          0049be70     ntoswrk:KDDATA.obj
 0005:0000ee74       _Kd_WMILIB_Mask            0049be74     ntoswrk:KDDATA.obj
 0005:0000ee78       _Kd_ACPI_Mask              0049be78     ntoswrk:KDDATA.obj
 0005:0000ee7c       _Kd_AMLI_Mask              0049be7c     ntoswrk:KDDATA.obj
 0005:0000ee80       _Kd_HALIA64_Mask           0049be80     ntoswrk:KDDATA.obj
 0005:0000ee84       _Kd_VIDEO_Mask             0049be84     ntoswrk:KDDATA.obj
 0005:0000ee88       _Kd_SVCHOST_Mask           0049be88     ntoswrk:KDDATA.obj
 0005:0000ee8c       _Kd_VIDEOPRT_Mask          0049be8c     ntoswrk:KDDATA.obj
 0005:0000ee90       _Kd_TCPIP_Mask             0049be90     ntoswrk:KDDATA.obj
 0005:0000ee94       _Kd_DMSYNTH_Mask           0049be94     ntoswrk:KDDATA.obj
 0005:0000ee98       _Kd_NTOSPNP_Mask           0049be98     ntoswrk:KDDATA.obj
 0005:0000ee9c       _Kd_FASTFAT_Mask           0049be9c     ntoswrk:KDDATA.obj
 0005:0000eea0       _Kd_SAMSS_Mask             0049bea0     ntoswrk:KDDATA.obj
 0005:0000eea4       _Kd_PNPMGR_Mask            0049bea4     ntoswrk:KDDATA.obj
 0005:0000eea8       _Kd_NETAPI_Mask            0049bea8     ntoswrk:KDDATA.obj
 0005:0000eeac       _Kd_SCSERVER_Mask          0049beac     ntoswrk:KDDATA.obj
 0005:0000eeb0       _Kd_SCCLIENT_Mask          0049beb0     ntoswrk:KDDATA.obj
 0005:0000eeb4       _Kd_SERIAL_Mask            0049beb4     ntoswrk:KDDATA.obj
 0005:0000eeb8       _Kd_SERENUM_Mask           0049beb8     ntoswrk:KDDATA.obj
 0005:0000eebc       _Kd_UHCD_Mask              0049bebc     ntoswrk:KDDATA.obj
 0005:0000eec0       _Kd_RPCPROXY_Mask          0049bec0     ntoswrk:KDDATA.obj
 0005:0000eec4       _Kd_AUTOCHK_Mask           0049bec4     ntoswrk:KDDATA.obj
 0005:0000eec8       _Kd_DCOMSS_Mask            0049bec8     ntoswrk:KDDATA.obj
 0005:0000eecc       _Kd_UNIMODEM_Mask          0049becc     ntoswrk:KDDATA.obj
 0005:0000eed0       _Kd_SIS_Mask               0049bed0     ntoswrk:KDDATA.obj
 0005:0000eed4       _Kd_FLTMGR_Mask            0049bed4     ntoswrk:KDDATA.obj
 0005:0000eed8       _Kd_WMICORE_Mask           0049bed8     ntoswrk:KDDATA.obj
 0005:0000eedc       _Kd_BURNENG_Mask           0049bedc     ntoswrk:KDDATA.obj
 0005:0000eee0       _Kd_IMAPI_Mask             0049bee0     ntoswrk:KDDATA.obj
 0005:0000eee4       _Kd_SXS_Mask               0049bee4     ntoswrk:KDDATA.obj
 0005:0000eee8       _Kd_FUSION_Mask            0049bee8     ntoswrk:KDDATA.obj
 0005:0000eeec       _Kd_IDLETASK_Mask          0049beec     ntoswrk:KDDATA.obj
 0005:0000eef0       _Kd_SOFTPCI_Mask           0049bef0     ntoswrk:KDDATA.obj
 0005:0000eef4       _Kd_TAPE_Mask              0049bef4     ntoswrk:KDDATA.obj
 0005:0000eef8       _Kd_MCHGR_Mask             0049bef8     ntoswrk:KDDATA.obj
 0005:0000eefc       _Kd_IDEP_Mask              0049befc     ntoswrk:KDDATA.obj
 0005:0000ef00       _Kd_PCIIDE_Mask            0049bf00     ntoswrk:KDDATA.obj
 0005:0000ef04       _Kd_FLOPPY_Mask            0049bf04     ntoswrk:KDDATA.obj
 0005:0000ef08       _Kd_FDC_Mask               0049bf08     ntoswrk:KDDATA.obj
 0005:0000ef0c       _Kd_TERMSRV_Mask           0049bf0c     ntoswrk:KDDATA.obj
 0005:0000ef10       _Kd_W32TIME_Mask           0049bf10     ntoswrk:KDDATA.obj
 0005:0000ef14       _Kd_PREFETCHER_Mask        0049bf14     ntoswrk:KDDATA.obj
 0005:0000ef18       _Kd_RSFILTER_Mask          0049bf18     ntoswrk:KDDATA.obj
 0005:0000ef1c       _Kd_FCPORT_Mask            0049bf1c     ntoswrk:KDDATA.obj
 0005:0000ef20       _Kd_PCI_Mask               0049bf20     ntoswrk:KDDATA.obj
 0005:0000ef24       _Kd_DMIO_Mask              0049bf24     ntoswrk:KDDATA.obj
 0005:0000ef28       _Kd_DMCONFIG_Mask          0049bf28     ntoswrk:KDDATA.obj
 0005:0000ef2c       _Kd_DMADMIN_Mask           0049bf2c     ntoswrk:KDDATA.obj
 0005:0000ef30       _Kd_WSOCKTRANSPORT_Mask    0049bf30     ntoswrk:KDDATA.obj
 0005:0000ef34       _Kd_VSS_Mask               0049bf34     ntoswrk:KDDATA.obj
 0005:0000ef38       _Kd_PNPMEM_Mask            0049bf38     ntoswrk:KDDATA.obj
 0005:0000ef3c       _Kd_PROCESSOR_Mask         0049bf3c     ntoswrk:KDDATA.obj
 0005:0000ef40       _Kd_DMSERVER_Mask          0049bf40     ntoswrk:KDDATA.obj
 0005:0000ef44       _Kd_SR_Mask                0049bf44     ntoswrk:KDDATA.obj
 0005:0000ef48       _Kd_INFINIBAND_Mask        0049bf48     ntoswrk:KDDATA.obj
 0005:0000ef4c       _Kd_IHVDRIVER_Mask         0049bf4c     ntoswrk:KDDATA.obj
 0005:0000ef50       _Kd_IHVVIDEO_Mask          0049bf50     ntoswrk:KDDATA.obj
 0005:0000ef54       _Kd_IHVAUDIO_Mask          0049bf54     ntoswrk:KDDATA.obj
 0005:0000ef58       _Kd_IHVNETWORK_Mask        0049bf58     ntoswrk:KDDATA.obj
 0005:0000ef5c       _Kd_IHVSTREAMING_Mask      0049bf5c     ntoswrk:KDDATA.obj
 0005:0000ef60       _Kd_IHVBUS_Mask            0049bf60     ntoswrk:KDDATA.obj
 0005:0000ef64       _Kd_HPS_Mask               0049bf64     ntoswrk:KDDATA.obj
 0005:0000ef68       _Kd_RTLTHREADPOOL_Mask     0049bf68     ntoswrk:KDDATA.obj
 0005:0000ef6c       _Kd_LDR_Mask               0049bf6c     ntoswrk:KDDATA.obj
 0005:0000ef70       _Kd_TCPIP6_Mask            0049bf70     ntoswrk:KDDATA.obj
 0005:0000ef74       _Kd_ISAPNP_Mask            0049bf74     ntoswrk:KDDATA.obj
 0005:0000ef78       _Kd_SHPC_Mask              0049bf78     ntoswrk:KDDATA.obj
 0005:0000ef7c       _Kd_STORPORT_Mask          0049bf7c     ntoswrk:KDDATA.obj
 0005:0000ef80       _Kd_STORMINIPORT_Mask      0049bf80     ntoswrk:KDDATA.obj
 0005:0000ef84       _Kd_PRINTSPOOLER_Mask      0049bf84     ntoswrk:KDDATA.obj
 0005:0000ef88       _Kd_VSSDYNDISK_Mask        0049bf88     ntoswrk:KDDATA.obj
 0005:0000ef8c       _Kd_VERIFIER_Mask          0049bf8c     ntoswrk:KDDATA.obj
 0005:0000ef90       _Kd_VDS_Mask               0049bf90     ntoswrk:KDDATA.obj
 0005:0000ef94       _Kd_VDSBAS_Mask            0049bf94     ntoswrk:KDDATA.obj
 0005:0000ef98       _Kd_VDSDYNDR_Mask          0049bf98     ntoswrk:KDDATA.obj
 0005:0000ef9c       _Kd_VDSUTIL_Mask           0049bf9c     ntoswrk:KDDATA.obj
 0005:0000efa0       _Kd_DFRGIFC_Mask           0049bfa0     ntoswrk:KDDATA.obj
 0005:0000efa4       _Kd_DEFAULT_Mask           0049bfa4     ntoswrk:KDDATA.obj
 0005:0000efa8       _Kd_MM_Mask                0049bfa8     ntoswrk:KDDATA.obj
 0005:0000efac       _Kd_DFSC_Mask              0049bfac     ntoswrk:KDDATA.obj
 0005:0000efb0       _Kd_WOW64_Mask             0049bfb0     ntoswrk:KDDATA.obj
 0005:0000efb4       _Kd_ENDOFTABLE_Mask        0049bfb4     ntoswrk:KDDATA.obj
 0005:0000efb8       _KdpPrintSpinLock          0049bfb8     ntoswrk:KDDATA.obj
 0005:0000efbc       _KdpDataSpinLock           0049bfbc     ntoswrk:KDDATA.obj
 0005:0000efc0       _KdpTimeSlipEventLock      0049bfc0     ntoswrk:KDDATA.obj
 0005:0000efc4       _KdpTimeSlipEvent          0049bfc4     ntoswrk:KDDATA.obj
 0005:0000efc8       _KdpTimeSlipDpc            0049bfc8     ntoswrk:KDDATA.obj
 0005:0000efe8       _KdpTimeSlipWorkItem       0049bfe8     ntoswrk:KDDATA.obj
 0005:0000eff8       _KdpTimeSlipTimer          0049bff8     ntoswrk:KDDATA.obj
 0005:0000f020       _IopIgnoreDumpCheck        0049c020     ntoswrk:DUMPCTL.obj
 0005:0000f024       _MiTrimRemovalPagesOnly    0049c024     ntoswrk:DYNMEM.obj
 0005:0000f028       _VerifierIsTrackingPool    0049c028     ntoswrk:VERIFIER.obj
 0005:0000f02c       _KernelVerifier            0049c02c     ntoswrk:VERIFIER.obj
 0005:0000f030       _MiLargeZero               0049c030     ntoswrk:PFSUP.obj
 0005:0000f040       _RtlpRangeListEntryLookasideList 0049c040     ntoswrk:RANGE.obj
 0005:0000f100       _ViDdiInitialized          0049c100     ntoswrk:VFDDI.obj
 0005:0000f140       _PopIdleHandlerLookAsideList 0049c140     ntoswrk:PODATA.obj
 0005:0000f200       _PopIdleDefaultMinThrottle 0049c200     ntoswrk:PODATA.obj
 0005:0000f204       _PopPerfTimeTicks          0049c204     ntoswrk:PODATA.obj
 0005:0000f208       _PopPerfCriticalFrequencyDelta 0049c208     ntoswrk:PODATA.obj
 0005:0000f20c       _PopVolumeDevices          0049c20c     ntoswrk:PODATA.obj
 0005:0000f214       _PopShutdownCleanly        0049c214     ntoswrk:PODATA.obj
 0005:0000f218       _PopPolicyLockThread       0049c218     ntoswrk:PODATA.obj
 0005:0000f220       _PopAcPolicy               0049c220     ntoswrk:PODATA.obj
 0005:0000f308       _PopDcPolicy               0049c308     ntoswrk:PODATA.obj
 0005:0000f3f0       _PopPolicy                 0049c3f0     ntoswrk:PODATA.obj
 0005:0000f3f8       _PopAcProcessorPolicy      0049c3f8     ntoswrk:PODATA.obj
 0005:0000f448       _PopDcProcessorPolicy      0049c448     ntoswrk:PODATA.obj
 0005:0000f494       _PopProcessorPolicy        0049c494     ntoswrk:PODATA.obj
 0005:0000f498       _PopAction                 0049c498     ntoswrk:PODATA.obj
 0005:0000f4d8       _PopSwitches               0049c4d8     ntoswrk:PODATA.obj
 0005:0000f4e0       _PopUserPresentWorkItem    0049c4e0     ntoswrk:PODATA.obj
 0005:0000f4f0       _PopPowerStateHandlers     0049c4f0     ntoswrk:PODATA.obj
 0005:0000f560       _PopPowerStateNotifyHandler 0049c560     ntoswrk:PODATA.obj
 0005:0000f568       _PopHiberFile              0049c568     ntoswrk:PODATA.obj
 0005:0000f584       _PopHiberFileDebug         0049c584     ntoswrk:PODATA.obj
 0005:0000f5a0       _PopShutdownPowerOffPolicy 0049c5a0     ntoswrk:PODATA.obj
 0005:0000f5b0       _CcPfPrefetchingForBoot    0049c5b0     ntoswrk:PREFBOOT.obj
 0005:0000f5b4       _CcPfBootPhase             0049c5b4     ntoswrk:PREFBOOT.obj
 0005:0000f5bc       _ExHotpSyncRenameSequence  0049c5bc     ntoswrk:EXHOTP.obj
 0005:0000f5c0       _ExSyncRenameOwner         0049c5c0     ntoswrk:EXHOTP.obj
 0005:0000f5c8       _CcPfEnablePrefetcher      0049c5c8     ntoswrk:PREFETCH.obj
 0005:0000f5cc       _CcPfNumActiveTraces       0049c5cc     ntoswrk:PREFETCH.obj
 0005:0000f5d0       _CcPfGlobals               0049c5d0     ntoswrk:PREFETCH.obj
 0005:0000f7f0       _PopFailedHibernationAttempt 0049c7f0     ntoswrk:NTAPI.obj
 0005:0000f7f4       _PiInitGroupOrderTable     0049c7f4     ntoswrk:PNPINIT.obj
 0005:0000f7f8       _PiInitGroupOrderTableCount 0049c7f8     ntoswrk:PNPINIT.obj
 0005:0000f7fa       _PpDisableFirmwareMapper   0049c7fa     ntoswrk:PNPINIT.obj
 0005:0000f7fc       _RotBarSelection           0049c7fc     ntoswrk:ANIM.obj
 0005:0000f800       _AnimBarPos                0049c800     ntoswrk:ANIM.obj
 0005:0000f804       _PltRotBarStatus           0049c804     ntoswrk:ANIM.obj
 0005:0000f808       _KeI386VirtualIntExtensions 0049c808     ntoswrk:VDMKE.obj
 0005:0000f80c       _IopVerifierOn             0049c80c     ntoswrk:IOVERIFIER.obj
 0005:0000f810       _IovpVerifierLevel         0049c810     ntoswrk:IOVERIFIER.obj
 0005:0000f814       _IovpInitCalled            0049c814     ntoswrk:IOVERIFIER.obj
 0005:0000f818       _IovpVerifierFlags         0049c818     ntoswrk:IOVERIFIER.obj
 0005:0000f81c       _PpDeviceActionThread      0049c81c     ntoswrk:PNPENUM.obj
 0005:0000f820       _IopRemoteBootCardInitialized 0049c820     ntoswrk:NETBOOT.obj
 0005:0000f824       ___fastflag                0049c824     ntoswrk:stubs.obj
 0005:0000f828       _PiDumpVetoedHandles       0049c828     ntoswrk:PNPEVENT.obj
 0005:0000f82c       _PiCollectVetoedHandles    0049c82c     ntoswrk:PNPEVENT.obj
 0005:0000f830       _MmVerifierTriageEnabled   0049c830     ntoswrk:MMTRIAGE.obj
 0005:0000f834       _PpSystemHiveLimits        0049c834     ntoswrk:PNPDATA.obj
 0005:0000f83c       _PpSystemHiveTooLarge      0049c83c     ntoswrk:PNPDATA.obj
 0005:0000f83d       _PpCallerInitializesRequestTable 0049c83d     ntoswrk:PNPDATA.obj
 0005:0000f83f       _PpvUtilVerifierEnabled    0049c83f     ntoswrk:PPVUTIL.obj
 0005:0000f840       _ViVerifyDma               0049c840     ntoswrk:VFHAL.obj
 0005:0000f844       _PopCurrentLevel           0049c844     ntoswrk:SYSDEV.obj
 0005:0000f848       _IovUtilVerifierEnabled    0049c848     ntoswrk:IOVUTIL.obj
 0005:0000fe54       _VfSettingsGlobal          0049ce54     ntoswrk:VFSETTINGS.obj
 0005:0000fe58       _ViIrpLogDdiLock           0049ce58     ntoswrk:VFIRPLOG.obj
 0005:0000fe80       _ViIrpCallStackDataList    0049ce80     ntoswrk:VFIRP.obj
 0005:0000ff40       _IovpCancelCount           0049cf40     ntoswrk:TRACKIRP.obj
 0005:0000ff44       _VfFilterDriverObject      0049cf44     ntoswrk:VFFILTER.obj
 0005:0000ff48       _VfFilterCreated           0049cf48     ntoswrk:VFFILTER.obj
 0005:0000ff4c       _g_bCacheEnabled           0049cf4c     sdbapint:ahcache.obj
 0005:00010158       _DbgkDebugObjectType       0049d158     dbgk:dbgkobj.obj
 0005:0001015c       _KiLastProcessor           0049d15c     ke:balmgr.obj
 0005:00010160       _KiReadyScanLast           0049d160     ke:balmgr.obj
 0005:00010164       _KiStackOutSwapRequest     0049d164     ke:balmgr.obj
 0005:00010168       _CcFastMdlReadResourceMiss 0049d168     <common>
 0005:0001016c       _CcPinReadNoWait           0049d16c     <common>
 0005:00010170       _CcLostDelayedWrites       0049d170     <common>
 0005:00010178       _CcExpressWorkQueue        0049d178     <common>
 0005:00010180       _LazyWriter                0049d180     <common>
 0005:000101d8       _CcThrowAway               0049d1d8     <common>
 0005:000101dc       _CcFastReadResourceMiss    0049d1dc     <common>
 0005:000101e0       _CcDeferredWrites          0049d1e0     <common>
 0005:000101e8       _CcDirtyPageTarget         0049d1e8     <common>
 0005:000101f0       _CcCleanSharedCacheMapList 0049d1f0     <common>
 0005:000101f8       _CcMdlReadNoWaitMiss       0049d1f8     <common>
 0005:000101fc       _CcIdleDelayTick           0049d1fc     <common>
 0005:00010200       _CcPinMappedDataCount      0049d200     <common>
 0005:00010204       _CcMdlReadNoWait           0049d204     <common>
 0005:00010208       _CcFastMdlReadNoWait       0049d208     <common>
 0005:0001020c       _CcCopyReadWaitMiss        0049d20c     <common>
 0005:00010210       _CcMdlReadWait             0049d210     <common>
 0005:00010214       _CcPagesYetToWrite         0049d214     <common>
 0005:00010218       _CcAggressiveZeroCount     0049d218     <common>
 0005:0001021c       _CcFastMdlReadNotPossible  0049d21c     <common>
 0005:00010220       _CcFastReadNoWait          0049d220     <common>
 0005:00010224       _CcMapDataWaitMiss         0049d224     <common>
 0005:00010228       _CcPostTickWorkQueue       0049d228     <common>
 0005:00010230       _CcPinReadNoWaitMiss       0049d230     <common>
 0005:00010238       _CcVacbLru                 0049d238     <common>
 0005:00010240       _CcPinReadWaitMiss         0049d240     <common>
 0005:00010244       _CcFastReadNotPossible     0049d244     <common>
 0005:00010248       _CcReadAheadIos            0049d248     <common>
 0005:0001024c       _CcMapDataNoWaitMiss       0049d24c     <common>
 0005:00010250       _CcLazyWriteIos            0049d250     <common>
 0005:00010254       _CcLazyWriteHotSpots       0049d254     <common>
 0005:00010258       _CcBeyondVacbs             0049d258     <common>
 0005:00010260       _CcNoDelay                 0049d260     <common>
 0005:00010268       _CcVacbs                   0049d268     <common>
 0005:0001026c       _CcMdlReadWaitMiss         0049d26c     <common>
 0005:00010270       _CcFastMdlReadWait         0049d270     <common>
 0005:00010278       _CcIdleWorkerThreadList    0049d278     <common>
 0005:00010280       _CcCopyReadNoWait          0049d280     <common>
 0005:00010284       _CcDataPages               0049d284     <common>
 0005:00010288       _CcMapDataNoWait           0049d288     <common>
 0005:0001028c       _CcNumberVacbs             0049d28c     <common>
 0005:00010290       _CcLazyWriterCursor        0049d290     <common>
 0005:000102a0       _CcRegularWorkQueue        0049d2a0     <common>
 0005:000102a8       _CcMapDataWait             0049d2a8     <common>
 0005:000102ac       _CcPinReadWait             0049d2ac     <common>
 0005:000102b0       _CcAggressiveZeroThreshold 0049d2b0     <common>
 0005:000102b8       _CcVacbFreeList            0049d2b8     <common>
 0005:000102c0       _CcDirtySharedCacheMapList 0049d2c0     <common>
 0005:000102cc       _CcDirtyPageThreshold      0049d2cc     <common>
 0005:000102d0       _CcCapturedSystemSize      0049d2d0     <common>
 0005:000102d4       _CcLazyWritePages          0049d2d4     <common>
 0005:000102d8       _CcCopyReadNoWaitMiss      0049d2d8     <common>
 0005:000102dc       _CcFastReadWait            0049d2dc     <common>
 0005:000102e0       _CcCopyReadWait            0049d2e0     <common>
 0005:000102e4       _CcDataFlushes             0049d2e4     <common>
 0005:00010300       _CmControlHive             0049d300     <common>
 0005:00010880       _CmpDelayDerefKCBDpc       0049d880     <common>
 0005:000108a0       _CmpDelayDerefKCBWorkItem  0049d8a0     <common>
 0005:000108c0       _CmpDelayCloseTimer        0049d8c0     <common>
 0005:00010900       _CmpDelayedCloseTableLock  0049d900     <common>
 0005:00010920       _CmpDelayDerefKCBListHead  0049d920     <common>
 0005:00010940       _CmpDelayDerefKCBLock      0049d940     <common>
 0005:00010960       _CmpDelayCloseDpc          0049d960     <common>
 0005:00010980       _CmpDelayCloseWorkItem     0049d980     <common>
 0005:000109a0       _CmpDelayDerefKCBTimer     0049d9a0     <common>
 0005:000109c8       _CmpDelayedLRUListHead     0049d9c8     <common>
 0005:000109d0       _CmpLoadWorkerEvent        0049d9d0     <common>
 0005:000109e0       _CmpLoadWorkerDebugEvent   0049d9e0     <common>
 0005:00010a00       _CmpSelfHealQueueLock      0049da00     <common>
 0005:00010a20       _CmpSelfHealQueueListHead  0049da20     <common>
 0005:00010a40       _CmpLazyFlushDpc           0049da40     <common>
 0005:00010a60       _CmpLazyFlushTimer         0049da60     <common>
 0005:00010a88       _CmpSystemProcess          0049da88     <common>
 0005:00010a90       _CmpLazyWorkItem           0049da90     <common>
 0005:00010aa0       _CmpEnableLazyFlushTimer   0049daa0     <common>
 0005:00010ae0       _CmpEnableLazyFlushDpc     0049dae0     <common>
 0005:00010b00       _CmpCacheTable             0049db00     <common>
 0005:00010b04       _CmpNameCacheTable         0049db04     <common>
 0005:00010b08       _CmpPostLock               0049db08     <common>
 0005:00010b20       _CmpRegistryLock           0049db20     <common>
 0005:00010b58       _CmpStashBufferLock        0049db58     <common>
 0005:00010b5c       _CmpWasSetupBoot           0049db5c     <common>
 0005:00010b60       _SystemHiveFullPathName    0049db60     <common>
 0005:00010b68       _CmpLoadHiveLock           0049db68     <common>
 0005:00010b6c       _CmpHiveListHeadLock       0049db6c     <common>
 0005:00010b70       _CmpBootType               0049db70     <common>
 0005:00010b80       _SystemHiveFullPathBuffer  0049db80     <common>
 0005:00010c00       _CmpOpenSubKeys            0049dc00     <common>
 0005:00010c08       _CmpFreeDelayItemsListHead 0049dc08     <common>
 0005:00010c10       _CmpFreeKCBListHead        0049dc10     <common>
 0005:00010c20       _CmpDelayAllocBucketLock   0049dc20     <common>
 0005:00010c40       _CmpAllocBucketLock        0049dc40     <common>
 0005:00010c60       _DbgkpProcessDebugPortMutex 0049dc60     <common>
 0005:00010c80       _ExEventPairObjectType     0049dc80     <common>
 0005:00010c84       _ExMutantObjectType        0049dc84     <common>
 0005:00010c88       _ExpWakeTimerList          0049dc88     <common>
 0005:00010c90       _ExTimerObjectType         0049dc90     <common>
 0005:00010c94       _ExpWakeTimerListLock      0049dc94     <common>
 0005:00010ca0       _ExpProfileStateMutex      0049dca0     <common>
 0005:00010cc0       _ExProfileObjectType       0049dcc0     <common>
 0005:00010cc4       _ExpKeyedEventObjectType   0049dcc4     <common>
 0005:00010cc8       _ExCbPowerState            0049dcc8     <common>
 0005:00010ccc       _ExCbSetSystemTime         0049dccc     <common>
 0005:00010cd0       _ExCbSetSystemState        0049dcd0     <common>
 0005:00010ce0       _ExpUuidLock               0049dce0     <common>
 0005:00010d00       _ExSemaphoreObjectType     0049dd00     <common>
 0005:00010d04       _ExpDefaultErrorPortProcess 0049dd04     <common>
 0005:00010d08       _ExpDefaultErrorPort       0049dd08     <common>
 0005:00010d0c       _ExpLastWorkerThread       0049dd0c     <common>
 0005:00010d10       _ExpWorkerThreadBalanceManagerPtr 0049dd10     <common>
 0005:00010d14       _ExpAdditionalDelayedWorkerThreads 0049dd14     <common>
 0005:00010d18       _ExpDebuggerProcessKill    0049dd18     <common>
 0005:00010d20       _ExWorkerQueue             0049dd20     <common>
 0005:00010de0       _ExpThreadSetManagerShutdownEvent 0049dde0     <common>
 0005:00010df0       _ExDelayedWorkerThreads    0049ddf0     <common>
 0005:00010df4       _ExpDebuggerPageIn         0049ddf4     <common>
 0005:00010df8       _ExpWorkersCanSwap         0049ddf8     <common>
 0005:00010e00       _ExpWorkerListHead         0049de00     <common>
 0005:00010e08       _ExpDebuggerWork           0049de08     <common>
 0005:00010e20       _ExpWorkerSwapinMutex      0049de20     <common>
 0005:00010e40       _ExpThreadSetManagerEvent  0049de40     <common>
 0005:00010e50       _ExCriticalWorkerThreads   0049de50     <common>
 0005:00010e54       _ExpAdditionalCriticalWorkerThreads 0049de54     <common>
 0005:00010e60       _ExpDebuggerWorkItem       0049de60     <common>
 0005:00010e70       _ExpDebuggerProcessAttach  0049de70     <common>
 0005:00010e74       _ExpTickCountMultiplier    0049de74     <common>
 0005:00010e78       _ExpHydraEnabled           0049de78     <common>
 0005:00010e80       _ExpFirmwareTableProviderListHead 0049de80     <common>
 0005:00010ea0       _ExpFirmwareTableResource  0049dea0     <common>
 0005:00010ed8       _ExEventObjectType         0049ded8     <common>
 0005:00010ee0       _HandleTableListHead       0049dee0     <common>
 0005:00010ee8       _HandleTableListLock       0049dee8     <common>
 0005:00010eec       _ExDesktopOpenProcedureCallout 0049deec     <common>
 0005:00010ef0       _ExWindowStationCloseProcedureCallout 0049def0     <common>
 0005:00010ef4       _ExWindowStationParseProcedureCallout 0049def4     <common>
 0005:00010ef8       _ExDesktopOkToCloseProcedureCallout 0049def8     <common>
 0005:00010efc       _ExWindowStationObjectType 0049defc     <common>
 0005:00010f00       _ExDesktopObjectType       0049df00     <common>
 0005:00010f04       _ExDesktopDeleteProcedureCallout 0049df04     <common>
 0005:00010f08       _ExWindowStationDeleteProcedureCallout 0049df08     <common>
 0005:00010f0c       _ExDesktopCloseProcedureCallout 0049df0c     <common>
 0005:00010f10       _ExWindowStationOkToCloseProcedureCallout 0049df10     <common>
 0005:00010f14       _ExWindowStationOpenProcedureCallout 0049df14     <common>
 0005:00010f18       _ExSystemLookasideListHead 0049df18     <common>
 0005:00010f20       _ExPoolLookasideListHead   0049df20     <common>
 0005:00010f28       _ExPagedLookasideLock      0049df28     <common>
 0005:00010f2c       _ExNPagedLookasideLock     0049df2c     <common>
 0005:00010f30       _ExPagedLookasideListHead  0049df30     <common>
 0005:00010f38       _ExNPagedLookasideListHead 0049df38     <common>
 0005:00010f40       _ExCallbackObjectType      0049df40     <common>
 0005:00010f44       _ExpCallBackFlush          0049df44     <common>
 0005:00010f50       _ExpCallbackEvent          0049df50     <common>
 0005:00010f60       _ExpTaggedPoolLock         0049df60     <common>
 0005:00010f64       _ExpPagedPoolMutex         0049df64     <common>
 0005:00010f68       _ExpSessionPoolTrackTableSize 0049df68     <common>
 0005:00010f6c       _PoolBigPageTable          0049df6c     <common>
 0005:00010f70       _PoolTrackTableExpansionPages 0049df70     <common>
 0005:00010f74       _PoolTrackTableMask        0049df74     <common>
 0005:00010f78       _ExpSessionPoolTrackTableMask 0049df78     <common>
 0005:00010f7c       _ExpPoolBigEntriesInUse    0049df7c     <common>
 0005:00010f80       _ExpSessionPoolBigPageTableHash 0049df80     <common>
 0005:00010f84       _ExPoolFailures            0049df84     <common>
 0005:00010f88       _PoolTrackTableSize        0049df88     <common>
 0005:00010fa0       _NonPagedPoolDescriptor    0049dfa0     <common>
 0005:00011fd0       _ExFreePoolTraces          0049efd0     <common>
 0005:00011fd4       _ExFreePoolIndex           0049efd4     <common>
 0005:00011fe0       _ExpNonPagedPoolDescriptor 0049efe0     <common>
 0005:00012020       _ExpLargePoolTableLock     0049f020     <common>
 0005:00012024       _ExpSessionPoolSmallLists  0049f024     <common>
 0005:00012028       _PoolTrackTableExpansionSize 0049f028     <common>
 0005:0001202c       _ExpBigTableExpansionFailed 0049f02c     <common>
 0005:00012030       _ExpSessionPoolDescriptor  0049f030     <common>
 0005:00012040       _ExPoolTagTables           0049f040     <common>
 0005:000120c0       _PoolBigPageTableHash      0049f0c0     <common>
 0005:000120c4       _ExpSessionPoolBigPageTable 0049f0c4     <common>
 0005:000120c8       _ExpSessionPoolTrackTable  0049f0c8     <common>
 0005:000120d0       _PoolVector                0049f0d0     <common>
 0005:000120d8       _ExpSessionPoolBigPageTableSize 0049f0d8     <common>
 0005:000120dc       _ExpSessionPoolLookaside   0049f0dc     <common>
 0005:000120e0       _PoolTrackTable            0049f0e0     <common>
 0005:00012100       _ExpPagedPoolDescriptor    0049f100     <common>
 0005:00012144       _PoolTrackTableExpansion   0049f144     <common>
 0005:00012148       _PoolBigPageTableSize      0049f148     <common>
 0005:00012150       _ExpSystemResourcesList    0049f150     <common>
 0005:00012158       _ExpTimeout                0049f158     <common>
 0005:00012160       _ExpSetupSystemPrefix      0049f160     <common>
 0005:00012168       _ExpSetupKey               0049f168     <common>
 0005:0001216c       _ExpSystemPrefixValid      0049f16c     <common>
 0005:0001216d       _ExpSetupModeDetected      0049f16d     <common>
 0005:00012170       _ExpNtExpirationData       0049f170     <common>
 0005:00012180       _FsRtlWorkerQueues         0049f180     <common>
 0005:000121d0       _StackOverflowFallbackSerialEvent 0049f1d0     <common>
 0005:000121e0       _StackOverflowFallback     0049f1e0     <common>
 0005:00012200       _FsRtlpUncSemaphore        0049f200     <common>
 0005:00012220       _AcquireOpsEvent           0049f220     <common>
 0005:00012230       _ReleaseOpsReservePool     0049f230     <common>
 0005:00012240       _ReleaseOpsEvent           0049f240     <common>
 0005:00012250       _AcquireOpsReservePool     0049f250     <common>
 0005:00012254       _FsRtlPagingIoResources    0049f254     <common>
 0005:00012258       _FsRtlFileLockCancelCollideLock 0049f258     <common>
 0005:0001225c       _FsRtlFileLockCancelCollideList 0049f25c     <common>
 0005:00012260       _FsRtlCreateLockInfo       0049f260     <common>
 0005:00012280       _NtGlobalFlag              0049f280     <common>
 0005:000122a0       _InitTableInfo             0049f2a0     <common>
 0005:00012300       _NtSystemRoot              0049f300     <common>
 0005:00012308       _InitializationPhase       0049f308     <common>
 0005:0001230c       _BBTPagesToReserve         0049f30c     <common>
 0005:00012310       _ErrorLogPort              0049f310     <common>
 0005:00012314       _IopErrorLogPortPending    0049f314     <common>
 0005:00012315       _IopErrorLogDisabledThisBoot 0049f315     <common>
 0005:00012320       _IopErrorLogWorkItem       0049f320     <common>
 0005:00012330       _ErrorLogPortConnected     0049f330     <common>
 0005:00012334       _IopInitFailCode           0049f334     <common>
 0005:00012338       _IopDeadIrp                0049f338     <common>
 0005:00012340       _IopTimerDpc               0049f340     <common>
 0005:00012360       _IopDumpControlBlockChecksum 0049f360     <common>
 0005:00012364       _IopCurrentHardError       0049f364     <common>
 0005:00012380       _IopSecurityResource       0049f380     <common>
 0005:000123b8       _IopTimerQueueHead         0049f3b8     <common>
 0005:000123c0       _IopIrpStackProfiler       0049f3c0     <common>
 0005:00012468       _IopCdRomFileSystemQueueHead 0049f468     <common>
 0005:00012470       _IoDeviceObjectType        0049f470     <common>
 0005:00012478       _IopDriverReinitializeQueueHead 0049f478     <common>
 0005:00012480       _IopLinkTrackingPortObject 0049f480     <common>
 0005:00012490       _IoReadTransferCount       0049f490     <common>
 0005:00012498       _IopErrorLogAllocation     0049f498     <common>
 0005:0001249c       _IoRemoteBootClient        0049f49c     <common>
 0005:000124a0       _IoControllerObjectType    0049f4a0     <common>
 0005:000124a8       _IoOtherTransferCount      0049f4a8     <common>
 0005:000124b0       _IopUniqueDeviceObjectNumber 0049f4b0     <common>
 0005:000124b4       _IoDeviceHandlerObjectSize 0049f4b4     <common>
 0005:000124b8       _IoReadOperationCount      0049f4b8     <common>
 0005:000124c0       _IopFsNotifyChangeQueueHead 0049f4c0     <common>
 0005:000124e0       _IopReserveIrpAllocator    0049f4e0     <common>
 0005:00012500       _IopNetworkFileSystemQueueHead 0049f500     <common>
 0005:00012508       _IoWriteTransferCount      0049f508     <common>
 0005:00012520       _IopDatabaseResource       0049f520     <common>
 0005:00012558       _IoCompletionObjectType    0049f558     <common>
 0005:00012560       _IopBootDriverReinitializeQueueHead 0049f560     <common>
 0005:00012568       _IopNotifyShutdownQueueHead 0049f568     <common>
 0005:00012570       _IopLinkTrackingServiceEventHandle 0049f570     <common>
 0005:00012574       _IoWriteOperationCount     0049f574     <common>
 0005:00012578       _IoDriverObjectType        0049f578     <common>
 0005:0001257c       _IoFileObjectType          0049f57c     <common>
 0005:00012580       _IopLargeIrpStackLocations 0049f580     <common>
 0005:00012584       _IopLinkTrackingServiceEvent 0049f584     <common>
 0005:000125a0       _IopDriverLoadResource     0049f5a0     <common>
 0005:000125d8       _IopFsRegistrationOps      0049f5d8     <common>
 0005:000125e0       _IopLinkTrackingPacket     0049f5e0     <common>
 0005:00012604       _IopDumpControlBlock       0049f604     <common>
 0005:00012608       _IopTimerCount             0049f608     <common>
 0005:00012610       _IopErrorLogListHead       0049f610     <common>
 0005:00012618       _IoDeviceHandlerObjectType 0049f618     <common>
 0005:0001261c       _IoAdapterObjectType       0049f61c     <common>
 0005:00012620       _IopLinkTrackingServiceObject 0049f620     <common>
 0005:00012628       _IopDiskFileSystemQueueHead 0049f628     <common>
 0005:00012640       _IopHardError              0049f640     <common>
 0005:00012678       _IoOtherOperationCount     0049f678     <common>
 0005:00012680       _IopTapeFileSystemQueueHead 0049f680     <common>
 0005:000126a0       _IopTimer                  0049f6a0     <common>
 0005:000126c8       _IopNotifyLastChanceShutdownQueueHead 0049f6c8     <common>
 0005:000126d0       _IoPageReadIrpAllocationFailure 0049f6d0     <common>
 0005:000126d4       _IoPageReadNonPagefileIrpAllocationFailure 0049f6d4     <common>
 0005:000126d8       _KiStackProtectTime        0049f6d8     <common>
 0005:000126e0       _KiAmdK6Mtrr               0049f6e0     <common>
 0005:000126e8       _AmdK6RegionCount          0049f6e8     <common>
 0005:000126ec       _AmdMtrrHwUsageCount       0049f6ec     <common>
 0005:00012700       _AmdK6Regions              0049f700     <common>
 0005:00012720       _KiRangeInfo               0049f720     <common>
 0005:0001273c       _KiRangeLock               0049f73c     <common>
 0005:00012740       _KiFreezeOwner             0049f740     <common>
 0005:00012744       _KiOldIrql                 0049f744     <common>
 0005:00012750       _KiProcessorStartData      0049f750     <common>
 0005:00012760       _KiFastSystemCallDisable   0049f760     <common>
 0005:00012764       _KiXMMIZeroingEnable       0049f764     <common>
 0005:00012768       _KeI386XMMIPresent         0049f768     <common>
 0005:0001276c       _Ki486CompatibilityLock    0049f76c     <common>
 0005:00012770       _KiSystemCallExitAdjusted  0049f770     <common>
 0005:00012771       _KiFastSystemCallIsIA32    0049f771     <common>
 0005:00012774       _KiSystemCallExitAdjust    0049f774     <common>
 0005:00012778       _KiProcessInSwapListHead   0049f778     <common>
 0005:0001277c       _KeTimeIncrement           0049f77c     <common>
 0005:00012780       _KeBugCheckCallbackListHead 0049f780     <common>
 0005:000127a0       _KeServiceDescriptorTableShadow 0049f7a0     <common>
 0005:000127c0       _KiProcessOutSwapListHead  0049f7c0     <common>
 0005:000127c4       _KeMinimumIncrement        0049f7c4     <common>
 0005:000127c8       _KiProfileListHead         0049f7c8     <common>
 0005:000127d0       _KeUserApcDispatcher       0049f7d0     <common>
 0005:000127e0       _KeServiceDescriptorTable  0049f7e0     <common>
 0005:00012800       _KiProcessListHead         0049f800     <common>
 0005:00012808       _KeUserPopEntrySListEnd    0049f808     <common>
 0005:00012820       _KeThreadSwitchCounters    0049f820     <common>
 0005:0001284c       _KeUserPopEntrySListResume 0049f84c     <common>
 0005:00012860       _KiTimerExpireDpc          0049f860     <common>
 0005:00012880       _KeInterruptTimeBias       0049f880     <common>
 0005:00012888       _KiDmaIoCoherency          0049f888     <common>
 0005:00012890       _KeBootTime                0049f890     <common>
 0005:00012898       _KeProcessNodeSeed         0049f898     <common>
 0005:0001289c       _KiFreezeFlag              0049f89c     <common>
 0005:000128a0       _KiDebugSwitchRoutine      0049f8a0     <common>
 0005:000128a4       _KiSwappingThread          0049f8a4     <common>
 0005:000128a8       _KiProfileAlignmentFixup   0049f8a8     <common>
 0005:000128ac       _KeGdiFlushUserBatch       0049f8ac     <common>
 0005:000128b0       _KeBugCheckCallbackLock    0049f8b0     <common>
 0005:000128b4       _KeUserCallbackDispatcher  0049f8b4     <common>
 0005:000128c0       _KiSwapEvent               0049f8c0     <common>
 0005:000128d0       _KeBootTimeBias            0049f8d0     <common>
 0005:000128e0       _KiGenericCallDpcMutex     0049f8e0     <common>
 0005:00012900       _KiProcessorBlock          0049f900     <common>
 0005:00012980       _KiProfileAlignmentFixupInterval 0049f980     <common>
 0005:00012984       _KiStackInSwapListHead     0049f984     <common>
 0005:00012988       _KiProfileSourceListHead   0049f988     <common>
 0005:00012990       _KeUserExceptionDispatcher 0049f990     <common>
 0005:00012994       _KeUserPopEntrySListFault  0049f994     <common>
 0005:00012998       _KeBugCheckReasonCallbackListHead 0049f998     <common>
 0005:000129a0       _KeRaiseUserExceptionDispatcher 0049f9a0     <common>
 0005:000129a4       _KiMXCsrMask               0049f9a4     <common>
 0005:000129c0       _KiBiosFrame               0049f9c0     <common>
 0005:00012a4c       _KiBootFeatureBits         0049fa4c     <common>
 0005:00012a50       _KeI386NpxPresent          0049fa50     <common>
 0005:00012a54       _KeI386CpuStep             0049fa54     <common>
 0005:00012a58       _KeI386ForceNpxEmulation   0049fa58     <common>
 0005:00012a5c       _KeI386FxsrPresent         0049fa5c     <common>
 0005:00012a60       _Ki387RoundModeTable       0049fa60     <common>
 0005:00012a64       _KeI386CpuType             0049fa64     <common>
 0005:00012a68       _KiAbiosGdtLock            0049fa68     <common>
 0005:00012a6c       _KiAbiosLidTableLock       0049fa6c     <common>
 0005:00012a70       _KiStack16GdtEntry         0049fa70     <common>
 0005:00012a74       _KiLogicalIdTable          0049fa74     <common>
 0005:00012a80       _KiAbiosGdt                0049fa80     <common>
 0005:00012b00       _KiTimeLimitDpcMicroseconds 0049fb00     <common>
 0005:00012b04       _KiTimeLimitIsrMicroseconds 0049fb04     <common>
 0005:00012b08       _KiIsrTimerInit            0049fb08     <common>
 0005:00012b20       _KiBugCheckData            0049fb20     <common>
 0005:00012b34       _KeBugCheckOwnerRecursionCount 0049fb34     <common>
 0005:00012b38       _KiBugCheckDriver          0049fb38     <common>
 0005:00012b3c       _KiNmiCallbackListLock     0049fb3c     <common>
 0005:00012b40       _KiNmiCallbackListHead     0049fb40     <common>
 0005:00012b44       _Ki386IopmSaveArea         0049fb44     <common>
 0005:00012b48       _LpcWaitablePortObjectType 0049fb48     <common>
 0005:00012b4c       _LpcPortObjectType         0049fb4c     <common>
 0005:00012b60       _LpcpLock                  0049fb60     <common>
 0005:00012b84       _MmZeroPageFile            0049fb84     <common>
 0005:00012b88       _MiSessionWideVaBitMap     0049fb88     <common>
 0005:00012b90       _MiFirstReservedZeroingPte 0049fb90     <common>
 0005:00012b94       _MiLargePageHyperPte       0049fb94     <common>
 0005:00012b98       _MxFreeDescriptor          0049fb98     <common>
 0005:00012ba0       _MxOldSlushDescriptor2     0049fba0     <common>
 0005:00012bb4       _MiSlushDescriptorCount    0049fbb4     <common>
 0005:00012bb8       _MiLargeVaRangeIndex       0049fbb8     <common>
 0005:00012bc0       _MxOldSlushDescriptor1     0049fbc0     <common>
 0005:00012bd4       _MmHyperSpaceEnd           0049fbd4     <common>
 0005:00012bd8       _MxSlushDescriptor1        0049fbd8     <common>
 0005:00012be0       _MxOldFreeDescriptor       0049fbe0     <common>
 0005:00012bf4       _MxPfnAllocation           0049fbf4     <common>
 0005:00012c00       _MiLargeVaRanges           0049fc00     <common>
 0005:00012c18       _MxSlushDescriptor2        0049fc18     <common>
 0005:00012c1c       _MiSlushDescriptorBase     0049fc1c     <common>
 0005:00012c20       _Mi4dFiles                 0049fc20     <common>
 0005:00012c30       _MmAvailablePagesEventHigh 0049fc30     <common>
 0005:00012c40       _MiLastChanceLdwContext    0049fc40     <common>
 0005:00012c54       _MiAvailablePagesEventLowSets 0049fc54     <common>
 0005:00012c58       _MmTransitionSharedPages   0049fc58     <common>
 0005:00012c5c       _MiAvailablePagesEventHighSets 0049fc5c     <common>
 0005:00012c60       _MmTransitionPrivatePages  0049fc60     <common>
 0005:00012c64       _MmStandbyRePurposed       0049fc64     <common>
 0005:00012c68       _Mi4dPages                 0049fc68     <common>
 0005:00012c6c       _MmPagedPoolEnd            0049fc6c     <common>
 0005:00012c70       _MmNonPagedPoolStart       0049fc70     <common>
 0005:00012c78       _MmFreePagesByColor        0049fc78     <common>
 0005:00012c80       _MmWorkingSetList          0049fc80     <common>
 0005:00012c84       _MiUseMaximumSystemSpaceEnd 0049fc84     <common>
 0005:00012c88       _MiSystemCacheEndExtra     0049fc88     <common>
 0005:00012c8c       _MiSystemCacheStartExtra   0049fc8c     <common>
 0005:00012c90       _MiMaximumSystemCacheSizeExtra 0049fc90     <common>
 0005:00012c94       _MiUseMaximumSystemSpace   0049fc94     <common>
 0005:00012c98       _MmBootImageSize           0049fc98     <common>
 0005:00012c9c       _MmFrontOfList             0049fc9c     <common>
 0005:00012ca0       _MmVadPhysicalPages        0049fca0     <common>
 0005:00012ca4       _MiDelayPageFaults         0049fca4     <common>
 0005:00012ca8       _MmTotalNonPagedPoolQuota  0049fca8     <common>
 0005:00012cb0       _MiCommitPopups            0049fcb0     <common>
 0005:00012cb8       _MmPeakCommitment          0049fcb8     <common>
 0005:00012cbc       _MmTotalPagedPoolQuota     0049fcbc     <common>
 0005:00012cc0       _MmPagedPoolCommit         0049fcc0     <common>
 0005:00012cc4       _MiExpansionPoolPagesInUse 0049fcc4     <common>
 0005:00012cc8       _MiNonPagedPoolSListHead   0049fcc8     <common>
 0005:00012cd0       _MiStartOfInitialPoolFrame 0049fcd0     <common>
 0005:00012cd4       _MiCachedNonPagedPoolCount 0049fcd4     <common>
 0005:00012cd8       _MmNonPagedPoolEnd0        0049fcd8     <common>
 0005:00012cdc       _MmNonPagedPoolExpansionStart 0049fcdc     <common>
 0005:00012ce0       _MiEndOfInitialPoolFrame   0049fce0     <common>
 0005:00012d00       _MiLargePageRanges         0049fd00     <common>
 0005:00012f00       _MiPagedPoolSListHead      0049ff00     <common>
 0005:00012f20       _MmPoolFailures            0049ff20     <common>
 0005:00012f44       _MiExpansionPoolPagesInitialCharge 0049ff44     <common>
 0005:00012f48       _MiLargePageRangeIndex     0049ff48     <common>
 0005:00012f50       _MmPreemptiveTrims         0049ff50     <common>
 0005:00012f60       _MmPoolFailureReasons      0049ff60     <common>
 0005:00012f8c       _MmAllocatedNonPagedPool   0049ff8c     <common>
 0005:00012f90       _MiCachedNonPagedPool      0049ff90     <common>
 0005:00012fa0       _MmNonPagedPoolFreeListHead 0049ffa0     <common>
 0005:00012fc0       _MiSessionTagSizePages     0049ffc0     <common>
 0005:00012fe0       _MiSessionIdMutex          0049ffe0     <common>
 0005:00013000       _MiSessionCreateCharge     004a0000     <common>
 0005:00013004       _MmSessionDataPages        004a0004     <common>
 0005:00013008       _MiSessionDataPages        004a0008     <common>
 0005:0001300c       _MiSessionLeaderExists     004a000c     <common>
 0005:00013010       _MiSessionTagPages         004a0010     <common>
 0005:00013014       _MiSessionBigPoolPages     004a0014     <common>
 0005:00013018       _MiExtendedSubsectionsConvertedToDynamic 004a0018     <common>
 0005:0001301c       _MiMapCacheFailures        004a001c     <common>
 0005:00013020       _MmLastFreeSystemCache     004a0020     <common>
 0005:00013024       _MmFirstFreeSystemCache    004a0024     <common>
 0005:00013028       _MmSystemCachePteBase      004a0028     <common>
 0005:00013040       _MmSession                 004a0040     <common>
 0005:00013080       _MiStopBadMaps             004a0080     <common>
 0005:00013084       _MiSubsectionsConvertedToDynamic 004a0084     <common>
 0005:00013088       _MmSystemPtesStart         004a0088     <common>
 0005:00013090       _MmSystemPtesEnd           004a0090     <common>
 0005:00013098       _MiPteEndBitmap            004a0098     <common>
 0005:0001309c       _MiSystemPteSListHeadLock  004a009c     <common>
 0005:000130a0       _MmSysPteListBySizeCount   004a00a0     <common>
 0005:000130b4       _MiSystemPteAllocationFailed 004a00b4     <common>
 0005:000130b8       _MiLowestSystemPteVirtualAddress 004a00b8     <common>
 0005:000130c0       _MiPteRanges               004a00c0     <common>
 0005:00013100       _MiAddPtesList             004a0100     <common>
 0005:00013108       _MiSystemPteSListHead      004a0108     <common>
 0005:00013120       _MiPteSListExpand          004a0120     <common>
 0005:00013138       _MiPteRangeIndex           004a0138     <common>
 0005:00013140       _MmTotalFreeSystemPtes     004a0140     <common>
 0005:00013148       _MmTotalSystemPtes         004a0148     <common>
 0005:00013150       _MmPteFailures             004a0150     <common>
 0005:00013158       _MiPteStartBitmap          004a0158     <common>
 0005:0001315c       _MiPteStart                004a015c     <common>
 0005:00013160       _MiSystemPteNBHead         004a0160     <common>
 0005:00013178       _MiSysPteTimeStamp         004a0178     <common>
 0005:00013180       _MmProductType             004a0180     <common>
 0005:000131a0       _MiModifiedPageWriterTimerDpc 004a01a0     <common>
 0005:000131c0       _MiHighNonPagedPoolThreshold 004a01c0     <common>
 0005:000131c4       _MiHighNonPagedPoolEvent   004a01c4     <common>
 0005:000131c8       _MmAllocationPreference    004a01c8     <common>
 0005:000131cc       _MmSystemPagePtes          004a01cc     <common>
 0005:000131d0       _MmCodeClusterSize         004a01d0     <common>
 0005:000131d4       _MiLowNonPagedPoolThreshold 004a01d4     <common>
 0005:000131d8       _MmHighMemoryThreshold     004a01d8     <common>
 0005:000131dc       _MiLowPagedPoolThreshold   004a01dc     <common>
 0005:000131e0       _MiLowPagedPoolEvent       004a01e0     <common>
 0005:000131e4       _MmProtectedPteLock        004a01e4     <common>
 0005:000131f0       _MiMappedPagesTooOldEvent  004a01f0     <common>
 0005:00013200       _MmDataClusterSize         004a0200     <common>
 0005:00013204       _MmLowMemoryThreshold      004a0204     <common>
 0005:00013208       _MmTotalSystemCodePages    004a0208     <common>
 0005:0001320c       _MmAllocationFragment      004a020c     <common>
 0005:00013210       _MmResidentAvailableAtInit 004a0210     <common>
 0005:00013214       _MiHighPagedPoolThreshold  004a0214     <common>
 0005:00013218       _MiFullyInitialized        004a0218     <common>
 0005:0001321c       _MmSharedUserDataPte       004a021c     <common>
 0005:00013220       _MiHighMemoryEvent         004a0220     <common>
 0005:00013224       _MmSystemSize              004a0224     <common>
 0005:00013240       _MmPagedPoolMutex          004a0240     <common>
 0005:00013260       _MmProtectedPteList        004a0260     <common>
 0005:00013268       _MmLargeSystemCache        004a0268     <common>
 0005:0001326c       _MiLowMemoryEvent          004a026c     <common>
 0005:00013270       _MmLoadedUserImageList     004a0270     <common>
 0005:00013280       _MiTempEvent               004a0280     <common>
 0005:00013290       _MmPageFaultNotifyRoutine  004a0290     <common>
 0005:00013294       _MmFreedExpansionPoolMaximum 004a0294     <common>
 0005:00013298       _ExPageLockHandle          004a0298     <common>
 0005:0001329c       _MiBootRegistryRuns        004a029c     <common>
 0005:000132a0       _MiPfnBitMap               004a02a0     <common>
 0005:000132a8       _MiLowNonPagedPoolEvent    004a02a8     <common>
 0005:000132ac       _MiHighPagedPoolEvent      004a02ac     <common>
 0005:000132b0       _MiModifiedPageLife        004a02b0     <common>
 0005:000132b8       _MmPhysicalMemoryBlock     004a02b8     <common>
 0005:000132bc       _MmSystemPageDirectory     004a02bc     <common>
 0005:000132c0       _MmSubsectionBase          004a02c0     <common>
 0005:000132e0       _MiModifiedPageWriterTimer 004a02e0     <common>
 0005:00013308       _MiUserFaultRetries        004a0308     <common>
 0005:0001330c       _MiInPageSinglePages       004a030c     <common>
 0005:00013310       _MiFaultRetries            004a0310     <common>
 0005:00013314       _MmClusterPageFileReads    004a0314     <common>
 0005:00013318       _MmSmallStacks             004a0318     <common>
 0005:0001331c       _MmKernelStackResident     004a031c     <common>
 0005:00013320       _MmRotatingUniprocessorNumber 004a0320     <common>
 0005:00013324       _MmMinimumStackCommitInBytes 004a0324     <common>
 0005:00013328       _MmLargeStacks             004a0328     <common>
 0005:0001332c       _MiStackGrowthFailures     004a032c     <common>
 0005:00013330       _MmKernelStackPages        004a0330     <common>
 0005:00013338       _MmProcessList             004a0338     <common>
 0005:00013340       _MmLeakedLockedPages       004a0340     <common>
 0005:00013344       _MmProcessCommit           004a0344     <common>
 0005:00013348       _MmPoolCodeEnd             004a0348     <common>
 0005:00013360       _MmSystemLoadLock          004a0360     <common>
 0005:00013380       _MiUnloadsSkipped          004a0380     <common>
 0005:00013384       _MmTotalSystemDriverPages  004a0384     <common>
 0005:00013388       _MmPteCodeEnd              004a0388     <common>
 0005:0001338c       _ExPoolCodeEnd             004a038c     <common>
 0005:00013390       _MmLastUnloadedDriver      004a0390     <common>
 0005:00013398       _PsLoadedModuleList        004a0398     <common>
 0005:000133a0       _MmPoolCodeStart           004a03a0     <common>
 0005:000133a4       _MiTotalUnloads            004a03a4     <common>
 0005:000133a8       _MmUnloadedDrivers         004a03a8     <common>
 0005:000133c0       _PsLoadedModuleResource    004a03c0     <common>
 0005:000133f8       _ExPoolCodeStart           004a03f8     <common>
 0005:00013400       _MiLargePageDriverList     004a0400     <common>
 0005:00013408       _MiKernelResourceEndPte    004a0408     <common>
 0005:0001340c       _MmPteCodeStart            004a040c     <common>
 0005:00013410       _MmDriverCommit            004a0410     <common>
 0005:00013414       _MiKernelResourceStartPte  004a0414     <common>
 0005:00013418       _MiLargePageAllDrivers     004a0418     <common>
 0005:00013420       _MiPageFileTraces          004a0420     <common>
 0005:00017420       _MiPageFileTraceIndex      004a4420     <common>
 0005:00017440       _MiPageFileContract        004a4440     <common>
 0005:00017470       _MmMappedPageWriterList    004a4470     <common>
 0005:00017478       _MiModifiedWriteBurstCount 004a4478     <common>
 0005:0001747c       _MiMappedWriteBurstCount   004a447c     <common>
 0005:00017480       _MmNumberOfMappedMdls      004a4480     <common>
 0005:00017484       _MiLastModifiedWriteError  004a4484     <common>
 0005:00017488       _MiClusterWritesDisabled   004a4488     <common>
 0005:0001748c       _MmSystemShutdown          004a448c     <common>
 0005:00017490       _MmWriteAllModifiedPages   004a4490     <common>
 0005:00017494       _MiLastMappedWriteError    004a4494     <common>
 0005:000174a0       _MmMappedFileIoComplete    004a44a0     <common>
 0005:000174b0       _MmMappedPageWriterEvent   004a44b0     <common>
 0005:000174c0       _MmSystemPageFileLocated   004a44c0     <common>
 0005:000174c4       _MiImageFailure            004a44c4     <common>
 0005:000174c8       _MiSubsectionsProcessed    004a44c8     <common>
 0005:000174cc       _MmUnusedSegmentForceFree  004a44cc     <common>
 0005:000174d0       _MiSubsectionActions       004a44d0     <common>
 0005:000174d4       _MmIoTrackerLock           004a44d4     <common>
 0005:000174e0       _MiCacheOverride           004a44e0     <common>
 0005:000174f0       _MiTrackIoLock             004a44f0     <common>
 0005:000174f4       _MiInitialSystemPageDirectory 004a44f4     <common>
 0005:00017500       _MiProbeRaises             004a4500     <common>
 0005:00017588       _MiDeadPteTrackerSListHead 004a4588     <common>
 0005:00017590       _MmCollidedLockWait        004a4590     <common>
 0005:000175a0       _MiPteHeader               004a45a0     <common>
 0005:000175b4       _MmLockedIoPagesHead       004a45b4     <common>
 0005:000175b8       _MmMdlPagesAllocated       004a45b8     <common>
 0005:000175bc       _MiActiveIoCounter         004a45bc     <common>
 0005:000175c0       _MiPteTrackerLock          004a45c0     <common>
 0005:000175d0       _MmCollidedLockEvent       004a45d0     <common>
 0005:000175e0       _MiNonCachedCollisions     004a45e0     <common>
 0005:000175e8       _MmIoHeader                004a45e8     <common>
 0005:000175f0       _MmTransitionSharedPagesPeak 004a45f0     <common>
 0005:000175f4       _MiWsleFailures            004a45f4     <common>
 0005:000175f8       _MmSystemCachePage         004a45f8     <common>
 0005:000175fc       _MmPagedPoolPage           004a45fc     <common>
 0005:00017600       _MmSystemCodePage          004a4600     <common>
 0005:00017604       _MmSystemDriverPage        004a4604     <common>
 0005:00017608       _MmTrackLockedPages        004a4608     <common>
 0005:0001760c       _MmSectionObjectType       004a460c     <common>
 0005:00017610       _MiSessionPoolEnd          004a4610     <common>
 0005:00017620       _MmDereferenceSegmentHeader 004a4620     <common>
 0005:00017640       _MiSessionImageStart       004a4640     <common>
 0005:00017644       _MmMaximumNonPagedPoolInPages 004a4644     <common>
 0005:00017648       _MmMaximumWorkingSetSize   004a4648     <common>
 0005:0001764c       _MiSessionSpaceEnd         004a464c     <common>
 0005:00017650       _MmResidentAvailablePages  004a4650     <common>
 0005:00017660       _MmStandbyPageListByPriority 004a4660     <common>
 0005:000176e0       _MiChargeCommitmentFailures 004a46e0     <common>
 0005:000176ec       _MmSystemPteBase           004a46ec     <common>
 0005:000176f0       _MmExpansionLock           004a46f0     <common>
 0005:000176f4       _MmAvailablePages          004a46f4     <common>
 0005:000176f8       _MiHighestUserPde          004a46f8     <common>
 0005:00017700       _MmDeadStackSListHead      004a4700     <common>
 0005:00017708       _MmEventCountSListHead     004a4708     <common>
 0005:00017710       _MmHighestPossiblePhysicalPage 004a4710     <common>
 0005:00017720       _MmCollidedFlushEvent      004a4720     <common>
 0005:00017730       _MmProtectFreedNonPagedPool 004a4730     <common>
 0005:00017734       _MiSessionSpaceWs          004a4734     <common>
 0005:00017740       _MmSystemCacheWs           004a4740     <common>
 0005:00017788       _MmSizeOfNonPagedPoolInBytes 004a4788     <common>
 0005:00017790       _MmUnusedSegmentList       004a4790     <common>
 0005:00017798       _MmTotalCommitLimit        004a4798     <common>
 0005:000177a0       _MmPagingFileHeader        004a47a0     <common>
 0005:000177b8       _MmSessionBase             004a47b8     <common>
 0005:000177c0       _MmCriticalSectionTimeout  004a47c0     <common>
 0005:000177d0       _MmUnusedSegmentCleanup    004a47d0     <common>
 0005:000177e0       _MmTotalCommittedPages     004a47e0     <common>
 0005:000177e4       _MmFirstReservedMappingPte 004a47e4     <common>
 0005:00017800       _MmSectionCommitMutex      004a4800     <common>
 0005:00017820       _MmFreePagingSpaceLow      004a4820     <common>
 0005:00017828       _MmSessionPoolSize         004a4828     <common>
 0005:0001782c       _MmTotalCommitLimitMaximum 004a482c     <common>
 0005:00017830       _MiSessionBasePte          004a4830     <common>
 0005:00017834       _MiSessionImagePteEnd      004a4834     <common>
 0005:00017838       _MmUnusedSubsectionCountPeak 004a4838     <common>
 0005:0001783c       _MiHighestUserPte          004a483c     <common>
 0005:00017840       _MmResTrack                004a4840     <common>
 0005:00017990       _MmZeroingPageThreadActive 004a4990     <common>
 0005:00017994       _MmUnusedSegmentCount      004a4994     <common>
 0005:00017998       _MmSizeOfSystemCacheInPages 004a4998     <common>
 0005:0001799c       _MmMaximumNonPagedPoolPercent 004a499c     <common>
 0005:000179a0       _MmThrottleBottom          004a49a0     <common>
 0005:000179a4       _MmLargePageMinimum        004a49a4     <common>
 0005:000179b0       _MmWorkingSetManagerEvent  004a49b0     <common>
 0005:000179c0       _MiSessionWsList           004a49c0     <common>
 0005:000179c8       _MmNumberOfPhysicalPages   004a49c8     <common>
 0005:000179e0       _MmSectionBasedMutex       004a49e0     <common>
 0005:00017a00       _MmDisablePagingExecutive  004a4a00     <common>
 0005:00017a04       _Mm64BitPhysicalAddress    004a4a04     <common>
 0005:00017a20       _MmPageFileCreationLock    004a4a20     <common>
 0005:00017a40       _MiSessionSpacePageTables  004a4a40     <common>
 0005:00017a44       _MiUnusedSubsectionPagedPoolPeak 004a4a44     <common>
 0005:00017a48       _MmPagesAboveWsMinimum     004a4a48     <common>
 0005:00017a60       _MmSectionExtendResource   004a4a60     <common>
 0005:00017a98       _MmFirstFreeSystemPte      004a4a98     <common>
 0005:00017aa0       _MmInPageSupportSListHead  004a4aa0     <common>
 0005:00017aa8       _MiSessionImageEnd         004a4aa8     <common>
 0005:00017aac       _MmModifiedPageMaximum     004a4aac     <common>
 0005:00017ab0       _MmHighSectionBase         004a4ab0     <common>
 0005:00017ac0       _MmSectionExtendSetResource 004a4ac0     <common>
 0005:00017af8       _MmVirtualBias             004a4af8     <common>
 0005:00017afc       _MiSessionImagePteStart    004a4afc     <common>
 0005:00017b00       _MmMappedFileHeader        004a4b00     <common>
 0005:00017b20       _MmPagedPoolInfo           004a4b20     <common>
 0005:00017b40       _MiFlushTbForAttributeChange 004a4b40     <common>
 0005:00017b44       _MiUnusedSubsectionPagedPool 004a4b44     <common>
 0005:00017b48       _MmSystemCacheEnd          004a4b48     <common>
 0005:00017b4c       _MiSessionViewStart        004a4b4c     <common>
 0005:00017b50       _MiSystemViewStart         004a4b50     <common>
 0005:00017b60       _MmPagingFile              004a4b60     <common>
 0005:00017ba0       _MmNumberOfFreeNonPagedPool 004a4ba0     <common>
 0005:00017ba4       _MmNonPagedSystemStart     004a4ba4     <common>
 0005:00017ba8       _MmSessionSpace            004a4ba8     <common>
 0005:00017bb0       _MmWorkingSetExpansionHead 004a4bb0     <common>
 0005:00017bb8       _MmSystemCacheWsle         004a4bb8     <common>
 0005:00017bc0       _MmSectionBasedRoot        004a4bc0     <common>
 0005:00017be0       _MmNumberOfPagingFiles     004a4be0     <common>
 0005:00017be4       _MmNumberOfSystemPtes      004a4be4     <common>
 0005:00017be8       _MiSessionLastPte          004a4be8     <common>
 0005:00017bec       _MmLastReservedMappingPte  004a4bec     <common>
 0005:00017bf0       _MmUnusedSubsectionCount   004a4bf0     <common>
 0005:00017c00       _MmZeroingPageEvent        004a4c00     <common>
 0005:00017c10       _MmUnusedSubsectionList    004a4c10     <common>
 0005:00017c20       _MmModifiedPageWriterEvent 004a4c20     <common>
 0005:00017c30       _MiSessionPoolStart        004a4c30     <common>
 0005:00017c34       _MmThrottleTop             004a4c34     <common>
 0005:00017c38       _MmDynamicPfn              004a4c38     <common>
 0005:00017c3c       _MmSessionViewSize         004a4c3c     <common>
 0005:00017c40       _MmSystemViewSize          004a4c40     <common>
 0005:00017c44       _MmConsumedPoolPercentage  004a4c44     <common>
 0005:00017c48       _MiFlushCacheForAttributeChange 004a4c48     <common>
 0005:00017c4c       _MiRequestedSystemPtes     004a4c4c     <common>
 0005:00017c50       _MmMaximumNonPagedPoolInBytes 004a4c50     <common>
 0005:00017c54       _MmSessionSize             004a4c54     <common>
 0005:00017c58       _MmNumberOfActiveMdlEntries 004a4c58     <common>
 0005:00017c60       _MmAvailablePagesEvent     004a4c60     <common>
 0005:00017c70       _MmSessionImageSize        004a4c70     <common>
 0005:00017c80       _MmAttemptForCantExtend    004a4c80     <common>
 0005:00017cb0       _MiLastAdjustmentOfClaimParams 004a4cb0     <common>
 0005:00017cb8       _MiLastStandbyRePurposed   004a4cb8     <common>
 0005:00017cbc       _MiTrimAllPageFaultCount   004a4cbc     <common>
 0005:00017cc0       _MmPlentyFreePagesValue    004a4cc0     <common>
 0005:00017cc4       _MiWorkingSetRequestFlags  004a4cc4     <common>
 0005:00017cd0       _MiWorkingSetRequestEvent  004a4cd0     <common>
 0005:00017ce0       _MmSessionFailureCauses    004a4ce0     <common>
 0005:00017d10       _RtlpEnvironCacheName      004a4d10     <common>
 0005:00017d18       _RtlpEnvironCacheValue     004a4d18     <common>
 0005:00017d20       _RtlpEnvironCacheValid     004a4d20     <common>
 0005:00017d24       _RtlpExceptionLogSize      004a4d24     <common>
 0005:00017d28       _RtlpExceptionLogCount     004a4d28     <common>
 0005:00017d2c       _RtlpStackTraceDataBase    004a4d2c     <common>
 0005:00017d30       _RtlpStackTraceDataBaseLock 004a4d30     <common>
 0005:00017d3c       _RtlpAtomAllocateTag       004a4d3c     <common>
 0005:00017d40       _SepTokenPolicyCounter     004a4d40     <common>
 0005:00017d64       _ObpAuditBaseObjects       004a4d64     <common>
 0005:00017d68       _ObpLUIDDeviceMapsEnabled  004a4d68     <common>
 0005:00017d6c       _ObpAuditBaseDirectories   004a4d6c     <common>
 0005:00017d70       _ObpLUIDDeviceMapsDisabled 004a4d70     <common>
 0005:00017d74       _ObpProtectionMode         004a4d74     <common>
 0005:00017d80       _ObsSecurityDescriptorCache 004a4d80     <common>
 0005:0001898c       _ObpXXX3                   004a598c     <common>
 0005:00018990       _ObpXXX2                   004a5990     <common>
 0005:00018994       _ObpXXX1                   004a5994     <common>
 0005:000189a0       _ObpTracePoolTags          004a59a0     <common>
 0005:000189e0       _ObpLock                   004a59e0     <common>
 0005:000189e4       _ObpRemoveObjectList       004a59e4     <common>
 0005:000189e8       _ObpNumStackTraces         004a59e8     <common>
 0005:000189ec       _ObpKernelHandleTable      004a59ec     <common>
 0005:000189f0       _ObpNumTracedObjects       004a59f0     <common>
 0005:000189f4       _ObpRootDirectoryObject    004a59f4     <common>
 0005:000189f8       _ObpDirectoryObjectType    004a59f8     <common>
 0005:000189fc       _ObpSymbolicLinkObjectType 004a59fc     <common>
 0005:00018a00       _ObpDeviceMapLock          004a5a00     <common>
 0005:00018a20       _ObpTypeDirectoryObject    004a5a20     <common>
 0005:00018a30       _ObpDefaultObject          004a5a30     <common>
 0005:00018a40       _ObpMaxCachedGrantedAccessIndex 004a5a40     <common>
 0005:00018a44       _ObpTypeObjectType         004a5a44     <common>
 0005:00018a48       _ObpCachedGrantedAccesses  004a5a48     <common>
 0005:00018a4c       _ObpStackSequence          004a5a4c     <common>
 0005:00018a50       _ObpRemoveObjectWorkItem   004a5a50     <common>
 0005:00018a60       _ObpCurCachedGrantedAccessIndex 004a5a60     <common>
 0005:00018a64       _ObpStackTraceLock         004a5a64     <common>
 0005:00018a80       _ObpObjectTypes            004a5a80     <common>
 0005:00018b40       _PerfInfoSampledProfileFlushInProgress 004a5b40     <common>
 0005:00018b44       _PPerfGlobalGroupMask      004a5b44     <common>
 0005:00018b60       _PerfInfoProfileObject     004a5b60     <common>
 0005:00018ba0       _PerfGlobalGroupMask       004a5ba0     <common>
 0005:00018bc0       _PerfInfoSampledProfileCaching 004a5bc0     <common>
 0005:00018be0       _PerfProfileCache          004a5be0     <common>
 0005:00018ce0       _VdmIoListCreationResource 004a5ce0     <common>
 0005:00018d20       _PspJobTimeLimitsWorkItem  004a5d20     <common>
 0005:00018d40       _PspJobTimeLimitsLock      004a5d40     <common>
 0005:00018d60       _PspJobTimeLimitsShuttingDown 004a5d60     <common>
 0005:00018d80       _PspJobTimeLimitsDpc       004a5d80     <common>
 0005:00018da0       _PspJobTimeLimitsTimer     004a5da0     <common>
 0005:00018de0       _LdtMutex                  004a5de0     <common>
 0005:00018e00       _PsIdleProcess             004a5e00     <common>
 0005:00018e04       _PspDefaultPagedLimit      004a5e04     <common>
 0005:00018e08       _PspCidTable               004a5e08     <common>
 0005:00018e20       _PspDefaultQuotaBlock      004a5e20     <common>
 0005:00018e60       _PsThreadType              004a5e60     <common>
 0005:00018e64       _PspQuotaLock              004a5e64     <common>
 0005:00018e68       _PsSystemDllDllBase        004a5e68     <common>
 0005:00018e6c       _PsInitialSystemProcess    004a5e6c     <common>
 0005:00018e70       _PspDefaultPagefileLimit   004a5e70     <common>
 0005:00018e78       _PspJobList                004a5e78     <common>
 0005:00018e80       _PspShutdownThread         004a5e80     <common>
 0005:00018e84       _PspForegroundQuantum      004a5e84     <common>
 0005:00018e90       _PsReaperWorkItem          004a5e90     <common>
 0005:00018ea0       _PsActiveProcessHead       004a5ea0     <common>
 0005:00018ec0       _PspActiveProcessMutex     004a5ec0     <common>
 0005:00018ee0       _PsSystemDllBase           004a5ee0     <common>
 0005:00018ee4       _PspDoingGiveBacks         004a5ee4     <common>
 0005:00018ee8       _PsJobType                 004a5ee8     <common>
 0005:00018eec       _PspDefaultNonPagedLimit   004a5eec     <common>
 0005:00018f00       _PspJobListLock            004a5f00     <common>
 0005:00018f20       _PsProcessType             004a5f20     <common>
 0005:00018f24       _PsReaperListHead          004a5f24     <common>
 0005:00018f28       _PsPrioritySeparation      004a5f28     <common>
 0005:00018f30       _PspQuotaBlockList         004a5f30     <common>
 0005:00018f40       _PspCreateProcessNotifyRoutine 004a5f40     <common>
 0005:00018f60       _PspCreateProcessNotifyRoutineCount 004a5f60     <common>
 0005:00018f80       _PspLoadImageNotifyRoutine 004a5f80     <common>
 0005:00018fa0       _PspCreateThreadNotifyRoutine 004a5fa0     <common>
 0005:00018fc0       _PspWorkingSetChangeHead   004a5fc0     <common>
 0005:00018ff0       _PspCreateThreadNotifyRoutineCount 004a5ff0     <common>
 0005:00018ff4       _PspLoadImageNotifyRoutineCount 004a5ff4     <common>
 0005:00018ff8       _RawDeviceCdRomObject      004a5ff8     <common>
 0005:00018ffc       _RawDeviceDiskObject       004a5ffc     <common>
 0005:00019000       _RawDeviceTapeObject       004a6000     <common>
 0005:00019004       _WmipSysId1394Count        004a6004     <common>
 0005:00019008       _WmipSysIdStatus           004a6008     <common>
 0005:0001900c       _WmipSysIdUuidCount        004a600c     <common>
 0005:00019010       _WmipSysId1394             004a6010     <common>
 0005:00019014       _WmipSysIdUuid             004a6014     <common>
 0005:00019018       _WmipSysIdRead             004a6018     <common>
 0005:00019020       _WmipGEHead                004a6020     <common>
 0005:00019028       _WmipDSHead                004a6028     <common>
 0005:00019030       _WmipDSHeadPtr             004a6030     <common>
 0005:00019034       _WmipMRHeadPtr             004a6034     <common>
 0005:00019038       _WmipGEHeadPtr             004a6038     <common>
 0005:00019040       _WmipMRHead                004a6040     <common>
 0005:00019050       _WmipEventWorkQueueItem    004a6050     <common>
 0005:00019060       _WmipEventWorkItems        004a6060     <common>
 0005:00019064       _WmipNPNotificationSpinlock 004a6064     <common>
 0005:00019068       _WmipRegistrationSpinLock  004a6068     <common>
 0005:00019070       _WmipRegWorkQueue          004a6070     <common>
 0005:00019080       _WmipIsWbemRunningFlag     004a6080     <common>
 0005:00019084       _WmipDisableMCAPopups      004a6084     <common>
 0005:00019090       _WmipIsWbemRunningWorkItem 004a6090     <common>
 0005:000190a0       _WmipRawMCASize            004a60a0     <common>
 0005:000190c0       _WmipIsWbemRunningDpc      004a60c0     <common>
 0005:000190e0       _WmipIsWbemRunningTimer    004a60e0     <common>
 0005:00019108       _WmipMCEState              004a6108     <common>
 0005:0001910c       _WmipRawMCA                004a610c     <common>
 0005:00019110       _WmipDockUndockNotificationEntry 004a6110     <common>
 0005:00019114       _WmipAdminDeviceObject     004a6114     <common>
 0005:00019120       _WmipTLMutex               004a6120     <common>
 0005:00019140       _WmipFastIoDispatch        004a6140     <common>
 0005:000191c0       _WmipSMMutex               004a61c0     <common>
 0005:000191e0       _WmipServiceDeviceObject   004a61e0     <common>
 0005:000191e8       _WmipRegistryPath          004a61e8     <common>
 0005:00019200       _EtwpDefaultSecurityDescriptor 004a6200     <common>
 0005:00019214       _WmipGuidObjectType        004a6214     <common>
 0005:00019220       _WmipDefaultAccessSecurityDescriptor 004a6220     <common>
 0005:00019234       _WmipDefaultAccessSd       004a6234     <common>
 0005:00019240       _WmipSystemSubjectContext  004a6240     <common>
 0005:00019260       _WmipContextSwapProcessorBuffers 004a6260     <common>
 0005:000192e0       _WmipRefCount              004a62e0     <common>
 0005:000193e0       _WmipLoggerContext         004a63e0     <common>
 0005:000194e0       _EtwpDefaultTraceSecurityDescriptor 004a64e0     <common>
 0005:00019500       _WmipTraceGuardedMutex     004a6500     <common>
 0005:00019520       _WmipInstIdChunkHead       004a6520     <common>
 0005:00019524       _ViVerifierEnabled         004a6524     <common>
 0005:00019528       _ViIrpDatabaseLock         004a6528     <common>
 0005:0001952c       _ViIrpDatabase             004a652c     <common>
 0005:00019540       _ViMajorVerifierRoutines   004a6540     <common>
 0005:00019ae0       _PiDDBLock                 004a6ae0     <common>
 0005:00019b20       _PiDDBCacheTable           004a6b20     <common>
 0005:00019b58       _PiDDBCacheList            004a6b58     <common>
 0005:00019b60       _PiProfileDeviceListLock   004a6b60     <common>
 0005:00019b80       _PiProfileDeviceListHead   004a6b80     <common>
 0005:00019b88       _PiProfileDeviceCount      004a6b88     <common>
 0005:00019ba0       _PiProfileChangeSemaphore  004a6ba0     <common>
 0005:00019bb4       _PiProfileDevicesInTransition 004a6bb4     <common>
 0005:00019bb8       _PiProfileChangeCancelRequired 004a6bb8     <common>
 0005:00019bc0       _MapperDeviceExtension     004a6bc0     <common>
 0005:00019bd4       _PbSelectors               004a6bd4     <common>
 0005:00019bd8       _PiShutdownContext         004a6bd8     <common>
 0005:00019be0       _PbBiosCodeSelector        004a6be0     <common>
 0005:00019be4       _PbBiosEntryPoint          004a6be4     <common>
 0005:00019be8       _PbBiosDataSelector        004a6be8     <common>
 0005:00019bec       _PbBiosSpinlock            004a6bec     <common>
 0005:00019bf0       _ViIrpLogDatabaseLock      004a6bf0     <common>
 0005:00019bf4       _ViIrpLogDatabase          004a6bf4     <common>
 0005:00019bf8       _ViBugCheckInitialControl  004a6bf8     <common>
 0005:00019bfc       _ViBugCheckControlOverride 004a6bfc     <common>
 0005:00019c00       _ViBugCheckEmptyString     004a6c00     <common>
 0005:00019c20       _PopWakeTimeoutDpc         004a6c20     <common>
 0005:00019c40       _PopWakeTimeoutTimer       004a6c40     <common>
 0005:00019c68       _VfZwLastCall              004a6c68     <common>
 0005:00019c6c       _VfZwSystemSufficientlyBooted 004a6c6c     <common>
 0005:00019c70       _VfZwReportedIssuesIndex   004a6c70     <common>
 0005:00019c80       _VfZwReportedIssues        004a6c80     <common>
 0005:0001a080       _ViTimerInformation        004a7080     <common>
 0005:0001a084       _MiInDebugger              004a7084     <common>
 0005:0001a088       _MmPoisonedTb              004a7088     <common>
 0005:0001a08c       _KeLicensedProcessors      004a708c     <common>
 0005:0001a090       _PnPInitialized            004a7090     <common>
 0005:0001a094       _IoDeviceNodeTreeSequence  004a7094     <common>
 0005:0001a098       _IopBootConfigsReserved    004a7098     <common>
 0005:0001a09c       _PnpDefaultInterfaceType   004a709c     <common>
 0005:0001a0a0       _IopInitHalResources       004a70a0     <common>
 0005:0001a0c0       _PpRegistrySemaphore       004a70c0     <common>
 0005:0001a0d4       _IopNumberDeviceNodes      004a70d4     <common>
 0005:0001a0d8       _IopAllocateBootResourcesRoutine 004a70d8     <common>
 0005:0001a0e0       _PpRegistryDeviceResource  004a70e0     <common>
 0005:0001a118       _PnPBootDriversLoaded      004a7118     <common>
 0005:0001a120       _IopPendingEjects          004a7120     <common>
 0005:0001a140       _IopRootDmaArbiter         004a7140     <common>
 0005:0001a1e0       _PiEnumerationLock         004a71e0     <common>
 0005:0001a1f0       _IopRootDeviceNode         004a71f0     <common>
 0005:0001a200       _PiEngineLock              004a7200     <common>
 0005:0001a240       _IopLegacyBusInformationTable 004a7240     <common>
 0005:0001a2c0       _IopWarmEjectPdo           004a72c0     <common>
 0005:0001a2c4       _IopMaxDeviceNodeLevel     004a72c4     <common>
 0005:0001a2c8       _IopPendingSurpriseRemovals 004a72c8     <common>
 0005:0001a2e0       _IopRootIrqArbiter         004a72e0     <common>
 0005:0001a37c       _IopInitReservedResourceList 004a737c     <common>
 0005:0001a380       _IopRootBusNumberArbiter   004a7380     <common>
 0005:0001a41c       _PpPnpShuttingDown         004a741c     <common>
 0005:0001a420       _PiEventQueueEmpty         004a7420     <common>
 0005:0001a440       _IopRootPortArbiter        004a7440     <common>
 0005:0001a4e0       _IopSurpriseRemoveListLock 004a74e0     <common>
 0005:0001a518       _IopInitHalDeviceNode      004a7518     <common>
 0005:0001a51c       _IoPnpDriverObject         004a751c     <common>
 0005:0001a520       _IopWarmEjectLock          004a7520     <common>
 0005:0001a530       _IopPnPSpinLock            004a7530     <common>
 0005:0001a540       _IopDeviceTreeLock         004a7540     <common>
 0005:0001a580       _IopRootMemArbiter         004a7580     <common>
 0005:0001a61c       _PnPBootDriversInitialized 004a761c     <common>
 0005:0001a620       _IopPnpEnumerationRequestList 004a7620     <common>
 0005:0001a628       _MmTriageActionTaken       004a7628     <common>
 0005:0001a630       _MiHotPatchList            004a7630     <common>
 0005:0001a638       _errno                     004a7638     <common>
 0005:0001a63c       _KiUnlicensedProcessorPresent 004a763c     <common>
 0005:0001a63d       _KiSMTProcessorsPresent    004a763d     <common>
 0005:0001a640       _IopPerfDriverUniqueMatchId 004a7640     <common>
 0005:0001a644       _PipTearDownPnpStacksOnShutdown 004a7644     <common>
 0005:0001a645       _PipEnumerationInProgress  004a7645     <common>
 0005:0001a650       _PipDeviceEnumerationWorkItem 004a7650     <common>
 0005:0001a660       _PpDeviceReferenceTable    004a7660     <common>
 0005:0001a6a0       _PpDeviceReferenceTableLock 004a76a0     <common>
 0005:0001a6c0       _PpBusTypeGuidLock         004a76c0     <common>
 0005:0001a6e0       _PpBusTypeGuidCountMax     004a76e0     <common>
 0005:0001a6e4       _PpBusTypeGuidArray        004a76e4     <common>
 0005:0001a6e8       _PpBusTypeGuidCount        004a76e8     <common>
 0005:0001a6ec       _IovDriverListHead         004a76ec     <common>
 0005:0001a700       _VdmStringIoBuffer         004a7700     <common>
 0005:0001ab00       _VdmStringIoMutex          004a7b00     <common>
 0005:0001ab20       _PaletteBmp                004a7b20     <common>
 0005:0001aba0       _Square2                   004a7ba0     <common>
 0005:0001abe0       _Square1                   004a7be0     <common>
 0005:0001ac04       _PaletteNum                004a7c04     <common>
 0005:0001ac20       _Square3                   004a7c20     <common>
 0005:0001ac44       _KdBreakAfterSymbolLoad    004a7c44     <common>
 0005:0001ac48       _IopGroupIndex             004a7c48     <common>
 0005:0001ac4c       _IopGroupTable             004a7c4c     <common>
 0005:0001ac50       _IopGroupListHead          004a7c50     <common>
 0005:0001ac60       _ExpEnvironmentLock        004a7c60     <common>
 0005:0001ac80       _PopHibernationErrorSubtstitionString 004a7c80     <common>
 0005:0001ad80       _PopUnlockAfterSleepWorkItem 004a7d80     <common>
 0005:0001ad90       _PopUnlockComplete         004a7d90     <common>
 0005:0001ada0       _PopShutdownWorkItem       004a7da0     <common>
 0005:0001adb0       _VdmBopCount               004a7db0     <common>
 0005:0001adb4       _ViDeadlockState           004a7db4     <common>
 0005:0001adb8       _ViDeadlockGlobals         004a7db8     <common>
 0005:0001adbc       _ViDeadlockDatabaseOwner   004a7dbc     <common>
 0005:0001adc0       _ViVerifyOnlySpinlocksFromRegistry 004a7dc0     <common>
 0005:0001adc4       _ViRecursionDepthLimitFromRegistry 004a7dc4     <common>
 0005:0001adc8       _ViStackSwitchAlreadyReported 004a7dc8     <common>
 0005:0001adcc       _ViDeadlockDatabaseLock    004a7dcc     <common>
 0005:0001add0       _ViDeadlockDetectionEnabled 004a7dd0     <common>
 0005:0001add1       _ViDeadlockStrict          004a7dd1     <common>
 0005:0001add4       _ViSearchedNodesLimitFromRegistry 004a7dd4     <common>
 0005:0001ade0       _ViDeadlockIssue           004a7de0     <common>
 0005:0001adf0       _ViDeadlockVeryStrict      004a7df0     <common>
 0005:0001adf4       _ViDeadlockDebug           004a7df4     <common>
 0005:0001ae00       _ViTrimDeadlockPoolWorkItem 004a7e00     <common>
 0005:0001ae10       _ViDeadlockVerifyOnlySpinlocks 004a7e10     <common>
 0005:0001ae14       _MiSpecialPoolLock         004a7e14     <common>
 0005:0001ae18       _MiSpecialPagesPageablePeak 004a7e18     <common>
 0005:0001ae1c       _MiSpecialPoolLastPte      004a7e1c     <common>
 0005:0001ae20       _MiSpecialPagesInUsePeak   004a7e20     <common>
 0005:0001ae24       _MmSpecialPoolStart        004a7e24     <common>
 0005:0001ae28       _MiSpecialPagesNonPagedPeak 004a7e28     <common>
 0005:0001ae2c       _MmSpecialPagesInUse       004a7e2c     <common>
 0005:0001ae30       _MiSpecialPagesNonPagedMaximum 004a7e30     <common>
 0005:0001ae34       _MmSpecialPoolEnd          004a7e34     <common>
 0005:0001ae38       _MiSpecialPagesPageable    004a7e38     <common>
 0005:0001ae3c       _MiSpecialPoolExtra        004a7e3c     <common>
 0005:0001ae40       _MmSpecialPoolRejected     004a7e40     <common>
 0005:0001ae5c       _MiSpecialPoolExtraCount   004a7e5c     <common>
 0005:0001ae60       _MiSpecialPoolFirstPte     004a7e60     <common>
 0005:0001ae64       _MmSpecialPoolTag          004a7e64     <common>
 0005:0001ae68       _MiSpecialPagesNonPaged    004a7e68     <common>
 0005:0001ae6c       _CmProcessorMismatch       004a7e6c     <common>
 0005:0001ae70       _PopIrpSerialListLength    004a7e70     <common>
 0005:0001ae74       _PopThermalLock            004a7e74     <common>
 0005:0001ae78       _PopWorkerLock             004a7e78     <common>
 0005:0001ae80       _PopIdleScanTimer          004a7e80     <common>
 0005:0001aea8       _PopInvalidNotifyBlockCount 004a7ea8     <common>
 0005:0001aeac       _PopIdle                   004a7eac     <common>
 0005:0001aeb0       _PopEventCallout           004a7eb0     <common>
 0005:0001aeb4       _PopFullWake               004a7eb4     <common>
 0005:0001aec0       _PopPolicyLock             004a7ec0     <common>
 0005:0001af00       _PopIdleScanDpc            004a7f00     <common>
 0005:0001af20       _PopIdle0PromoteTicks      004a7f20     <common>
 0005:0001af28       _PopIdleScanTime           004a7f28     <common>
 0005:0001af30       _PopInrushPending          004a7f30     <common>
 0005:0001af40       _PoSystemIdleTimer         004a7f40     <common>
 0005:0001af68       _PopCallSystemState        004a7f68     <common>
 0005:0001af80       _PopCB                     004a7f80     <common>
 0005:0001b040       _PopDispatchPolicyIrps     004a8040     <common>
 0005:0001b060       _PopCapabilities           004a8060     <common>
 0005:0001b0ac       _PoHiberInProgress         004a80ac     <common>
 0005:0001b0b0       _PopInrushIrpPointer       004a80b0     <common>
 0005:0001b0c0       _PopSIdle                  004a80c0     <common>
 0005:0001b100       _PopWorkerPending          004a8100     <common>
 0005:0001b104       _PopInrushIrpReferenceCount 004a8104     <common>
 0005:0001b108       _PopThermal                004a8108     <common>
 0005:0001b110       _PoPowerSequence           004a8110     <common>
 0005:0001b114       _PopWorkerStatus           004a8114     <common>
 0005:0001b118       _PopPolicyIrpQueue         004a8118     <common>
 0005:0001b120       _PopRequestedIrps          004a8120     <common>
 0005:0001b128       _PopIrpSerialLock          004a8128     <common>
 0005:0001b130       _PopIdleDetectList         004a8130     <common>
 0005:0001b138       _PopWorkerSpinLock         004a8138     <common>
 0005:0001b140       _PopPerfCounterFrequency   004a8140     <common>
 0005:0001b148       _PopDopeGlobalLock         004a8148     <common>
 0005:0001b14c       _PopNotifyEvents           004a814c     <common>
 0005:0001b150       _PopPolicyWorker           004a8150     <common>
 0005:0001b160       _PowerStateDisableReasonListHead 004a8160     <common>
 0005:0001b180       _PopNotifyLock             004a8180     <common>
 0005:0001b1b8       _PopIrpSerialList          004a81b8     <common>
 0005:0001b1c0       _PopIdle0PromoteLimit      004a81c0     <common>
 0005:0001b1e0       _PopVolumeLock             004a81e0     <common>
 0005:0001b200       _ViDdiWmiMofKey            004a8200     <common>
 0005:0001b208       _ViDdiWmiMofResourceName   004a8208     <common>
 0005:0001b220       _PoWakeState               004a8220     <common>
 0005:0001b540       _PopShutdownEvent          004a8540     <common>
 0005:0001b560       _PopShutdownListMutex      004a8560     <common>
 0005:0001b580       _PopShutdownQueue          004a8580     <common>
 0005:0001b588       _PopShutdownThreadList     004a8588     <common>
 0005:0001b58c       _VdmpMaxPMCliTime          004a858c     <common>
 0005:0001b590       _ViTrackIrqlIndex          004a8590     <common>
 0005:0001b5a0       _VerifierIrqlData          004a85a0     <common>
 0005:0001b5e0       _MiVerifierStackProtectTime 004a85e0     <common>
 0005:0001b5e4       _VerifierOptionChanges     004a85e4     <common>
 0005:0001b5e8       _MiSuspectDriverList       004a85e8     <common>
 0005:0001b5f0       _MiActiveVerifierThunks    004a85f0     <common>
 0005:0001b5f4       _VerifierModifyableOptions 004a85f4     <common>
 0005:0001b600       _MmVerifierData            004a8600     <common>
 0005:0001b670       _VerifierSystemSufficientlyBooted 004a8670     <common>
 0005:0001b674       _VerifierLargePagedPoolMap 004a8674     <common>
 0005:0001b678       _ViBadDriver               004a8678     <common>
 0005:0001b67c       _ViFaultTraces             004a867c     <common>
 0005:0001b680       _ViFaultTracesIndex        004a8680     <common>
 0005:0001b6a0       _MiKernelVerifierOriginalCalls 004a86a0     <common>
 0005:0001b6cc       _MiVerifierThunksAdded     004a86cc     <common>
 0005:0001b6d0       _MiVerifierDriverAddedThunkListHead 004a86d0     <common>
 0005:0001b6d8       _VerifierListLock          004a86d8     <common>
 0005:0001b6dc       _MiVerifyAllDrivers        004a86dc     <common>
 0005:0001b6e0       _MiNoPageOnRaiseIrql       004a86e0     <common>
 0005:0001b6e4       _ViTrackIrqlQueue          004a86e4     <common>
 0005:0001b6e8       _MiActiveVerifies          004a86e8     <common>
 0005:0001b6ec       _MmDynamicMemoryLock       004a86ec     <common>
 0005:0001b6f0       _IopNumTriageDumpDataBlocks 004a86f0     <common>
 0005:0001b700       _IopTriageDumpDataBlocks   004a8700     <common>
 0005:0001b900       _IopAutoReboot             004a8900     <common>
 0005:0001b920       _IopCrashDumpLock          004a8920     <common>
 0005:0001b958       _KdDebuggerEnabled         004a8958     <common>
 0005:0001b959       _KdpOweBreakpoint          004a8959     <common>
 0005:0001b95a       _KdAutoEnableOnEvent       004a895a     <common>
 0005:0001b95b       _KdIgnoreUmExceptions      004a895b     <common>
 0005:0001b95c       _KdEnteredDebugger         004a895c     <common>
 0005:0001b960       _KdDebuggerNotPresent      004a8960     <common>
 0005:0001b968       _KdpContext                004a8968     <common>
 0005:0001b970       _KdBlockEnable             004a8970     <common>
 0005:0001b980       _KdpRemoteFiles            004a8980     <common>
 0005:0001ba00       _KdpContextSent            004a8a00     <common>
 0005:0001ba04       _IopLegacyDeviceNode       004a8a04     <common>
 0005:0001ba20       _IopDeviceClassNotifyLock  004a8a20     <common>
 0005:0001ba40       _IopDeferredRegistrationLock 004a8a40     <common>
 0005:0001ba60       _PiNotificationInProgressLock 004a8a60     <common>
 0005:0001ba80       _IopHwProfileNotifyLock    004a8a80     <common>
 0005:0001baa0       _IopTargetDeviceNotifyLock 004a8aa0     <common>
 0005:0001bac0       _CmNtCSDVersion            004a8ac0     <common>
 0005:0001bac4       _VpPoolHitTag              004a8ac4     <common>
 0005:0001bac8       _CmBrand                   004a8ac8     <common>
 0005:0001bad0       _CmCSDVersionString        004a8ad0     <common>
 0005:0001bae0       _BBTMemoryDescriptor       004a8ae0     <common>
 0005:0001baf4       _InitSafeBootMode          004a8af4     <common>
 0005:0001baf8       _CmNtCSDReleaseType        004a8af8     <common>
 0005:0001bafc       _CmNtSpBuildNumber         004a8afc     <common>
 0005:0001bb00       _InitNlsTableBase          004a8b00     <common>
 0005:0001bb04       _InitNlsTableSize          004a8b04     <common>
 0005:0001bb08       _CmVersionString           004a8b08     <common>
 0005:0001bb10       _BBTBuffer                 004a8b10     <common>
 0005:0001bb14       _InbvOldIrql               004a8b14     <common>
 0005:0001bb18       _BootDriverLock            004a8b18     <common>
 0005:0001bb20       _InbvProgressState         004a8b20     <common>
 0005:0001bb40       _ResourceList              004a8b40     <common>
 0005:0001bb80       _ProgressBarLeft           004a8b80     <common>
 0005:0001bb84       _ProgressBarTop            004a8b84     <common>
 0005:0001bb88       _ExpProductTypeChangeBuffer 004a8b88     <common>
 0005:0001bb90       _ExpWatchProductTypeWorkItem 004a8b90     <common>
 0005:0001bba0       _ExpProductTypeValueInfo   004a8ba0     <common>
 0005:0001bbb0       _ExpWatchSystemPrefixWorkItem 004a8bb0     <common>
 0005:0001bbc0       _KdDumpEnableOffset        004a8bc0     <common>
 0005:0001bbc8       _ExpSystemPrefixIoSb       004a8bc8     <common>
 0005:0001bbd0       _ExpSystemPrefixChangeBuffer 004a8bd0     <common>
 0005:0001bbd8       _ExpProductTypeIoSb        004a8bd8     <common>
 0005:0001bbe0       _ExpControlKey             004a8be0     <common>
 0005:0001bbe8       _ExpProductTypeKey         004a8be8     <common>
 0005:0001bbec       _ExpLicenseInfoCount       004a8bec     <common>
 0005:0001bbf0       _ExpLicenseInfo            004a8bf0     <common>
 0005:0001bbf4       _ExpInTextModeSetup        004a8bf4     <common>
 0005:0001bc00       _ExpKeyManipLock           004a8c00     <common>
 0005:0001bc40       _ExpTimeRefreshTimer       004a8c40     <common>
 0005:0001bc80       _ExpTimeZoneDpc            004a8c80     <common>
 0005:0001bca0       _ExpTimeRefreshDpc         004a8ca0     <common>
 0005:0001bcc0       _ExpCenturyWorkItem        004a8cc0     <common>
 0005:0001bce0       _ExpTimeRefreshLock        004a8ce0     <common>
 0005:0001bd20       _ExpTimeRefreshWorkItem    004a8d20     <common>
 0005:0001bd30       _ExpTimeZoneWorkItem       004a8d30     <common>
 0005:0001bd40       _ExpWatchExpirationDataWorkItem 004a8d40     <common>
 0005:0001bd60       _ExpCenturyDpc             004a8d60     <common>
 0005:0001bd80       _ExpOkToTimeZoneRefresh    004a8d80     <common>
 0005:0001bda0       _ExpCenturyTimer           004a8da0     <common>
 0005:0001bde0       _ExpTimeZoneTimer          004a8de0     <common>
 0005:0001be08       _ExpOkToTimeRefresh        004a8e08     <common>
 0005:0001be10       _ExpTimeZoneBias           004a8e10     <common>
 0005:0001be18       ___@@_PchSym_@00@UwmhieUdrmwldhUzkkxlnkzgUhwyzkrUpnlwvUlyqUrDIGUhwykOlyq@sdbapint 004a8e18     <common>
 0005:0001be20       _g_SharedLock              004a8e20     <common>
 0005:0001be60       _g_ShimCache               004a8e60     <common>
 0006:00000000       _CcMasterSpinLock          004a9000     ke:hifreqlk.obj
 0006:00000040       _CcWorkQueueSpinLock       004a9040     ke:hifreqlk.obj
 0006:00000080       _CcVacbSpinLock            004a9080     ke:hifreqlk.obj
 0006:000000c0       _CcDeferredWriteSpinLock   004a90c0     ke:hifreqlk.obj
 0006:00000100       _CcDebugTraceLock          004a9100     ke:hifreqlk.obj
 0006:00000140       _CcBcbSpinLock             004a9140     ke:hifreqlk.obj
 0006:00000180       _NonPagedPoolLock          004a9180     ke:hifreqlk.obj
 0006:000001c0       _ExpResourceSpinLock       004a91c0     ke:hifreqlk.obj
 0006:00000200       _IopCompletionLock         004a9200     ke:hifreqlk.obj
 0006:00000240       _IopCancelSpinLock         004a9240     ke:hifreqlk.obj
 0006:00000280       _IopVpbSpinLock            004a9280     ke:hifreqlk.obj
 0006:000002c0       _IopDatabaseLock           004a92c0     ke:hifreqlk.obj
 0006:00000300       _IopErrorLogLock           004a9300     ke:hifreqlk.obj
 0006:00000340       _IopTimerLock              004a9340     ke:hifreqlk.obj
 0006:00000344       _IoStatisticsLock          004a9344     ke:hifreqlk.obj
 0006:00000380       _KdpDebuggerLock           004a9380     ke:hifreqlk.obj
 0006:000003c0       _KiDispatcherLock          004a93c0     ke:hifreqlk.obj
 0006:00000400       _KiFreezeExecutionLock     004a9400     ke:hifreqlk.obj
 0006:00000440       _KiFreezeLockBackup        004a9440     ke:hifreqlk.obj
 0006:00000480       _KiProcessListLock         004a9480     ke:hifreqlk.obj
 0006:000004c0       _KiProfileLock             004a94c0     ke:hifreqlk.obj
 0006:00000500       _KiReverseStallIpiLock     004a9500     ke:hifreqlk.obj
 0006:00000540       _KiTimerTableLock          004a9540     ke:hifreqlk.obj
 0006:00000940       _MmPfnLock                 004a9940     ke:hifreqlk.obj
 0006:00000980       _MmSystemSpaceLock         004a9980     ke:hifreqlk.obj
 0006:000009c0       _MmNonPagedPoolLock        004a99c0     ke:hifreqlk.obj
 0006:00000a00       _PsLoadedModuleSpinLock    004a9a00     ke:hifreqlk.obj
 0006:00000a40       _NtfsStructLock            004a9a40     ke:hifreqlk.obj
 0006:00000a80       _AfdWorkQueueSpinLock      004a9a80     ke:hifreqlk.obj
 0006:00000ac0       _KiDummyLock               004a9ac0     ke:hifreqlk.obj
 0007:00000006       _CcCopyRead@24             004aa006 f   cache:copysup.obj
 0007:00000582       _CcFastCopyRead@24         004aa582 f   cache:copysup.obj
 0007:000009f8       _CcSetLogHandleForFile@12  004aa9f8 f   cache:logsup.obj
 0007:00000a20       _CcZeroData@16             004aaa20 f   cache:fssup.obj
 0007:00000f64       _CcMapDataCommon@24        004aaf64 f   cache:pinsup.obj
 0007:00000fee       _CcUnpinData@4             004aafee f   cache:pinsup.obj
 0007:0000103e       _CcSetBcbOwnerPointer@8    004ab03e f   cache:pinsup.obj
 0007:0000107e       _CcUnpinDataForThread@8    004ab07e f   cache:pinsup.obj
 0007:000010dc       _CcAllocateObcb@12         004ab0dc f   cache:pinsup.obj
 0007:0000116e       _CcMapData@24              004ab16e f   cache:pinsup.obj
 0007:0000126a       _CcPinMappedData@20        004ab26a f   cache:pinsup.obj
 0007:000013c0       _CcPinRead@24              004ab3c0 f   cache:pinsup.obj
 0007:0000150a       _CcPreparePinWrite@28      004ab50a f   cache:pinsup.obj
 0007:0000165e       _CcMdlRead@20              004ab65e f   cache:mdlsup.obj
 0007:00001900       _CcMdlReadComplete2@8      004ab900 f   cache:mdlsup.obj
 0007:0000192c       _CcMdlReadComplete@8       004ab92c f   cache:mdlsup.obj
 0007:0000196a       _CcMdlWriteComplete@12     004ab96a f   cache:mdlsup.obj
 0007:000019aa       _CcUnmapVacb@12            004ab9aa f   cache:vacbsup.obj
 0007:000019e0       @CcCreateVacbArray@12      004ab9e0 f   cache:vacbsup.obj
 0007:00001b4e       _HvpFreeHiveFreeDisplay@4  004abb4e f   config:hivehint.obj
 0007:00001bac       _HvpAdjustBitmap@12        004abbac f   config:hivehint.obj
 0007:00001ca0       _HvpAddFreeCellHint@16     004abca0 f   config:hivehint.obj
 0007:00001d14       _HvpRemoveFreeCellHint@16  004abd14 f   config:hivehint.obj
 0007:00001e52       _HvpFindFreeCellInBin@20   004abe52 f   config:hivehint.obj
 0007:00001f58       _HvpScanForFreeCellInViewWindow@20 004abf58 f   config:hivehint.obj
 0007:0000216c       _HvpFindFreeCellInThisViewWindow@20 004ac16c f   config:hivehint.obj
 0007:00002282       _HvpCheckViewBoundary@8    004ac282 f   config:hivehint.obj
 0007:000022ac       _HvpAdjustHiveFreeDisplay@12 004ac2ac f   config:hivehint.obj
 0007:000022ea       _HvpFindFreeCell@20        004ac2ea f   config:hivehint.obj
 0007:000023ac       _CmpDestroyCmPrivateAlloc@0 004ac3ac f   config:cmalloc.obj
 0007:000023ac       _xHalEndOfBoot@0           004ac3ac f   ntoswrk:HALFNC.obj
 0007:000023ac       _CmpDestroyCmPrivateDelayAlloc@0 004ac3ac f   config:cmalloc.obj
 0007:000023b2       _CmpAllocateKeyControlBlock@0 004ac3b2 f   config:cmalloc.obj
 0007:00002524       _CmpFreeKeyControlBlock@4  004ac524 f   config:cmalloc.obj
 0007:0000261a       _CmpAllocateDelayItem@0    004ac61a f   config:cmalloc.obj
 0007:0000276a       _CmpFreeDelayItem@4        004ac76a f   config:cmalloc.obj
 0007:00002848       _CmRegisterCallback@12     004ac848 f   config:cmhook.obj
 0007:000028fe       _CmUnRegisterCallback@8    004ac8fe f   config:cmhook.obj
 0007:0000299c       _CmpInitCallback@0         004ac99c f   config:cmhook.obj
 0007:000029c2       _CmpCheckRecursionAndRecordThreadInfo@8 004ac9c2 f   config:cmhook.obj
 0007:00002a74       _CmpCallCallBacks@20       004aca74 f   config:cmhook.obj
 0007:00002bc2       _NtCreateKey@28            004acbc2 f   config:ntapi.obj
 0007:00002f1a       _NtDeleteKey@4             004acf1a f   config:ntapi.obj
 0007:00003090       _NtDeleteValueKey@8        004ad090 f   config:ntapi.obj
 0007:0000327c       _NtEnumerateKey@24         004ad27c f   config:ntapi.obj
 0007:000034b8       _NtEnumerateValueKey@24    004ad4b8 f   config:ntapi.obj
 0007:000036f4       _NtFlushKey@4              004ad6f4 f   config:ntapi.obj
 0007:00003882       _NtInitializeRegistry@4    004ad882 f   config:ntapi.obj
 0007:00003962       _NtOpenKey@12              004ad962 f   config:ntapi.obj
 0007:00003bd8       _NtQueryValueKey@24        004adbd8 f   config:ntapi.obj
 0007:00003eee       _NtRestoreKey@12           004adeee f   config:ntapi.obj
 0007:00003f8e       _NtSaveKey@8               004adf8e f   config:ntapi.obj
 0007:0000401c       _NtSaveKeyEx@12            004ae01c f   config:ntapi.obj
 0007:000040e6       _NtSaveMergedKeys@12       004ae0e6 f   config:ntapi.obj
 0007:0000419e       _NtSetValueKey@24          004ae19e f   config:ntapi.obj
 0007:00004470       _NtUnloadKey2@8            004ae470 f   config:ntapi.obj
 0007:000047b8       _NtUnloadKeyEx@8           004ae7b8 f   config:ntapi.obj
 0007:000049b8       _NtSetInformationKey@16    004ae9b8 f   config:ntapi.obj
 0007:00004d18       _NtQueryMultipleValueKey@24 004aed18 f   config:ntapi.obj
 0007:00004f04       _CmpNameFromAttributes@12  004aef04 f   config:ntapi.obj
 0007:000051be       _CmpFreePostBlock@4        004af1be f   config:ntapi.obj
 0007:00005224       _CmpAllocatePostBlock@16   004af224 f   config:ntapi.obj
 0007:00005340       _NtQueryOpenSubKeys@8      004af340 f   config:ntapi.obj
 0007:0000553a       _NtQueryOpenSubKeysEx@16   004af53a f   config:ntapi.obj
 0007:000057be       _NtRenameKey@8             004af7be f   config:ntapi.obj
 0007:00005982       _CmpKeyInfoProbeAlingment@4 004af982 f   config:ntapi.obj
 0007:000059a6       _NtCompactKeys@8           004af9a6 f   config:ntapi.obj
 0007:00005bfc       _NtCompressKey@4           004afbfc f   config:ntapi.obj
 0007:00005ca6       _NtLockRegistryKey@4       004afca6 f   config:ntapi.obj
 0007:00005d26       _NtNotifyChangeMultipleKeys@48 004afd26 f   config:ntapi.obj
 0007:00006764       _NtQueryKey@20             004b0764 f   config:ntapi.obj
 0007:000069f2       _NtLoadKeyEx@16            004b09f2 f   config:ntapi.obj
 0007:00006cae       _NtUnloadKey@4             004b0cae f   config:ntapi.obj
 0007:00006cc4       _NtReplaceKey@12           004b0cc4 f   config:ntapi.obj
 0007:00006dc0       _NtNotifyChangeKey@40      004b0dc0 f   config:ntapi.obj
 0007:00006df4       _NtLoadKey@8               004b0df4 f   config:ntapi.obj
 0007:00006e10       _NtLoadKey2@12             004b0e10 f   config:ntapi.obj
 0007:00006e2c       _HvpGetHCell@8             004b0e2c f   config:hivecell.obj
 0007:00006e56       _HvpReleaseCellMapped@8    004b0e56 f   config:hivecell.obj
 0007:00006f42       _HvpGetCellMapped@8        004b0f42 f   config:hivecell.obj
 0007:000072b4       _HvpGetCellPaged@8         004b12b4 f   config:hivecell.obj
 0007:00007318       _HvpDelistFreeCell@12      004b1318 f   config:hivecell.obj
 0007:00007374       _HvpGetCellFlat@8          004b1374 f   config:hivecell.obj
 0007:0000739c       _HvpGetCellMap@8           004b139c f   config:hivecell.obj
 0007:000073ec       _HvGetCellSize@8           004b13ec f   config:hivecell.obj
 0007:00007412       _HvpIsFreeNeighbor@20      004b1412 f   config:hivecell.obj
 0007:000074b8       _HvAutoCompressCheck@4     004b14b8 f   config:hivecell.obj
 0007:00007500       _HvShiftCell@8             004b1500 f   config:hivecell.obj
 0007:00007524       _HvTrackCellRef@12         004b1524 f   config:hivecell.obj
 0007:00007622       _HvReleaseFreeCellRefArray@4 004b1622 f   config:hivecell.obj
 0007:000076a8       _HvpEnlistFreeCell@20      004b16a8 f   config:hivecell.obj
 0007:00007a00       _HvpDoAllocateCell@16      004b1a00 f   config:hivecell.obj
 0007:00007ba2       _HvIsCellAllocated@8       004b1ba2 f   config:hivecell.obj
 0007:00007cac       _HvpDelistBinFreeCells@12  004b1cac f   config:hivecell.obj
 0007:00007d7e       _HvFreeCell@8              004b1d7e f   config:hivecell.obj
 0007:00007ed6       _HvReallocateCell@12       004b1ed6 f   config:hivecell.obj
 0007:00007fcc       _HvAllocateCell@16         004b1fcc f   config:hivecell.obj
 0007:00008038       _HvDuplicateCell@16        004b2038 f   config:hivecell.obj
 0007:00008122       _HvpGrowLog1@8             004b2122 f   config:hivesync.obj
 0007:000081e6       _HvpGrowLog2@8             004b21e6 f   config:hivesync.obj
 0007:00008274       _HvpFlushMappedData@8      004b2274 f   config:hivesync.obj
 0007:00008398       _HvpFindNextDirtyBlock@24  004b2398 f   config:hivesync.obj
 0007:00008574       _HvHiveWillShrink@4        004b2574 f   config:hivesync.obj
 0007:000085c4       _HvpTruncateBins@4         004b25c4 f   config:hivesync.obj
 0007:00008652       _HvpDropPagedBins@4        004b2652 f   config:hivesync.obj
 0007:0000884c       _HvpDropAllPagedBins@4     004b284c f   config:hivesync.obj
 0007:00008942       _HvWriteHive@16            004b2942 f   config:hivesync.obj
 0007:00008d66       _HvMarkDirty@16            004b2d66 f   config:hivesync.obj
 0007:00009208       _HvRefreshHive@4           004b3208 f   config:hivesync.obj
 0007:000098e8       _HvpDoWriteHive@8          004b38e8 f   config:hivesync.obj
 0007:00009c98       _HvpWriteLog@4             004b3c98 f   config:hivesync.obj
 0007:00009ff2       _HvMarkCellDirty@12        004b3ff2 f   config:hivesync.obj
 0007:0000a296       _HvSyncHive@4              004b4296 f   config:hivesync.obj
 0007:0000a352       _CmpUnmapCmView@16         004b4352 f   config:cmmapvw.obj
 0007:0000a412       _CmpTouchView@12           004b4412 f   config:cmmapvw.obj
 0007:0000a44e       _CmpUnmapCmViewSurroundingOffset@8 004b444e f   config:cmmapvw.obj
 0007:0000a4a4       _CmpAllocateCmView@4       004b44a4 f   config:cmmapvw.obj
 0007:0000a4fe       _CmpInitHiveViewList@4     004b44fe f   config:cmmapvw.obj
 0007:0000a53a       _CmpDestroyHiveViewList@4  004b453a f   config:cmmapvw.obj
 0007:0000a622       _CmpDropFileObjectForHive@4 004b4622 f   config:cmmapvw.obj
 0007:0000a6a2       _CmpAcquireFileObjectForFile@12 004b46a2 f   config:cmmapvw.obj
 0007:0000a7e4       _CmpPinCmView@8            004b47e4 f   config:cmmapvw.obj
 0007:0000a898       _CmpFreeCmView@4           004b4898 f   config:cmmapvw.obj
 0007:0000a8c6       _CmpFixHiveUsageCount@4    004b48c6 f   config:cmmapvw.obj
 0007:0000a966       _CmpPrefetchHiveFile@8     004b4966 f   config:cmmapvw.obj
 0007:0000a9fa       _CmpUnmapUnusedViews@4     004b49fa f   config:cmmapvw.obj
 0007:0000ab50       _CmPrefetchHivePages@8     004b4b50 f   config:cmmapvw.obj
 0007:0000ac3a       _CmpReferenceHiveView@8    004b4c3a f   config:cmmapvw.obj
 0007:0000ac5a       _CmpDereferenceHiveView@8  004b4c5a f   config:cmmapvw.obj
 0007:0000ac7a       _CmpDereferenceHiveViewWithLock@8 004b4c7a f   config:cmmapvw.obj
 0007:0000ad16       _CmpMapCmView@16           004b4d16 f   config:cmmapvw.obj
 0007:0000af4e       _CmpMapThisBin@12          004b4f4e f   config:cmmapvw.obj
 0007:0000af8e       _CmpUnPinCmView@16         004b4f8e f   config:cmmapvw.obj
 0007:0000b1aa       _CmpWmiDumpKcbTable@0      004b51aa f   config:cmwmi.obj
 0007:0000b28e       _CmpWmiDumpKcb@4           004b528e f   config:cmwmi.obj
 0007:0000b2d2       _CmSetTraceNotifyRoutine@8 004b52d2 f   config:cmwmi.obj
 0007:0000b2fc       _CmDeleteKey@4             004b52fc f   config:cmapi2.obj
 0007:0000b486       _CmpLockRegistry@0         004b5486 f   config:cmsubs3.obj
 0007:0000b4b2       _CmpLockRegistryExclusive@0 004b54b2 f   config:cmsubs3.obj
 0007:0000b4ce       _CmpUnlockRegistry@0       004b54ce f   config:cmsubs3.obj
 0007:0000b530       _CmpTryToLockHashEntryByIndexExclusive@4 004b5530 f   config:cmsubs3.obj
 0007:0000b57c       _CmpLockTwoHashEntriesExclusive@8 004b557c f   config:cmsubs3.obj
 0007:0000b6e6       _CmpLockTwoHashEntriesShared@8 004b56e6 f   config:cmsubs3.obj
 0007:0000b79c       _CmpUnlockTwoHashEntries@8 004b579c f   config:cmsubs3.obj
 0007:0000b8ee       _CmpKCBLockForceAcquireAllowed@12 004b58ee f   config:cmsubs3.obj
 0007:0000b932       _CmDeleteValueKey@12       004b5932 f   config:cmapi.obj
 0007:0000bcac       _CmEnumerateKey@24         004b5cac f   config:cmapi.obj
 0007:0000c0b0       _CmEnumerateValueKey@24    004b60b0 f   config:cmapi.obj
 0007:0000c86c       _CmQueryKey@20             004b686c f   config:cmapi.obj
 0007:0000cac2       _CmQueryValueKey@28        004b6ac2 f   config:cmapi.obj
 0007:0000cffa       _CmQueryMultipleValueKey@24 004b6ffa f   config:cmapi.obj
 0007:0000d432       _CmpSetValueKeyExisting@32 004b7432 f   config:cmapi.obj
 0007:0000d6aa       _CmpSetValueKeyNew@36      004b76aa f   config:cmapi.obj
 0007:0000d7ec       _CmSetLastWriteTimeKey@8   004b77ec f   config:cmapi.obj
 0007:0000d9ae       _CmSetKeyUserFlags@8       004b79ae f   config:cmapi.obj
 0007:0000dbb0       _CmpIsHiveAlreadyLoaded@12 004b7bb0 f   config:cmapi.obj
 0007:0000dc60       _CmLoadKey@16              004b7c60 f   config:cmapi.obj
 0007:0000e18a       _CmpDoFlushAll@4           004b818a f   config:cmapi.obj
 0007:0000e2b2       _CmpDoFlushNextHive@12     004b82b2 f   config:cmapi.obj
 0007:0000e4a0       _CmRenameKey@16            004b84a0 f   config:cmapi.obj
 0007:0000e8f6       _CmpDuplicateKey@12        004b88f6 f   config:cmapi.obj
 0007:0000e9f8       _CmpCompressKeyWorker@12   004b89f8 f   config:cmapi.obj
 0007:0000ea50       _CmCompressKey@4           004b8a50 f   config:cmapi.obj
 0007:0000ebc0       _CmLockKcbForWrite@4       004b8bc0 f   config:cmapi.obj
 0007:0000ed46       _CmpCompareNewValueDataAgainstKCBCache@20 004b8d46 f   config:cmapi.obj
 0007:0000eeea       _CmFlushKey@8              004b8eea f   config:cmapi.obj
 0007:0000f1c2       _CmSetValueKey@20          004b91c2 f   config:cmapi.obj
 0007:0000f78c       _CmUnloadKey@12            004b978c f   config:cmapi.obj
 0007:0000f9fe       _CmUnloadKeyEx@8           004b99fe f   config:cmapi.obj
 0007:0000fa72       _CmMoveKey@4               004b9a72 f   config:cmapi.obj
 0007:0000fec4       _CmpDumpOneKeyBody@16      004b9ec4 f   config:cmsubs.obj
 0007:0001000a       _CmpFlushNotifiesOnKeyBodyList@8 004ba00a f   config:cmsubs.obj
 0007:000100c8       _CmpComputeKcbConvKey@4    004ba0c8 f   config:cmsubs.obj
 0007:00010150       _CmpReferenceKeyControlBlock@4 004ba150 f   config:cmsubs.obj
 0007:0001042a       _CmpGetNameControlBlock@8  004ba42a f   config:cmsubs.obj
 0007:00010740       _CmpDereferenceNameControlBlockWithLock@4 004ba740 f   config:cmsubs.obj
 0007:0001081e       _CmpCleanUpSubKeyInfo@4    004ba81e f   config:cmsubs.obj
 0007:00010882       _CmpCleanUpKcbValueCache@4 004ba882 f   config:cmsubs.obj
 0007:00010906       _CmpConstructName@4        004ba906 f   config:cmsubs.obj
 0007:00010a9c       _CmpFreeKeyBody@8          004baa9c f   config:cmsubs.obj
 0007:00010afe       _CmpInsertKeyHash@8        004baafe f   config:cmsubs.obj
 0007:00010b7c       _CmpRemoveKeyHash@4        004bab7c f   config:cmsubs.obj
 0007:00010bc6       _CmpInitializeCache@0      004babc6 f   config:cmsubs.obj
 0007:00010c8a       _InitializeKCBKeyBodyList@4 004bac8a f   config:cmsubs.obj
 0007:00010cac       _EnlistKeyBodyWithKCB@8    004bacac f   config:cmsubs.obj
 0007:00010e7a       _DelistKeyBodyFromKCB@8    004bae7a f   config:cmsubs.obj
 0007:00010fc6       _CmpDumpKeyBodyList@12     004bafc6 f   config:cmsubs.obj
 0007:000110aa       _CmpRehashKcbSubtree@8     004bb0aa f   config:cmsubs.obj
 0007:00011116       _CmpRebuildKcbCache@4      004bb116 f   config:cmsubs.obj
 0007:00011184       _CmpRemoveKeyControlBlock@4 004bb184 f   config:cmsubs.obj
 0007:0001119c       _CmpCleanUpKcbCacheWithLock@8 004bb19c f   config:cmsubs.obj
 0007:00011206       _CmpSearchKeyControlBlockTree@12 004bb206 f   config:cmsubs.obj
 0007:00011388       _CmpDereferenceKeyControlBlockWithLock@8 004bb388 f   config:cmsubs.obj
 0007:000113dc       _CmpCleanUpKCBCacheTable@8 004bb3dc f   config:cmsubs.obj
 0007:0001156a       _CmpSearchForOpenSubKeys@16 004bb56a f   config:cmsubs.obj
 0007:000117f6       _CmpCreateKeyControlBlock@24 004bb7f6 f   config:cmsubs.obj
 0007:00011bbc       _CmpDereferenceKeyControlBlock@4 004bbbbc f   config:cmsubs.obj
 0007:00011cca       _CmpCmdHiveClose@4         004bbcca f   config:cmworker.obj
 0007:00011dc4       _CmpCmdRenameHive@16       004bbdc4 f   config:cmworker.obj
 0007:00011e6c       _CmpCmdHiveOpen@20         004bbe6c f   config:cmworker.obj
 0007:00011ef6       _CmpLazyFlush@0            004bbef6 f   config:cmworker.obj
 0007:00011f34       _CmpDiskFullWarningWorker@4 004bbf34 f   config:cmworker.obj
 0007:00011f60       _CmpDiskFullWarning@0      004bbf60 f   config:cmworker.obj
 0007:00011fb6       _CmSetLazyFlushState@4     004bbfb6 f   config:cmworker.obj
 0007:00011fd4       _CmpLazyFlushWorker@4      004bbfd4 f   config:cmworker.obj
 0007:000120f4       _CmpCmdInit@4              004bc0f4 f   config:cmworker.obj
 0007:00012196       _CmQueryRegistryQuotaInformation@4 004bc196 f   config:cmgquota.obj
 0007:000121c0       _CmSetRegistryQuotaInformation@4 004bc1c0 f   config:cmgquota.obj
 0007:00012212       _CmpClaimGlobalQuota@4     004bc212 f   config:cmgquota.obj
 0007:0001222c       _CmpReleaseGlobalQuota@4   004bc22c f   config:cmgquota.obj
 0007:0001225e       _CmpSetGlobalQuotaAllowed@0 004bc25e f   config:cmgquota.obj
 0007:0001226e       _CmpSystemQuotaWarningWorker@4 004bc26e f   config:cmgquota.obj
 0007:0001229a       _CmpSystemHiveHysteresisWorker@4 004bc29a f   config:cmgquota.obj
 0007:000122c8       _CmpUpdateSystemHiveHysteresis@12 004bc2c8 f   config:cmgquota.obj
 0007:00012398       _CmRegisterSystemHiveLimitCallback@16 004bc398 f   config:cmgquota.obj
 0007:00012422       _CmpRaiseSelfHealWarningWorker@4 004bc422 f   config:cmgquota.obj
 0007:00012518       _CmpRaiseSelfHealWarning@4 004bc518 f   config:cmgquota.obj
 0007:00012656       _CmpRaiseSelfHealWarningForSystemHives@0 004bc656 f   config:cmgquota.obj
 0007:000126a4       _CmpCanGrowSystemHive@8    004bc6a4 f   config:cmgquota.obj
 0007:00012742       _CmpLinkHiveToMaster@20    004bc742 f   config:cmsysini.obj
 0007:00012814       _CmpInterlockedFunction@8  004bc814 f   config:cmsysini.obj
 0007:0001295c       _CmpConfigureProcessors@0  004bc95c f   config:cmsysini.obj
 0007:00012996       _CmpInitHiveFromFile@20    004bc996 f   config:cmsysini.obj
 0007:00012bca       _CmpSaveBootControlSet@4   004bcbca f   config:cmsysini.obj
 0007:00012ed2       _CmpLinkKeyToHive@8        004bced2 f   config:cmsysini.obj
 0007:00012f72       _CmpCreatePredefined@12    004bcf72 f   config:cmsysini.obj
 0007:00013000       _CmpSetupPrivateWrite@4    004bd000 f   config:cmsysini.obj
 0007:00013074       _CmpMarkCurrentValueDirty@8 004bd074 f   config:cmsysini.obj
 0007:0001312e       _CmBootLastKnownGood@4     004bd12e f   config:cmsysini.obj
 0007:000131ae       _CmpCreatePerfKeys@0       004bd1ae f   config:cmsysini.obj
 0007:00013324       _CmpLoadHiveThread@4       004bd324 f   config:cmsysini.obj
 0007:0001391c       _CmpInitializeHiveList@0   004bd91c f   config:cmsysini.obj
 0007:00013bd2       _CmpRefreshWorkerRoutine@12 004bdbd2 f   config:cmsavres.obj
 0007:00013bfc       _CmpRefreshHive@4          004bdbfc f   config:cmsavres.obj
 0007:00013cb8       _CmDumpKey@8               004bdcb8 f   config:cmsavres.obj
 0007:00013f2c       _CmpSaveKeyByFileCopy@8    004bdf2c f   config:cmsavres.obj
 0007:00014158       _CmpCreateTemporaryHive@4  004be158 f   config:cmsavres.obj
 0007:00014186       _CmpDestroyTemporaryHive@4 004be186 f   config:cmsavres.obj
 0007:00014292       _CmpOverwriteHive@12       004be292 f   config:cmsavres.obj
 0007:00014418       _CmpSwitchStorageAndRebuildMappings@8 004be418 f   config:cmsavres.obj
 0007:000145a4       _CmpShiftIndex@8           004be5a4 f   config:cmsavres.obj
 0007:00014694       _CmpShiftValueList@12      004be694 f   config:cmsavres.obj
 0007:00014774       _CmpShiftSecurityCells@4   004be774 f   config:cmsavres.obj
 0007:000147be       _CmpLoadHiveVolatile@8     004be7be f   config:cmsavres.obj
 0007:00014a54       _CmSaveKey@12              004bea54 f   config:cmsavres.obj
 0007:00014e24       _CmSaveMergedKeys@12       004bee24 f   config:cmsavres.obj
 0007:00015180       _CmpShiftKey@16            004bf180 f   config:cmsavres.obj
 0007:0001521e       _CmRestoreKey@12           004bf21e f   config:cmsavres.obj
 0007:000156b0       _CmpShiftAllCells2@16      004bf6b0 f   config:cmsavres.obj
 0007:00015824       _CmpShiftAllCells@8        004bf824 f   config:cmsavres.obj
 0007:000158de       _CmpShiftHiveFreeBins@8    004bf8de f   config:cmsavres.obj
 0007:000159ca       _CmpDummyApc@12            004bf9ca f   config:cmnotify.obj
 0007:000159d2       _CmpNotifyTriggerCheck@12  004bf9d2 f   config:cmnotify.obj
 0007:00015a08       _CmpFreeSlavePost@4        004bfa08 f   config:cmnotify.obj
 0007:00015a3e       _CmpAddToDelayedDeref@8    004bfa3e f   config:cmnotify.obj
 0007:00015a6a       _CmpDelayedDerefKeys@4     004bfa6a f   config:cmnotify.obj
 0007:00015b36       _CmpPostApc@20             004bfb36 f   config:cmnotify.obj
 0007:00015c84       _CmpPostApcRunDown@4       004bfc84 f   config:cmnotify.obj
 0007:00015d5a       _CmpCancelSlavePost@8      004bfd5a f   config:cmnotify.obj
 0007:00015d8e       _CmpPostNotify@24          004bfd8e f   config:cmnotify.obj
 0007:0001601a       _CmNotifyRunDown@4         004c001a f   config:cmnotify.obj
 0007:000161c2       _CmpFlushNotify@8          004c01c2 f   config:cmnotify.obj
 0007:000162c6       _CmpNotifyChangeKey@28     004c02c6 f   config:cmnotify.obj
 0007:00016446       _CmpReportNotifyHelper@20  004c0446 f   config:cmnotify.obj
 0007:00016570       _CmpReportNotify@16        004c0570 f   config:cmnotify.obj
 0007:00016602       _HvpEnlistFreeCells@12     004c0602 f   config:hivemap.obj
 0007:00016762       _HvpFreeMap@16             004c0762 f   config:hivemap.obj
 0007:000167ac       _HvpAllocateMap@16         004c07ac f   config:hivemap.obj
 0007:00016808       _HvpGetBinMemAlloc@12      004c0808 f   config:hivemap.obj
 0007:00016846       _HvpBuildMapAndCopy@8      004c0846 f   config:hivemap.obj
 0007:00016a90       _HvpInitMap@4              004c0a90 f   config:hivemap.obj
 0007:00016bea       _HvpEnlistBinInMap@20      004c0bea f   config:hivemap.obj
 0007:00016ce2       _HvpCleanMap@4             004c0ce2 f   config:hivemap.obj
 0007:00016d56       _HvpBuildMap@8             004c0d56 f   config:hivemap.obj
 0007:00016e7c       _HvpCoalesceDiscardedBins@12 004c0e7c f   config:hivebin.obj
 0007:0001708c       _HvpAddBin@12              004c108c f   config:hivebin.obj
 0007:000177a6       _HvFreeHive@4              004c17a6 f   config:hivefree.obj
 0007:000178f8       _HvFreeHivePartial@12      004c18f8 f   config:hivefree.obj
 0007:00017a64       _CmpAllocate@12            004c1a64 f   config:cmwrapr.obj
 0007:00017aae       _CmpFree@8                 004c1aae f   config:cmwrapr.obj
 0007:00017b16       _CmpDoFileSetSize@16       004c1b16 f   config:cmwrapr.obj
 0007:00017c3a       _CmpCreateEvent@12         004c1c3a f   config:cmwrapr.obj
 0007:00017cae       _CmpFileRead@20            004c1cae f   config:cmwrapr.obj
 0007:00017dcc       _CmpFileWriteThroughCache@16 004c1dcc f   config:cmwrapr.obj
 0007:00017e96       _CmpFileWrite@20           004c1e96 f   config:cmwrapr.obj
 0007:0001813c       _CmpFileFlush@16           004c213c f   config:cmwrapr.obj
 0007:000181b8       _HvpHeaderCheckSum@4       004c21b8 f   config:hivesum.obj
 0007:000181e2       _CmpCheckValueList@16      004c21e2 f   config:cmchek.obj
 0007:000184cc       _CmpCheckLexicographicalOrder@12 004c24cc f   config:cmchek.obj
 0007:000185b4       _CmpLogError@4             004c25b4 f   config:cmchek.obj
 0007:000185da       _CmpCheckKey@20            004c25da f   config:cmchek.obj
 0007:00018b78       _CmpCheckRegistry2@20      004c2b78 f   config:cmchek.obj
 0007:00018d0c       _CmCheckRegistry@8         004c2d0c f   config:cmchek.obj
 0007:00018d90       _CmpSecConvKey@8           004c2d90 f   config:cmsecache.obj
 0007:00018dc0       _CmpInitSecurityCache@4    004c2dc0 f   config:cmsecache.obj
 0007:00018dfe       _CmpFindSecurityCellCacheIndex@12 004c2dfe f   config:cmsecache.obj
 0007:00018ef4       _CmpAdjustSecurityCacheSize@4 004c2ef4 f   config:cmsecache.obj
 0007:00018f88       _CmpRemoveFromSecurityCache@8 004c2f88 f   config:cmsecache.obj
 0007:00019006       _CmpDestroySecurityCache@4 004c3006 f   config:cmsecache.obj
 0007:00019084       _CmpFindReusableCellFromCache@12 004c3084 f   config:cmsecache.obj
 0007:00019174       _CmpFindMatchingDescriptorCell@20 004c3174 f   config:cmsecache.obj
 0007:00019206       _CmpAssignSecurityToKcb@12 004c3206 f   config:cmsecache.obj
 0007:000192b6       _CmpBuildSecurityCellMappingArray@4 004c32b6 f   config:cmsecache.obj
 0007:00019348       _CmpAddSecurityCellToCache@16 004c3348 f   config:cmsecache.obj
 0007:0001950a       _CmpRebuildSecurityCache@4 004c350a f   config:cmsecache.obj
 0007:000195e4       _HvCheckBin@12             004c35e4 f   config:hivechek.obj
 0007:000196b2       _HvCheckHive@8             004c36b2 f   config:hivechek.obj
 0007:00019838       _CmpMarkKeyDirty@8         004c3838 f   config:cmtredel.obj
 0007:000199d4       _CmpFreeKeyByCell@12       004c39d4 f   config:cmtredel.obj
 0007:00019b18       _CmpDeleteTree@8           004c3b18 f   config:cmtredel.obj
 0007:00019bb6       _CmpFindNameInList@20      004c3bb6 f   config:cmvalue.obj
 0007:00019ccc       _CmpGetValueData@24        004c3ccc f   config:cmvalue.obj
 0007:00019e82       _CmpValueToData@12         004c3e82 f   config:cmvalue.obj
 0007:00019ed6       _CmpAddValueToList@20      004c3ed6 f   config:cmvalue.obj
 0007:00019f8a       _CmpRemoveValueFromList@12 004c3f8a f   config:cmvalue.obj
 0007:0001a00e       _CmpMarkValueDataDirty@8   004c400e f   config:cmvalue.obj
 0007:0001a122       _CmpFreeValueData@12       004c4122 f   config:cmvalue.obj
 0007:0001a1e6       _CmpFreeValue@8            004c41e6 f   config:cmvalue.obj
 0007:0001a236       _CmpSetValueDataNew@24     004c4236 f   config:cmvalue.obj
 0007:0001a500       _CmpSetValueDataExisting@20 004c4500 f   config:cmvalue.obj
 0007:0001a712       _CmpFindValueByName@12     004c4712 f   config:cmvalue.obj
 0007:0001a73a       _CmpQueryKeyData@24        004c473a f   config:cmsubs2.obj
 0007:0001a9ba       _CmpQueryKeyDataFromCache@20 004c49ba f   config:cmsubs2.obj
 0007:0001aab8       _CmpQueryKeyValueData@36   004c4ab8 f   config:cmsubs2.obj
 0007:0001aece       _CmpDoCompareKeyName@12    004c4ece f   config:cmindex.obj
 0007:0001af4a       _CmpDoFindSubKeyByNumber@12 004c4f4a f   config:cmindex.obj
 0007:0001b012       _CmpRemoveSubKeyCellNoCellRef@12 004c5012 f   config:cmindex.obj
 0007:0001b23c       _CmpSplitLeaf@16           004c523c f   config:cmindex.obj
 0007:0001b42c       _CmpDuplicateIndex@12      004c542c f   config:cmindex.obj
 0007:0001b570       _CmpComputeHashKey@8       004c5570 f   config:cmindex.obj
 0007:0001b5ca       _CmpComputeHashKeyForCompressedName@12 004c55ca f   config:cmindex.obj
 0007:0001b61c       _CmpFindSubKeyByHash@12    004c561c f   config:cmindex.obj
 0007:0001b674       _CmpCompareInIndex@20      004c5674 f   config:cmindex.obj
 0007:0001b7a4       _CmpFindSubKeyByNumber@12  004c57a4 f   config:cmindex.obj
 0007:0001b81e       _CmpUpdateParentForEachSon@8 004c581e f   config:cmindex.obj
 0007:0001b8ce       _CmpFindSubKeyInRoot@16    004c58ce f   config:cmindex.obj
 0007:0001ba56       _CmpFindSubKeyInLeaf@16    004c5a56 f   config:cmindex.obj
 0007:0001bb0a       _CmpAddToLeaf@16           004c5b0a f   config:cmindex.obj
 0007:0001bcd8       _CmpSelectLeaf@20          004c5cd8 f   config:cmindex.obj
 0007:0001bf42       _CmpMarkIndexDirty@12      004c5f42 f   config:cmindex.obj
 0007:0001c142       _CmpRemoveSubKey@12        004c6142 f   config:cmindex.obj
 0007:0001c3a2       _CmpFindSubKeyByName@12    004c63a2 f   config:cmindex.obj
 0007:0001c48c       _CmpAddSubKey@12           004c648c f   config:cmindex.obj
 0007:0001c7dc       _CmpGetValueListFromCache@16 004c67dc f   config:cmtree.obj
 0007:0001c8d6       _CmpGetValueKeyFromCache@32 004c68d6 f   config:cmtree.obj
 0007:0001ca56       _CmpFindValueByNameFromCache@28 004c6a56 f   config:cmtree.obj
 0007:0001cbcc       _CmpGetValueDataFromCache@28 004c6bcc f   config:cmtree.obj
 0007:0001cd4c       _CmpNameSize@8             004c6d4c f   config:cmname.obj
 0007:0001cd90       _CmpCopyName@12            004c6d90 f   config:cmname.obj
 0007:0001cdfa       _CmpCompressedNameSize@8   004c6dfa f   config:cmname.obj
 0007:0001ce0c       _CmpCopyCompressedName@16  004c6e0c f   config:cmname.obj
 0007:0001ce42       _CmpCompareCompressedName@16 004c6e42 f   config:cmname.obj
 0007:0001cef4       _CmpCompareUnicodeString@12 004c6ef4 f   config:cmname.obj
 0007:0001cfa8       _CmpCompareTwoCompressedNames@16 004c6fa8 f   config:cmname.obj
 0007:0001d0c4       _CmpRemoveFromHiveFileList@4 004c70c4 f   config:cmhvlist.obj
 0007:0001d152       _CmpGetHiveName@8          004c7152 f   config:cmhvlist.obj
 0007:0001d336       _CmpAddToHiveFileList@4    004c7336 f   config:cmhvlist.obj
 0007:0001d458       _CmpLateUnloadHiveWorker@4 004c7458 f   config:cmdelete.obj
 0007:0001d4be       _CmpDoQueueLateUnloadWorker@4 004c74be f   config:cmdelete.obj
 0007:0001d578       _CmpDeleteKeyObject@4      004c7578 f   config:cmdelete.obj
 0007:0001d694       _CmpSecurityExceptionFilter@4 004c7694 f   config:cmse.obj
 0007:0001d6bc       _CmpQuerySecurityDescriptorInfo@20 004c76bc f   config:cmse.obj
 0007:0001d6e6       _CmpCheckCreateAccess@24   004c76e6 f   config:cmse.obj
 0007:0001d73a       _CmpCheckNotifyAccess@12   004c773a f   config:cmse.obj
 0007:0001d81e       _CmpGetKeySecurity@12      004c781e f   config:cmse.obj
 0007:0001d844       _CmpHiveRootSecurityDescriptor@0 004c7844 f   config:cmse.obj
 0007:0001db56       _CmpInsertSecurityCellList@12 004c7b56 f   config:cmse.obj
 0007:0001dcb8       _CmpRemoveSecurityCellList@8 004c7cb8 f   config:cmse.obj
 0007:0001dd48       _CmpCheckKeyAccess@16      004c7d48 f   config:cmse.obj
 0007:0001de80       _CmpDoAccessCheckOnSubtree@20 004c7e80 f   config:cmse.obj
 0007:0001df68       _CmpSetSecurityDescriptorInfo@24 004c7f68 f   config:cmse.obj
 0007:0001e498       _CmpAssignSecurityDescriptor@16 004c8498 f   config:cmse.obj
 0007:0001e5b2       _CmpFreeSecurityDescriptor@8 004c85b2 f   config:cmse.obj
 0007:0001e624       _CmpAssignSecurityDescriptorWrapper@8 004c8624 f   config:cmse.obj
 0007:0001e6c8       _CmpSecurityMethod@32      004c86c8 f   config:cmse.obj
 0007:0001ea6a       _CmpCopyCell@16            004c8a6a f   config:cmtrecpy.obj
 0007:0001eb10       _CmpInitializeKeyNameString@12 004c8b10 f   config:cmtrecpy.obj
 0007:0001eb76       _CmpInitializeValueNameString@12 004c8b76 f   config:cmtrecpy.obj
 0007:0001ebd8       _CmpSyncSubKeysAfterDelete@20 004c8bd8 f   config:cmtrecpy.obj
 0007:0001ec72       _CmpMarkKeyValuesDirty@12  004c8c72 f   config:cmtrecpy.obj
 0007:0001ede0       _CmpMarkKeyParentDirty@8   004c8de0 f   config:cmtrecpy.obj
 0007:0001ee2e       _CmpCopyValue@16           004c8e2e f   config:cmtrecpy.obj
 0007:0001f070       _CmpFreeKeyValues@12       004c9070 f   config:cmtrecpy.obj
 0007:0001f118       _CmpSyncKeyValues@24       004c9118 f   config:cmtrecpy.obj
 0007:0001f526       _CmpCopyKeyPartial@20      004c9526 f   config:cmtrecpy.obj
 0007:0001f880       _CmpMergeKeyValues@24      004c9880 f   config:cmtrecpy.obj
 0007:0001fa40       _CmpCopySyncTree2@28       004c9a40 f   config:cmtrecpy.obj
 0007:0001fddc       _CmpCopySyncTree@24        004c9ddc f   config:cmtrecpy.obj
 0007:0001fe46       _CmpInitializeHive@40      004c9e46 f   config:cminit.obj
 0007:00020230       _CmpDestroyHive@8          004ca230 f   config:cminit.obj
 0007:0002033c       _CmpOpenFileWithExtremePrejudice@16 004ca33c f   config:cminit.obj
 0007:000203d8       _CmpOpenHiveFiles@40       004ca3d8 f   config:cminit.obj
 0007:000207d0       _CmpArmDelayedCloseTimer@0 004ca7d0 f   config:cmdelay.obj
 0007:00020802       _CmpRemoveFromDelayedClose@4 004ca802 f   config:cmdelay.obj
 0007:000208f2       _CmpAddToDelayedClose@8    004ca8f2 f   config:cmdelay.obj
 0007:00020a02       _CmpRunDownDelayDerefKCBEngine@8 004caa02 f   config:cmdelay.obj
 0007:00020cd2       _CmpDelayDerefKCBWorker@4  004cacd2 f   config:cmdelay.obj
 0007:00020e5e       _CmpDelayDerefKeyControlBlock@4 004cae5e f   config:cmdelay.obj
 0007:00020f6c       _CmpInitDelayDerefKCBEngine@0 004caf6c f   config:cmdelay.obj
 0007:00020fd6       _CmpInitializeDelayedCloseTable@0 004cafd6 f   config:cmdelay.obj
 0007:00021040       _CmpQueryKeyName@24        004cb040 f   config:cmquery.obj
 0007:00021288       _CmpGetNextName@12         004cb288 f   config:cmparse.obj
 0007:00021330       _CmpComputeHashValue@16    004cb330 f   config:cmparse.obj
 0007:00021438       _CmpAddInfoAfterParseFailure@20 004cb438 f   config:cmparse.obj
 0007:00021728       _CmpOKToFollowLink@8       004cb728 f   config:cmparse.obj
 0007:000217fe       _CmpBuildAndLockKcbArray@24 004cb7fe f   config:cmparse.obj
 0007:000219d4       _CmpUnLockKcbArray@8       004cb9d4 f   config:cmparse.obj
 0007:00021a4a       _CmpDoOpen@56              004cba4a f   config:cmparse.obj
 0007:00021dca       _CmpCreateLinkNode@44      004cbdca f   config:cmparse.obj
 0007:00022166       _CmpGetSymbolicLink@16     004cc166 f   config:cmparse.obj
 0007:000228aa       _CmpCacheLookup@32         004cc8aa f   config:cmparse.obj
 0007:00022e16       _CmpBuildHashStackAndLookupCache@40 004cce16 f   config:cmparse.obj
 0007:00022f04       _CmpParseKey@40            004ccf04 f   config:cmparse.obj
 0007:00023794       _CmpCloseKeyObject@20      004cd794 f   config:cmclose.obj
 0007:000238a2       _CmpFindControlSet@16      004cd8a2 f   config:cmboot.obj
 0007:00023acc       _CmpFileSetSize@16         004cdacc f   config:cmwrapr2.obj
 0007:00023aee       _HvpReadFileImageAndBuildMap@8 004cdaee f   config:hiveload.obj
 0007:00023e60       _HvpGetHiveHeader@12       004cde60 f   config:hiveload.obj
 0007:00023f94       _HvpGetLogHeader@12        004cdf94 f   config:hiveload.obj
 0007:000240ca       _HvpMapFileImageAndBuildMap@8 004ce0ca f   config:hiveload.obj
 0007:000242cc       _HvpRecoverWholeHive@8     004ce2cc f   config:hiveload.obj
 0007:000244d4       _HvCloneHive@12            004ce4d4 f   config:hiveload.obj
 0007:0002467c       _HvShrinkHive@8            004ce67c f   config:hiveload.obj
 0007:0002476a       _HvpRecoverData@4          004ce76a f   config:hiveload.obj
 0007:00024f00       _HvMapHive@4               004cef00 f   config:hiveload.obj
 0007:000250b6       _HvLoadHive@4              004cf0b6 f   config:hiveload.obj
 0007:000251fa       _CmpValidateHiveSecurityDescriptors@8 004cf1fa f   config:cmchek2.obj
 0007:00025336       _HvpFreeAllocatedBins@4    004cf336 f   config:hiveinit.obj
 0007:000253bc       _HvpFillFileName@8         004cf3bc f   config:hiveinit.obj
 0007:00025410       _HvInitializeHive@52       004cf410 f   config:hiveinit.obj
 0007:00025876       _CmpDoCreateChild@44       004cf876 f   config:cmparse2.obj
 0007:00025c2c       _CmpDoCreate@36            004cfc2c f   config:cmparse2.obj
 0007:00025f5a       @ExfInitializeRundownProtection@4 004cff5a f   ex:rundown.obj
 0007:00025f64       @ExfReInitializeRundownProtection@4 004cff64 f   ex:rundown.obj
 0007:00025f6e       @ExfRundownCompleted@4     004cff6e f   ex:rundown.obj
 0007:00025f7a       @ExfWaitForRundownProtectionRelease@4 004cff7a f   ex:rundown.obj
 0007:00025ff8       _ExAllocateCacheAwareRundownProtection@8 004cfff8 f   ex:rundown.obj
 0007:000260be       _ExSizeOfRundownProtectionCacheAware@0 004d00be f   ex:rundown.obj
 0007:000260e4       _ExInitializeRundownProtectionCacheAware@8 004d00e4 f   ex:rundown.obj
 0007:00026154       _ExFreeCacheAwareRundownProtection@4 004d0154 f   ex:rundown.obj
 0007:00026178       _ExInitializePoolDescriptor@20 004d0178 f   ex:pool.obj
 0007:0002624c       _ExCreatePoolTagTable@8    004d024c f   ex:pool.obj
 0007:0002629e       _ExGetSessionPoolTagInfo@16 004d029e f   ex:pool.obj
 0007:0002634e       _ExDrainPoolLookasideList@4 004d034e f   ex:pool.obj
 0007:000263c4       _ExGetPoolTagInfo@12       004d03c4 f   ex:pool.obj
 0007:000264f0       _ExpAllocateStringRoutine@4 004d04f0 f   ex:pool.obj
 0007:0002650c       _ExCreateCallback@16       004d050c f   ex:callback.obj
 0007:000265cc       _ExInitializeCallBack@4    004d05cc f   ex:callback.obj
 0007:000265de       _ExAllocateCallBack@8      004d05de f   ex:callback.obj
 0007:0002660c       _SeFreePrivileges@4        004d060c f   ntosse:accessck.obj
 0007:0002660c       _PspExitApcRundown@4       004d060c f   ps:psdelete.obj
 0007:0002660c       _SepFreeCapturedString@4   004d060c f   ntosse:seaudit.obj
 0007:0002660c       _RtlpSysVolFree@4          004d060c f   ntosrtl:sysvol.obj
 0007:0002660c       _ExFreeCallBack@4          004d060c f   ex:callback.obj
 0007:00026622       _ExWaitForCallBacks@4      004d0622 f   ex:callback.obj
 0007:00026648       _ExCompareExchangeCallBack@12 004d0648 f   ex:callback.obj
 0007:00026718       _ExReferenceCallBackBlock@4 004d0718 f   ex:callback.obj
 0007:0002682e       _ExGetCallBackBlockRoutine@4 004d082e f   ex:callback.obj
 0007:0002682e       _IopGetRelationsTaggedCount@4 004d082e f   ntoswrk:PNPRLIST.obj
 0007:00026840       _ExGetCallBackBlockContext@4 004d0840 f   ex:callback.obj
 0007:00026852       _ExDereferenceCallBackBlock@8 004d0852 f   ex:callback.obj
 0007:0002689a       _ExInitializePagedLookasideList@28 004d089a f   ex:lookasid.obj
 0007:00026920       _ExpWin32SessionCallout@16 004d0920 f   ex:win32.obj
 0007:000269c0       _ExpWin32CloseProcedure@20 004d09c0 f   ex:win32.obj
 0007:00026a24       _ExpWin32OkayToCloseProcedure@16 004d0a24 f   ex:win32.obj
 0007:00026a94       _ExpWin32DeleteProcedure@4 004d0a94 f   ex:win32.obj
 0007:00026adc       _ExpWin32OpenProcedure@20  004d0adc f   ex:win32.obj
 0007:00026b4e       _ExpWin32ParseProcedure@40 004d0b4e f   ex:win32.obj
 0007:00026bb8       _ExpBlockOnLockedHandleEntry@8 004d0bb8 f   ex:handle.obj
 0007:00026c16       _ExUnlockHandleTableEntry@8 004d0c16 f i ex:handle.obj
 0007:00026c40       _ExRemoveHandleTable@4     004d0c40 f   ex:handle.obj
 0007:00026cc6       _ExpAllocateTablePagedPool@8 004d0cc6 f   ex:handle.obj
 0007:00026d20       _ExpAllocateTablePagedPoolNoZero@8 004d0d20 f   ex:handle.obj
 0007:00026d64       _ExpFreeTablePagedPool@12  004d0d64 f   ex:handle.obj
 0007:00026d8c       _ExReferenceHandleDebugInfo@4 004d0d8c f   ex:handle.obj
 0007:00026e06       _ExDereferenceHandleDebugInfo@8 004d0e06 f   ex:handle.obj
 0007:00026e54       _ExEnableHandleTracing@8   004d0e54 f   ex:handle.obj
 0007:00026fea       _ExpAllocateHandleTable@8  004d0fea f   ex:handle.obj
 0007:000270c8       _ExpFreeLowLevelTable@8    004d10c8 f   ex:handle.obj
 0007:000270fc       _ExpFreeHandleTable@4      004d10fc f   ex:handle.obj
 0007:000271e2       _ExpAllocateLowLevelTable@8 004d11e2 f   ex:handle.obj
 0007:0002723e       _ExpAllocateMidLevelTable@12 004d123e f   ex:handle.obj
 0007:0002728c       _ExpAllocateHandleTableEntrySlow@8 004d128c f   ex:handle.obj
 0007:000273d0       _ExpLookupHandleTableEntry@8 004d13d0 f   ex:handle.obj
 0007:0002743a       _ExpUpdateDebugInfo@16     004d143a f   ex:handle.obj
 0007:000275de       _ExpMoveFreeHandles@4      004d15de f   ex:handle.obj
 0007:000276ae       _ExpAllocateHandleTableEntry@8 004d16ae f   ex:handle.obj
 0007:00027892       _ExCreateHandleTable@4     004d1892 f   ex:handle.obj
 0007:00027930       _ExDestroyHandleTable@8    004d1930 f   ex:handle.obj
 0007:00027976       _ExSweepHandleTable@12     004d1976 f   ex:handle.obj
 0007:000279d6       _ExEnumHandleTable@16      004d19d6 f   ex:handle.obj
 0007:00027a9c       _ExSnapShotHandleTables@16 004d1a9c f   ex:handle.obj
 0007:00027bd8       _ExSnapShotHandleTablesEx@16 004d1bd8 f   ex:handle.obj
 0007:00027d14       _ExCreateHandle@8          004d1d14 f   ex:handle.obj
 0007:00027da2       _ExChangeHandle@16         004d1da2 f   ex:handle.obj
 0007:00027e4a       _ExMapHandleToPointer@8    004d1e4a f   ex:handle.obj
 0007:00027eda       _ExMapHandleToPointerEx@12 004d1eda f   ex:handle.obj
 0007:00027f9e       _ExSetHandleInfo@16        004d1f9e f   ex:handle.obj
 0007:000280ee       _ExpGetHandleInfo@12       004d20ee f   ex:handle.obj
 0007:00028168       _ExDupHandleTable@16       004d2168 f   ex:handle.obj
 0007:0002836e       _ExpFreeHandleTableEntry@12 004d236e f   ex:handle.obj
 0007:000283e4       _ExDestroyHandle@12        004d23e4 f   ex:handle.obj
 0007:000284c4       _NtClearEvent@4            004d24c4 f   ex:event.obj
 0007:00028512       _NtCreateEvent@20          004d2512 f   ex:event.obj
 0007:0002860c       _NtOpenEvent@12            004d260c f   ex:event.obj
 0007:000286bc       _NtPulseEvent@8            004d26bc f   ex:event.obj
 0007:00028780       _NtQueryEvent@20           004d2780 f   ex:event.obj
 0007:0002888e       _NtResetEvent@8            004d288e f   ex:event.obj
 0007:0002894a       _NtSetEvent@8              004d294a f   ex:event.obj
 0007:00028a08       _NtSetEventBoostPriority@4 004d2a08 f   ex:event.obj
 0007:00028a68       _ExpReadComPlusPackage@0   004d2a68 f   ex:sysinfo.obj
 0007:00028ade       _ExpUpdateComPlusPackage@4 004d2ade f   ex:sysinfo.obj
 0007:00028b4e       _NtQueryDefaultLocale@8    004d2b4e f   ex:sysinfo.obj
 0007:00028bc2       _NtQueryInstallUILanguage@4 004d2bc2 f   ex:sysinfo.obj
 0007:00028dd8       _ExpValidateLocale@4       004d2dd8 f   ex:sysinfo.obj
 0007:000290bc       _ExpQueryNumaProcessorMap@12 004d30bc f   ex:sysinfo.obj
 0007:0002913c       _ExpQueryNumaAvailableMemory@12 004d313c f   ex:sysinfo.obj
 0007:00029200       _ExpCopyProcessInfo@12     004d3200 f   ex:sysinfo.obj
 0007:0002936c       _ExpGetInstemulInformation@4 004d336c f   ex:sysinfo.obj
 0007:000294a8       _ExpQueryModuleInformation@20 004d34a8 f   ex:sysinfo.obj
 0007:00029672       _ExpQueryLegacyDriverInformation@8 004d3672 f   ex:sysinfo.obj
 0007:0002979c       _ExpIsValidUILanguage@4    004d379c f   ex:sysinfo.obj
 0007:000298a8       _ExpGetSystemFirmwareTableInformation@12 004d38a8 f   ex:sysinfo.obj
 0007:00029ace       _ExpRegisterFirmwareTableInformationHandler@12 004d3ace f   ex:sysinfo.obj
 0007:00029cee       _NtSetDefaultLocale@8      004d3cee f   ex:sysinfo.obj
 0007:0002a02c       _ExpGetUILanguagePolicy@8  004d402c f   ex:sysinfo.obj
 0007:0002a192       _ExpSetCurrentUserUILanguage@8 004d4192 f   ex:sysinfo.obj
 0007:0002a2f8       _ExpGetCurrentUserUILanguage@12 004d42f8 f   ex:sysinfo.obj
 0007:0002a4d8       _NtSetDefaultUILanguage@4  004d44d8 f   ex:sysinfo.obj
 0007:0002a516       _NtSetSystemInformation@12 004d4516 f   ex:sysinfo.obj
 0007:0002af62       _ExLockUserBuffer@24       004d4f62 f   ex:sysinfo.obj
 0007:0002b048       _ExGetSessionPoolTagInformation@16 004d5048 f   ex:sysinfo.obj
 0007:0002b18e       _ExpGetHandleInformation@12 004d518e f   ex:sysinfo.obj
 0007:0002b200       _ExpGetHandleInformationEx@12 004d5200 f   ex:sysinfo.obj
 0007:0002b272       _ExpGetObjectInformation@12 004d5272 f   ex:sysinfo.obj
 0007:0002b306       _NtQueryDefaultUILanguage@4 004d5306 f   ex:sysinfo.obj
 0007:0002b382       _NtQuerySystemInformation@16 004d5382 f   ex:sysinfo.obj
 0007:0002c68c       _NtShutdownSystem@4        004d668c f   ex:exinit.obj
 0007:0002c6c6       _ExSystemExceptionFilter@0 004d66c6 f   ex:exinit.obj
 0007:0002c6e0       _ExSwapinWorkerThreads@4   004d66e0 f   ex:worker.obj
 0007:0002c79a       _ExpCreateWorkerThread@8   004d679a f   ex:worker.obj
 0007:0002c856       _ExpCheckDynamicThreadCount@0 004d6856 f   ex:worker.obj
 0007:0002c890       _ExpDetectWorkerThreadDeadlock@0 004d6890 f   ex:worker.obj
 0007:0002c8da       _ExpWorkerThreadBalanceManager@4 004d68da f   ex:worker.obj
 0007:0002c9ba       _ExRaiseAccessViolation@0  004d69ba f   ex:raise.obj
 0007:0002c9ca       _ExRaiseDatatypeMisalignment@0 004d69ca f   ex:raise.obj
 0007:0002c9da       _ExpRaiseHardError@24      004d69da f   ex:harderr.obj
 0007:0002cbe2       _ExRaiseHardError@24       004d6be2 f   ex:harderr.obj
 0007:0002cd64       _NtSetDefaultHardErrorPort@4 004d6d64 f   ex:harderr.obj
 0007:0002cebc       _NtRaiseHardError@24       004d6ebc f   ex:harderr.obj
 0007:0002d08c       _NtCreateSemaphore@20      004d708c f   ex:semphore.obj
 0007:0002d17e       _NtOpenSemaphore@12        004d717e f   ex:semphore.obj
 0007:0002d22e       _NtQuerySemaphore@20       004d722e f   ex:semphore.obj
 0007:0002d35a       _NtReleaseSemaphore@12     004d735a f   ex:semphore.obj
 0007:0002d4e4       _ExpUuidLoadSequenceNumber@4 004d74e4 f   ex:uuid.obj
 0007:0002d614       _ExpUuidSaveSequenceNumber@4 004d7614 f   ex:uuid.obj
 0007:0002d69c       _ExpUuidSaveSequenceNumberIf@0 004d769c f   ex:uuid.obj
 0007:0002d6c4       _ExpAllocateUuids@12       004d76c4 f   ex:uuid.obj
 0007:0002d7fa       _NtSetUuidSeed@4           004d77fa f   ex:uuid.obj
 0007:0002d8ca       _NtAllocateUuids@16        004d78ca f   ex:uuid.obj
 0007:0002dab2       _ExpUuidGetValues@4        004d7ab2 f   ex:uuid.obj
 0007:0002db28       _ExUuidCreate@4            004d7b28 f   ex:uuid.obj
 0007:0002dcd4       _NtAddAtom@12              004d7cd4 f   ex:exatom.obj
 0007:0002de18       _NtFindAtom@12             004d7e18 f   ex:exatom.obj
 0007:0002df5c       _NtDeleteAtom@4            004d7f5c f   ex:exatom.obj
 0007:0002df82       _NtQueryInformationAtom@20 004d7f82 f   ex:exatom.obj
 0007:0002e0c8       _ExpDummyGetAtomTable@0    004d80c8 f   ex:exatom.obj
 0007:0002e0d0       _NtAllocateLocallyUniqueId@4 004d80d0 f   ex:luid.obj
 0007:0002e14e       _ProbeForWrite@12          004d814e f   ex:probe.obj
 0007:0002e1a8       _ProbeForRead@12           004d81a8 f   ex:probe.obj
 0007:0002e1e0       _NtCreateKeyedEvent@16     004d81e0 f   ex:keyedevent.obj
 0007:0002e2ca       _NtOpenKeyedEvent@12       004d82ca f   ex:keyedevent.obj
 0007:0002e37c       _NtReleaseKeyedEvent@16    004d837c f   ex:keyedevent.obj
 0007:0002e608       _NtWaitForKeyedEvent@16    004d8608 f   ex:keyedevent.obj
 0007:0002e892       _ExpProfileDelete@4        004d8892 f   ex:profile.obj
 0007:0002e8da       _NtCreateProfile@36        004d88da f   ex:profile.obj
 0007:0002eafa       _NtStartProfile@4          004d8afa f   ex:profile.obj
 0007:0002ec9c       _NtStopProfile@4           004d8c9c f   ex:profile.obj
 0007:0002ed52       _NtSetIntervalProfile@8    004d8d52 f   ex:profile.obj
 0007:0002ed6c       _NtQueryIntervalProfile@8  004d8d6c f   ex:profile.obj
 0007:0002edfa       _NtQueryPerformanceCounter@8 004d8dfa f   ex:profile.obj
 0007:0002eede       _NtCreateTimer@16          004d8ede f   ex:timer.obj
 0007:0002eff6       _NtOpenTimer@12            004d8ff6 f   ex:timer.obj
 0007:0002f0a6       _NtQueryTimer@20           004d90a6 f   ex:timer.obj
 0007:0002f1f8       _NtCreateMutant@16         004d91f8 f   ex:mutant.obj
 0007:0002f2cc       _NtOpenMutant@12           004d92cc f   ex:mutant.obj
 0007:0002f372       _NtQueryMutant@20          004d9372 f   ex:mutant.obj
 0007:0002f4a6       _NtReleaseMutant@8         004d94a6 f   ex:mutant.obj
 0007:0002f5a6       _NtCreateEventPair@12      004d95a6 f   ex:eventpr.obj
 0007:0002f67a       _NtOpenEventPair@12        004d967a f   ex:eventpr.obj
 0007:0002f72c       _NtWaitLowEventPair@4      004d972c f   ex:eventpr.obj
 0007:0002f78e       _NtWaitHighEventPair@4     004d978e f   ex:eventpr.obj
 0007:0002f7f0       _NtSetLowWaitHighEventPair@4 004d97f0 f   ex:eventpr.obj
 0007:0002f854       _NtSetHighWaitLowEventPair@4 004d9854 f   ex:eventpr.obj
 0007:0002f8b8       _NtSetLowEventPair@4       004d98b8 f   ex:eventpr.obj
 0007:0002f914       _NtSetHighEventPair@4      004d9914 f   ex:eventpr.obj
 0007:0002f970       _FsRtlInitializeTunnelCache@4 004d9970 f   fsrtl:Tunnel.obj
 0007:0002f9b0       _FsRtlDeleteKeyFromTunnelCache@12 004d99b0 f   fsrtl:Tunnel.obj
 0007:0002fa60       _FsRtlDeleteTunnelCache@4  004d9a60 f   fsrtl:Tunnel.obj
 0007:0002faa6       _FsRtlPruneTunnelCache@8   004d9aa6 f   fsrtl:Tunnel.obj
 0007:0002fbb4       _FsRtlGetTunnelParameterValue@8 004d9bb4 f   fsrtl:Tunnel.obj
 0007:0002fcec       _FsRtlAddToTunnelCache@32  004d9cec f   fsrtl:Tunnel.obj
 0007:0002ff32       _FsRtlFindInTunnelCache@32 004d9f32 f   fsrtl:Tunnel.obj
 0007:00030044       _FsRtlCopyRead@32          004da044 f   fsrtl:FastIo.obj
 0007:00030304       _FsRtlCopyWrite@32         004da304 f   fsrtl:FastIo.obj
 0007:000309f4       _FsRtlMdlReadDev@28        004da9f4 f   fsrtl:FastIo.obj
 0007:00030bc4       _FsRtlMdlRead@24           004dabc4 f   fsrtl:FastIo.obj
 0007:00030c44       _FsRtlPrepareMdlWriteDev@28 004dac44 f   fsrtl:FastIo.obj
 0007:00031036       _FsRtlPrepareMdlWrite@24   004db036 f   fsrtl:FastIo.obj
 0007:000310b6       _FsRtlMdlWriteCompleteDev@16 004db0b6 f   fsrtl:FastIo.obj
 0007:000310de       _FsRtlAcquireFileForCcFlushEx@4 004db0de f   fsrtl:FastIo.obj
 0007:000312f2       _FsRtlReleaseFileForCcFlush@4 004db2f2 f   fsrtl:FastIo.obj
 0007:000314b6       _FsRtlAcquireFileExclusiveCommon@12 004db4b6 f   fsrtl:FastIo.obj
 0007:000316d0       _FsRtlReleaseFile@4        004db6d0 f   fsrtl:FastIo.obj
 0007:0003188a       _FsRtlGetFileSize@8        004db88a f   fsrtl:FastIo.obj
 0007:000319ac       _FsRtlSetFileSize@8        004db9ac f   fsrtl:FastIo.obj
 0007:00031a92       _FsRtlIncrementCcFastReadNotPossible@0 004dba92 f   fsrtl:FastIo.obj
 0007:00031aa4       _FsRtlIncrementCcFastReadWait@0 004dbaa4 f   fsrtl:FastIo.obj
 0007:00031ab6       _FsRtlMdlWriteComplete@12  004dbab6 f   fsrtl:FastIo.obj
 0007:00031b24       _FsRtlAcquireFileExclusive@4 004dbb24 f   fsrtl:FastIo.obj
 0007:00031b3c       _FsRtlAcquireToCreateMappedSection@8 004dbb3c f   fsrtl:FastIo.obj
 0007:00031b56       _FsRtlInitializeMcb@8      004dbb56 f   fsrtl:LargeMcb.obj
 0007:00031b64       _FsRtlUninitializeMcb@4    004dbb64 f   fsrtl:LargeMcb.obj
 0007:00031b72       _FsRtlAllocateResource@0   004dbb72 f   fsrtl:FsRtlPc.obj
 0007:00031b90       _FsRtlDissectName@16       004dbb90 f   fsrtl:Name.obj
 0007:00031c14       _FsRtlDoesNameContainWildCards@4 004dbc14 f   fsrtl:Name.obj
 0007:00031c6c       _FsRtlAreNamesEqual@16     004dbc6c f   fsrtl:Name.obj
 0007:00031d48       _FsRtlIsNameInExpressionPrivate@16 004dbd48 f   fsrtl:Name.obj
 0007:000320e2       _FsRtlIsNameInExpression@16 004dc0e2 f   fsrtl:Name.obj
 0007:00032162       _FsRtlBalanceReads@4       004dc162 f   fsrtl:FaultTol.obj
 0007:000321ce       _FsRtlSyncVolumes@12       004dc1ce f   fsrtl:FaultTol.obj
 0007:000321d8       _FsRtlOplockIsFastIoPossible@4 004dc1d8 f   fsrtl:Oplock.obj
 0007:000321fa       _FsRtlCurrentBatchOplock@4 004dc1fa f   fsrtl:Oplock.obj
 0007:0003221a       _FsRtlAllocateOplock@0     004dc21a f   fsrtl:Oplock.obj
 0007:000322d8       _FsRtlCompletionRoutinePriv@8 004dc2d8 f   fsrtl:Oplock.obj
 0007:000322f0       _FsRtlNotifyCompletion@8   004dc2f0 f   fsrtl:Oplock.obj
 0007:00032306       _FsRtlOpBatchBreakClosePending@12 004dc306 f   fsrtl:Oplock.obj
 0007:000323fa       _FsRtlOplockBreakNotify@12 004dc3fa f   fsrtl:Oplock.obj
 0007:000324d2       _FsRtlOplockFsctrl@12      004dc4d2 f   fsrtl:Oplock.obj
 0007:00032620       _FsRtlpRegisterProviderWithMUP@12 004dc620 f   fsrtl:Unc.obj
 0007:000326c4       _FsRtlpOpenDev@8           004dc6c4 f   fsrtl:Unc.obj
 0007:0003274a       _FsRtlpSetSymbolicLink@4   004dc74a f   fsrtl:Unc.obj
 0007:00032782       _FsRtlDeregisterUncProvider@4 004dc782 f   fsrtl:Unc.obj
 0007:00032890       _FsRtlpIsDfsEnabled@0      004dc890 f   fsrtl:Unc.obj
 0007:00032a2a       _FsRtlRegisterUncProvider@12 004dca2a f   fsrtl:Unc.obj
 0007:00032c12       _FsRtlDissectDbcs@16       004dcc12 f   fsrtl:DbcsName.obj
 0007:00032cb4       _FsRtlDoesDbcsContainWildCards@4 004dccb4 f   fsrtl:DbcsName.obj
 0007:00032d1e       _FsRtlIsDbcsInExpression@8 004dcd1e f   fsrtl:DbcsName.obj
 0007:00033174       _FsRtlIsFatDbcsLegal@20    004dd174 f   fsrtl:DbcsName.obj
 0007:00033372       _FsRtlIsHpfsDbcsLegal@20   004dd372 f   fsrtl:DbcsName.obj
 0007:000334a8       _FsRtlTeardownPerStreamContexts@4 004dd4a8 f   fsrtl:FiltrCtx.obj
 0007:0003352c       _FsRtlPTeardownPerFileObjectContexts@4 004dd52c f   fsrtl:FiltrCtx.obj
 0007:0003355c       _FsRtlNotifyInitializeSync@4 004dd55c f   fsrtl:Notify.obj
 0007:000335a8       _FsRtlNotifyUninitializeSync@4 004dd5a8 f   fsrtl:Notify.obj
 0007:000335ca       _FsRtlIsNotifyOnList@8     004dd5ca f   fsrtl:Notify.obj
 0007:000335fa       _FsRtlNotifyUpdateBuffer@28 004dd5fa f   fsrtl:Notify.obj
 0007:0003376a       _FsRtlNotifyCompleteIrp@20 004dd76a f   fsrtl:Notify.obj
 0007:0003389c       _FsRtlNotifyCompleteIrpList@8 004dd89c f   fsrtl:Notify.obj
 0007:000338ec       _FsRtlCheckNotifyForDelete@8 004dd8ec f   fsrtl:Notify.obj
 0007:0003392a       _FsRtlNotifyFilterChangeDirectory@44 004dd92a f   fsrtl:Notify.obj
 0007:00033bd2       _FsRtlNotifyFilterReportChange@40 004ddbd2 f   fsrtl:Notify.obj
 0007:000341f6       _FsRtlNotifyCleanup@12     004de1f6 f   fsrtl:Notify.obj
 0007:00034310       _FsRtlNotifyChangeDirectory@28 004de310 f   fsrtl:Notify.obj
 0007:0003433e       _FsRtlNotifyFullChangeDirectory@40 004de33e f   fsrtl:Notify.obj
 0007:00034370       _FsRtlNotifyReportChange@20 004de370 f   fsrtl:Notify.obj
 0007:000343a2       _FsRtlNotifyFullReportChange@36 004de3a2 f   fsrtl:Notify.obj
 0007:000343d0       _FsRtlNotifyVolumeEvent@8  004de3d0 f   fsrtl:PnP.obj
 0007:000344a4       _HalpCalculateChsValues@28 004de4a4 f   fstub:drivesup.obj
 0007:00034570       _HalpQueryPartitionType@12 004de570 f   fstub:drivesup.obj
 0007:00034788       _HalpQueryDriveLayout@8    004de788 f   fstub:drivesup.obj
 0007:000348d6       _HalpNextMountLetter@8     004de8d6 f   fstub:drivesup.obj
 0007:00034a28       _HalpEnableAutomaticDriveLetterAssignment@0 004dea28 f   fstub:drivesup.obj
 0007:00034b08       _HalpSetMountLetter@8      004deb08 f   fstub:drivesup.obj
 0007:00034c72       _HalpIsOldStyleFloppy@4    004dec72 f   fstub:drivesup.obj
 0007:00034d70       _IopComputeHarddiskDerangements@4 004ded70 f   fstub:drivesup.obj
 0007:00034eec       @IoSetPartitionInformation@16 004deeec f   fstub:drivesup.obj
 0007:00035148       @IoWritePartitionTable@20  004df148 f   fstub:drivesup.obj
 0007:000354f8       _FstubFixupEfiPartition@12 004df4f8 f   fstub:drivesup.obj
 0007:0003552c       _HalpIsValidPartitionEntry@20 004df52c f   fstub:drivesup.obj
 0007:000355ae       _HalpGetFullGeometry@12    004df5ae f   fstub:drivesup.obj
 0007:00035702       _HalpNextDriveLetter@16    004df702 f   fstub:drivesup.obj
 0007:00035b2a       @IoAssignDriveLetters@16   004dfb2a f   fstub:drivesup.obj
 0007:000363be       @IoReadPartitionTable@16   004e03be f   fstub:drivesup.obj
 0007:00036954       _Phase1Initialization@4    004e0954 f   init:initos.obj
 0007:0003696e       _IoCheckDesiredAccess@8    004e096e f   iomgr:iosubs.obj
 0007:0003699e       _IoCheckEaBufferValidity@12 004e099e f   iomgr:iosubs.obj
 0007:00036a04       _IoCheckFunctionAccess@24  004e0a04 f   iomgr:iosubs.obj
 0007:00036b5c       _IoCheckQuerySetFileInformation@12 004e0b5c f   iomgr:iosubs.obj
 0007:00036b9c       _IoCheckQuerySetVolumeInformation@12 004e0b9c f   iomgr:iosubs.obj
 0007:00036bdc       _IoCheckQuotaBufferValidity@12 004e0bdc f   iomgr:iosubs.obj
 0007:00036c5a       _IoCheckShareAccess@20     004e0c5a f   iomgr:iosubs.obj
 0007:00036d60       _IoCreateController@4      004e0d60 f   iomgr:iosubs.obj
 0007:00036e1e       _IopCreateVpb@4            004e0e1e f   iomgr:iosubs.obj
 0007:00036e66       _IopCreateFile@64          004e0e66 f   iomgr:iosubs.obj
 0007:000373fe       _IoCreateNotificationEvent@8 004e13fe f   iomgr:iosubs.obj
 0007:00037474       _IoCreateStreamFileObjectEx@12 004e1474 f   iomgr:iosubs.obj
 0007:00037594       _IoCreateStreamFileObjectLite@8 004e1594 f   iomgr:iosubs.obj
 0007:0003766a       _IoCreateSymbolicLink@8    004e166a f   iomgr:iosubs.obj
 0007:000376c4       _IoCreateSynchronizationEvent@8 004e16c4 f   iomgr:iosubs.obj
 0007:0003773a       _IoCreateUnprotectedSymbolicLink@8 004e173a f   iomgr:iosubs.obj
 0007:00037790       _PsQuitNextProcess@4       004e1790 f   ps:psenum.obj
 0007:00037790       _IoDeleteDriver@4          004e1790 f   iomgr:iosubs.obj
 0007:00037790       _PsQuitNextProcessThread@4 004e1790 f   ps:psenum.obj
 0007:00037790       _IoDeleteController@4      004e1790 f   iomgr:iosubs.obj
 0007:00037790       _PsDereferencePrimaryToken@4 004e1790 f   ps:security.obj
 0007:000377e6       _IopDeleteSessionSymLinks@4 004e17e6 f   iomgr:iosubs.obj
 0007:000379d2       _IoDeleteSymbolicLink@4    004e19d2 f   iomgr:iosubs.obj
 0007:00037a50       _IoDisconnectInterrupt@4   004e1a50 f   iomgr:iosubs.obj
 0007:00037a8e       _IoEnqueueIrp@4            004e1a8e f   iomgr:iosubs.obj
 0007:00037ad2       _IoFastQueryNetworkAttributes@20 004e1ad2 f   iomgr:iosubs.obj
 0007:00037bc4       _IoGetConfigurationInformation@0 004e1bc4 f   iomgr:iosubs.obj
 0007:00037bd0       _IoGetFileObjectGenericMapping@0 004e1bd0 f   iomgr:iosubs.obj
 0007:00037bdc       _IoGetInitialStack@0       004e1bdc f   iomgr:iosubs.obj
 0007:00037bec       _IoComputeDesiredAccessFileObject@8 004e1bec f   iomgr:iosubs.obj
 0007:00037c26       _IoInitializeTimer@12      004e1c26 f   iomgr:iosubs.obj
 0007:00037c9a       _IoIsValidNameGraftingBuffer@8 004e1c9a f   iomgr:iosubs.obj
 0007:00038036       _IopDoNameTransmogrify@12  004e2036 f   iomgr:iosubs.obj
 0007:00038184       _IoQueryFileInformation@20 004e2184 f   iomgr:iosubs.obj
 0007:000381a8       _IoQueryVolumeInformation@20 004e21a8 f   iomgr:iosubs.obj
 0007:000381cc       _IoRegisterBootDriverReinitialization@12 004e21cc f   iomgr:iosubs.obj
 0007:0003820c       _IoRegisterDriverReinitialization@12 004e220c f   iomgr:iosubs.obj
 0007:0003824c       _IoRegisterFileSystem@4    004e224c f   iomgr:iosubs.obj
 0007:00038306       _IopNotifyAlreadyRegisteredFileSystems@12 004e2306 f   iomgr:iosubs.obj
 0007:00038338       _IoRegisterFsRegistrationChange@8 004e2338 f   iomgr:iosubs.obj
 0007:00038448       _IoRegisterLastChanceShutdownNotification@4 004e2448 f   iomgr:iosubs.obj
 0007:00038492       _IoRegisterShutdownNotification@4 004e2492 f   iomgr:iosubs.obj
 0007:000384dc       _IoRemoveShareAccess@8     004e24dc f   iomgr:iosubs.obj
 0007:0003853e       _IoSetInformation@16       004e253e f   iomgr:iosubs.obj
 0007:000387e8       _IoSetShareAccess@16       004e27e8 f   iomgr:iosubs.obj
 0007:000388ae       _IoUnregisterFileSystem@4  004e28ae f   iomgr:iosubs.obj
 0007:00038916       _IoUnregisterFsRegistrationChange@8 004e2916 f   iomgr:iosubs.obj
 0007:00038978       _IoUpdateShareAccess@8     004e2978 f   iomgr:iosubs.obj
 0007:000389da       _IoVerifyVolume@8          004e29da f   iomgr:iosubs.obj
 0007:00038b20       _IoCancelFileOpen@8        004e2b20 f   iomgr:iosubs.obj
 0007:00038c2c       _IoQueryFileDosDeviceName@8 004e2c2c f   iomgr:iosubs.obj
 0007:00038cb2       _IoCreateDriver@8          004e2cb2 f   iomgr:iosubs.obj
 0007:00038f48       _IoSetSystemPartition@4    004e2f48 f   iomgr:iosubs.obj
 0007:0003907a       _IoEnumerateRegisteredFiltersList@12 004e307a f   iomgr:iosubs.obj
 0007:000390fc       _IoCancelThreadIo@4        004e30fc f   iomgr:iosubs.obj
 0007:0003918a       _IoConnectInterrupt@44     004e318a f   iomgr:iosubs.obj
 0007:000392d4       _IoCreateFile@56           004e32d4 f   iomgr:iosubs.obj
 0007:0003939a       _IoCreateFileSpecifyDeviceObjectHint@60 004e339a f   iomgr:iosubs.obj
 0007:000393f4       _IoCreateStreamFileObject@8 004e33f4 f   iomgr:iosubs.obj
 0007:0003940e       _IoGetDeviceObjectPointer@16 004e340e f   iomgr:iosubs.obj
 0007:000394ec       _IoGetBootDiskInformation@8 004e34ec f   iomgr:iosubs.obj
 0007:00039ad8       _IopCreateDefaultDeviceSecurityDescriptor@24 004e3ad8 f   iomgr:iosubs.obj
 0007:00039c40       _IoCreateDevice@28         004e3c40 f   iomgr:iosubs.obj
 0007:00039f82       _IoAttachDevice@12         004e3f82 f   iomgr:iosubs.obj
 0007:0003a018       _NtCancelIoFile@8          004e4018 f   iomgr:misc.obj
 0007:0003a194       _NtDeleteFile@4            004e4194 f   iomgr:misc.obj
 0007:0003a28e       _NtFlushBuffersFile@8      004e428e f   iomgr:misc.obj
 0007:0003a468       _NtQueryAttributesFile@8   004e4468 f   iomgr:misc.obj
 0007:0003a5e2       _NtQueryFullAttributesFile@8 004e45e2 f   iomgr:misc.obj
 0007:0003a7ae       _IopProcessWorkItem@4      004e47ae f   iomgr:misc.obj
 0007:0003a7d0       _NtCreateIoCompletion@16   004e47d0 f   iomgr:complete.obj
 0007:0003a8a4       _NtOpenIoCompletion@12     004e48a4 f   iomgr:complete.obj
 0007:0003a94a       _NtQueryIoCompletion@20    004e494a f   iomgr:complete.obj
 0007:0003aa54       _IoSetIoCompletion@24      004e4a54 f   iomgr:complete.obj
 0007:0003ab30       _IopFreeMiniPacket@4       004e4b30 f   iomgr:complete.obj
 0007:0003ab96       _IopDeleteIoCompletion@4   004e4b96 f   iomgr:complete.obj
 0007:0003abd6       _NtSetIoCompletion@20      004e4bd6 f   iomgr:complete.obj
 0007:0003ac36       _NtRemoveIoCompletion@20   004e4c36 f   iomgr:complete.obj
 0007:0003ae0c       _IoVolumeDeviceToDosName@8 004e4e0c f   iomgr:dev2dos.obj
 0007:0003b0be       _NtCreateFile@44           004e50be f   iomgr:create.obj
 0007:0003b0f6       _NtCreateNamedPipeFile@56  004e50f6 f   iomgr:create.obj
 0007:0003b1c6       _NtCreateMailslotFile@32   004e51c6 f   iomgr:create.obj
 0007:0003b27c       _NtDeviceIoControlFile@40  004e527c f   iomgr:devctrl.obj
 0007:0003b2ae       _NtFsControlFile@40        004e52ae f   iomgr:fsctrl.obj
 0007:0003b2e0       _NtLockFile@40             004e52e0 f   iomgr:lock.obj
 0007:0003b682       _NtUnlockFile@20           004e5682 f   iomgr:lock.obj
 0007:0003b9e4       _BuildQueryDirectoryIrp@68 004e59e4 f   iomgr:dir.obj
 0007:0003be9a       _NtQueryDirectoryFile@44   004e5e9a f   iomgr:dir.obj
 0007:0003befe       _NtNotifyChangeDirectoryFile@36 004e5efe f   iomgr:dir.obj
 0007:0003c1ba       _NtOpenFile@24             004e61ba f   iomgr:open.obj
 0007:0003c1e8       _NtQueryEaFile@36          004e61e8 f   iomgr:qsea.obj
 0007:0003c6f0       _NtSetEaFile@16            004e66f0 f   iomgr:qsea.obj
 0007:0003c9f2       _IopGetModeInformation@4   004e69f2 f   iomgr:qsinfo.obj
 0007:0003ca3e       _NtQueryInformationFile@20 004e6a3e f   iomgr:qsinfo.obj
 0007:0003d040       _NtSetInformationFile@20   004e7040 f   iomgr:qsinfo.obj
 0007:0003d888       _NtQueryQuotaInformationFile@36 004e7888 f   iomgr:qsquota.obj
 0007:0003dda8       _NtSetQuotaInformationFile@16 004e7da8 f   iomgr:qsquota.obj
 0007:0003ddc8       _NtQueryVolumeInformationFile@20 004e7dc8 f   iomgr:qsfs.obj
 0007:0003e1c8       _NtSetVolumeInformationFile@20 004e81c8 f   iomgr:qsfs.obj
 0007:0003e552       _NtReadFile@36             004e8552 f   iomgr:read.obj
 0007:0003eb2e       _NtReadFileScatter@36      004e8b2e f   iomgr:read.obj
 0007:0003f02a       _NtWriteFile@36            004e902a f   iomgr:write.obj
 0007:0003f692       _NtWriteFileGather@36      004e9692 f   iomgr:write.obj
 0007:0003fc2e       _IopAcquireFileObjectLock@16 004e9c2e f   iomgr:internal.obj
 0007:0003fcbe       _IopAllocateIrpCleanup@8   004e9cbe f   iomgr:internal.obj
 0007:0003fd0a       _IopCancelAlertedRequest@8 004e9d0a f   iomgr:internal.obj
 0007:0003fd86       _IopCheckGetQuotaBufferValidity@12 004e9d86 f   iomgr:internal.obj
 0007:0003fe0c       _IopConnectLinkTrackingPort@4 004e9e0c f   iomgr:internal.obj
 0007:0003fed2       _PspQueueApcSpecialApc@20  004e9ed2 f   ps:psctx.obj
 0007:0003fed2       _IopDeallocateApc@20       004e9ed2 f   iomgr:internal.obj
 0007:0003fee8       _IopExceptionCleanup@16    004e9ee8 f   iomgr:internal.obj
 0007:0003ff66       _IopGetFileInformation@20  004e9f66 f   iomgr:internal.obj
 0007:00040068       _IopGetRegistryKeyInformation@8 004ea068 f   iomgr:internal.obj
 0007:000400e0       _IopGetRegistryValue@12    004ea0e0 f   iomgr:internal.obj
 0007:00040208       _IopGetRegistryValues@8    004ea208 f   iomgr:internal.obj
 0007:00040274       _IopGetSetObjectId@16      004ea274 f   iomgr:internal.obj
 0007:0004033e       _IopGetVolumeId@12         004ea33e f   iomgr:internal.obj
 0007:00040410       _IopHardErrorThread@4      004ea410 f   iomgr:internal.obj
 0007:0004048e       _IopIsSameMachine@8        004ea48e f   iomgr:internal.obj
 0007:0004055c       _IopBuildFullDriverPath@12 004ea55c f   iomgr:internal.obj
 0007:000406b4       _IopInvalidateVolumesForDevice@4 004ea6b4 f   iomgr:internal.obj
 0007:000408cc       _IopOpenRegistryKey@20     004ea8cc f   iomgr:internal.obj
 0007:0004092a       _IopQueryXxxInformation@28 004ea92a f   iomgr:internal.obj
 0007:00040b06       _IopRaiseHardError@12      004eab06 f   iomgr:internal.obj
 0007:00040ce2       _IopRaiseInformationalHardError@12 004eace2 f   iomgr:internal.obj
 0007:00040d4a       _IopReadyDeviceObjects@4   004ead4a f   iomgr:internal.obj
 0007:00040d6e       _IopMarshalIds@16          004ead6e f   iomgr:internal.obj
 0007:00040dcc       _IopUnMarshalIds@16        004eadcc f   iomgr:internal.obj
 0007:00040e22       _IopSendMessageToTrackService@12 004eae22 f   iomgr:internal.obj
 0007:00041026       _IopSetRemoteLink@12       004eb026 f   iomgr:internal.obj
 0007:0004119a       _IopSynchronousApiServiceTail@24 004eb19a f   iomgr:internal.obj
 0007:00041222       _IopTrackLink@24           004eb222 f   iomgr:internal.obj
 0007:000418f4       _IopUserCompletion@20      004eb8f4 f   iomgr:internal.obj
 0007:0004190c       _IopUserRundown@4          004eb90c f   iomgr:internal.obj
 0007:00041944       _IopSafebootDriverLoad@4   004eb944 f   iomgr:internal.obj
 0007:00041a70       _IopBootLogToFile@4        004eba70 f   iomgr:internal.obj
 0007:00041b98       _IopCallDriverReinitializationRoutines@0 004ebb98 f   iomgr:internal.obj
 0007:00041bf2       _IopReferenceDriverObjectByName@4 004ebbf2 f   iomgr:internal.obj
 0007:00041c72       _IopGetBasicInformationFile@8 004ebc72 f   iomgr:internal.obj
 0007:00041ccc       _IopApcHardError@4         004ebccc f   iomgr:internal.obj
 0007:00041d40       _IopGetDriverNameFromKeyNode@8 004ebd40 f   iomgr:internal.obj
 0007:00041ed4       _IopOpenLinkOrRenameTarget@16 004ebed4 f   iomgr:internal.obj
 0007:0004206e       _IopStartApcHardError@4    004ec06e f   iomgr:internal.obj
 0007:000420b6       _IopSynchronousServiceTail@28 004ec0b6 f   iomgr:internal.obj
 0007:00042290       _IopXxxControlFile@44      004ec290 f   iomgr:internal.obj
 0007:000428b4       _IopBootLog@8              004ec8b4 f   iomgr:internal.obj
 0007:00042a9a       _IopCopyBootLogRegistryToFile@0 004eca9a f   iomgr:internal.obj
 0007:00042ce8       _IopAbortRequest@4         004ecce8 f   iomgr:internal.obj
 0007:00042d62       _IopLoadDriver@16          004ecd62 f   iomgr:internal.obj
 0007:000434ba       _IopLoadUnloadDriver@4     004ed4ba f   iomgr:internal.obj
 0007:00043538       _IopSetEaOrQuotaInformationFile@20 004ed538 f   iomgr:internal.obj
 0007:00043874       _IopInitializeBootLogging@8 004ed874 f   iomgr:internal.obj
 0007:00043a0c       _IopInitializeIrpStackProfiler@0 004eda0c f   iomgr:internal.obj
 0007:00043a60       _IopLoadFileSystemDriver@4 004eda60 f   iomgr:internal.obj
 0007:00043aea       _IopMountVolume@20         004edaea f   iomgr:internal.obj
 0007:00043ef2       _IopCheckTopDeviceHint@12  004edef2 f   iomgr:parse.obj
 0007:00043f60       _IopGetNetworkOpenInformation@8 004edf60 f   iomgr:parse.obj
 0007:00044006       _IopQueryNameInternal@28   004ee006 f   iomgr:parse.obj
 0007:000442b8       _IopQueryName@24           004ee2b8 f   iomgr:parse.obj
 0007:000442de       _IopCheckBackupRestorePrivilege@16 004ee2de f   iomgr:parse.obj
 0007:0004441a       _IopParseDevice@40         004ee41a f   iomgr:parse.obj
 0007:00045250       _IopParseFile@40           004ef250 f   iomgr:parse.obj
 0007:000452be       _IopErrorLogConnectPort@0  004ef2be f   iomgr:errorlog.obj
 0007:00045360       _IopErrorLogThread@4       004ef360 f   iomgr:errorlog.obj
 0007:0004577c       _IopErrorLogQueueRequest@0 004ef77c f   iomgr:errorlog.obj
 0007:000457c8       _IopCloseFile@20           004ef7c8 f   iomgr:objsup.obj
 0007:00045ae8       _IopDeleteFile@4           004efae8 f   iomgr:objsup.obj
 0007:00045cd8       _IopDeleteDriver@4         004efcd8 f   iomgr:objsup.obj
 0007:00045d50       _IopDeleteDevice@4         004efd50 f   iomgr:objsup.obj
 0007:00045d8e       _IopSetDeviceSecurityDescriptor@20 004efd8e f   iomgr:objsup.obj
 0007:00045ed4       _IopSetDeviceSecurityDescriptors@24 004efed4 f   iomgr:objsup.obj
 0007:00045f28       _IopGetSetSecurityObject@32 004eff28 f   iomgr:objsup.obj
 0007:00046360       _Ke386CallBios@8           004f0360 f   ke:biosc.obj
 0007:00046580       _KeAddSystemServiceTable@20 004f0580 f   ke:miscc.obj
 0007:000465f4       _KeRemoveSystemServiceTable@4 004f05f4 f   ke:miscc.obj
 0007:0004665a       _KeQueryActiveProcessors@0 004f065a f   ke:miscc.obj
 0007:00046666       _KeQueryLogicalProcessorInformation@12 004f0666 f   ke:miscc.obj
 0007:00046738       _KeInitializeProcess@20    004f0738 f   ke:procobj.obj
 0007:00046806       _KeInitializeEventPair@4   004f0806 f   ke:eventobj.obj
 0007:0004683a       _KeIsWaitListEmpty@4       004f083a f   ke:wait.obj
 0007:00046854       _Ke386GetGdtEntryThread@12 004f0854 f   ke:gdtsup.obj
 0007:000468bc       _KeInitThread@32           004f08bc f   ke:thredobj.obj
 0007:00046a52       _KeUninitThread@4          004f0a52 f   ke:thredobj.obj
 0007:00046a74       _KeUserModeCallback@20     004f0a74 f   ke:callback.obj
 0007:00046b88       _KeQueryIntervalProfile@4  004f0b88 f   ke:profobj.obj
 0007:00046bd8       _Ki386CheckDivideByZeroTrap@4 004f0bd8 f   ke:trapc.obj
 0007:00046e54       _NtRequestPort@8           004f0e54 f   lpc:lpcsend.obj
 0007:000471f0       _NtRequestWaitReplyPort@12 004f11f0 f   lpc:lpcsend.obj
 0007:00047b32       _LpcRequestPort@8          004f1b32 f   lpc:lpcsend.obj
 0007:00047dc2       _LpcpRequestWaitReplyPort@16 004f1dc2 f   lpc:lpcsend.obj
 0007:0004847a       _LpcRequestWaitReplyPort@12 004f247a f   lpc:lpcsend.obj
 0007:00048496       _LpcRequestWaitReplyPortEx@12 004f2496 f   lpc:lpcsend.obj
 0007:000484be       _LpcpFreeConMsg@12         004f24be f   lpc:lpcconn.obj
 0007:000485ca       _NtSecureConnectPort@36    004f25ca f   lpc:lpcconn.obj
 0007:00048f1e       _NtConnectPort@32          004f2f1e f   lpc:lpcconn.obj
 0007:00048f4a       _LpcpPrepareToWakeClient@4 004f2f4a f   lpc:lpccompl.obj
 0007:00048f7a       _NtAcceptConnectPort@24    004f2f7a f   lpc:lpccompl.obj
 0007:00049876       _NtCompleteConnectPort@4   004f3876 f   lpc:lpccompl.obj
 0007:00049b04       _LpcpCreatePort@24         004f3b04 f   lpc:lpccreat.obj
 0007:00049d80       _NtCreatePort@20           004f3d80 f   lpc:lpccreat.obj
 0007:00049da2       _NtCreateWaitablePort@20   004f3da2 f   lpc:lpccreat.obj
 0007:00049dc4       _NtImpersonateClientOfPort@8 004f3dc4 f   lpc:lpcpriv.obj
 0007:0004a118       _LpcpFreePortClientSecurity@4 004f4118 f   lpc:lpcpriv.obj
 0007:0004a15c       _NtListenPort@8            004f415c f   lpc:lpclistn.obj
 0007:0004a1ba       _NtQueryInformationPort@20 004f41ba f   lpc:lpcquery.obj
 0007:0004a280       @LpcpValidateClientPort@12 004f4280 f   lpc:lpcreply.obj
 0007:0004a2c2       _NtReplyPort@8             004f42c2 f   lpc:lpcreply.obj
 0007:0004a622       _NtReplyWaitReplyPort@8    004f4622 f   lpc:lpcreply.obj
 0007:0004abd4       _LpcpCopyRequestData@28    004f4bd4 f   lpc:lpcreply.obj
 0007:0004ae84       _NtReadRequestData@24      004f4e84 f   lpc:lpcreply.obj
 0007:0004aeaa       _NtWriteRequestData@24     004f4eaa f   lpc:lpcreply.obj
 0007:0004aed0       _NtReplyWaitReceivePortEx@20 004f4ed0 f   lpc:lpcrecv.obj
 0007:0004b6c0       _NtReplyWaitReceivePort@16 004f56c0 f   lpc:lpcrecv.obj
 0007:0004b6e0       _LpcpInitializePortQueue@4 004f56e0 f   lpc:lpcqueue.obj
 0007:0004b72a       @LpcpFreeToPortZone@8      004f572a f   lpc:lpcqueue.obj
 0007:0004b88c       _LpcpSaveDataInfoMessage@12 004f588c f   lpc:lpcqueue.obj
 0007:0004b96a       _LpcpFreeDataInfoMessage@20 004f596a f   lpc:lpcqueue.obj
 0007:0004b9ce       _LpcpFindDataInfoMessage@20 004f59ce f   lpc:lpcqueue.obj
 0007:0004ba1c       _LpcpDestroyPortQueue@8    004f5a1c f   lpc:lpcqueue.obj
 0007:0004bc14       _LpcDisconnectPort@4       004f5c14 f   lpc:lpcqueue.obj
 0007:0004bc2c       _LpcpClosePort@20          004f5c2c f   lpc:lpcclose.obj
 0007:0004bc62       _LpcpDeletePort@4          004f5c62 f   lpc:lpcclose.obj
 0007:0004bfc0       _LpcExitThread@4           004f5fc0 f   lpc:lpcclose.obj
 0007:0004c0b2       _MmUnmapViewOfSection@8    004f60b2 f   mm:umapview.obj
 0007:0004c0cc       _NtUnmapViewOfSection@8    004f60cc f   mm:umapview.obj
 0007:0004c134       _NtFlushVirtualMemory@16   004f6134 f   mm:flushsec.obj
 0007:0004c264       _MmIsMemoryAvailable@4     004f6264 f   mm:wsmanage.obj
 0007:0004c2f4       _MiInitializeWorkingSetList@4 004f62f4 f   mm:wslist.obj
 0007:0004c4c6       _MmAssignProcessToJob@4    004f64c6 f   mm:wslist.obj
 0007:0004c5a4       _MmAllocateMappingAddress@8 004f65a4 f   mm:iosup.obj
 0007:0004c668       _MmFreeMappingAddress@8    004f6668 f   mm:iosup.obj
 0007:0004c704       _MmAllocateIndependentPages@8 004f6704 f   mm:iosup.obj
 0007:0004c86c       _MmFreeIndependentPages@8  004f686c f   mm:iosup.obj
 0007:0004c932       _MiZeroAwePageWorker@4     004f6932 f   mm:iosup.obj
 0007:0004ca96       _MiLookupDataTableEntry@8  004f6a96 f   mm:iosup.obj
 0007:0004cb18       _MmSetBankedSection@24     004f6b18 f   mm:iosup.obj
 0007:0004cdb4       _MmMapVideoDisplay@16      004f6db4 f   mm:iosup.obj
 0007:0004cdd2       _MmUnmapVideoDisplay@8     004f6dd2 f   mm:iosup.obj
 0007:0004cde0       _MmLockPageableSectionByHandle@4 004f6de0 f   mm:iosup.obj
 0007:0004cf02       _MmGetSectionRange@12      004f6f02 f   mm:iosup.obj
 0007:0004cfdc       _MmLockPageableDataSection@4 004f6fdc f   mm:iosup.obj
 0007:0004d0ec       _MmProbeAndLockProcessPages@16 004f70ec f   mm:iosup.obj
 0007:0004d16e       _MmAllocatePagesForMdl@28  004f716e f   mm:iosup.obj
 0007:0004d198       _MmAllocatePagesForMdlEx@36 004f7198 f   mm:iosup.obj
 0007:0004d1e4       _MmAllocateNonCachedMemory@4 004f71e4 f   mm:iosup.obj
 0007:0004d2f2       _MmFreeNonCachedMemory@8   004f72f2 f   mm:iosup.obj
 0007:0004d346       @MiInsertBasedSection@4    004f7346 f   mm:sectsup.obj
 0007:0004d356       _MmGetFileNameForSection@8 004f7356 f   mm:sectsup.obj
 0007:0004d410       _MmGetFileNameForAddress@8 004f7410 f   mm:sectsup.obj
 0007:0004d5ae       _MmGetFileObjectForSection@4 004f75ae f   mm:sectsup.obj
 0007:0004d5c6       _MiGetEventCounter@0       004f75c6 f   mm:sectsup.obj
 0007:0004d61a       _MiFreeEventCounter@4      004f761a f   mm:sectsup.obj
 0007:0004d670       _MiSectionDelete@4         004f7670 f   mm:sectsup.obj
 0007:0004d760       _MmCommitSessionMappedView@8 004f7760 f   mm:allocvm.obj
 0007:0004dc22       _MiCheckDosCalls@8         004f7c22 f   mm:creasect.obj
 0007:0004dd0e       _MiVerifyImageHeader@12    004f7d0e f   mm:creasect.obj
 0007:0004dedc       _MiCreateDataFileMap@24    004f7edc f   mm:creasect.obj
 0007:0004e206       _MiCreatePagingFileMap@16  004f8206 f   mm:creasect.obj
 0007:0004e4de       _NtOpenSection@12          004f84de f   mm:creasect.obj
 0007:0004e582       _MiGetImageProtection@4    004f8582 f   mm:creasect.obj
 0007:0004e5c0       _MiCreateImageFileMap@8    004f85c0 f   mm:creasect.obj
 0007:0004f66e       _NtCreateSection@28        004f966e f   mm:creasect.obj
 0007:0004f804       _MiZeroPageFileFirstPage@4 004f9804 f   mm:modwrite.obj
 0007:0004f8d2       _MmGetSystemPageFile@0     004f98d2 f   mm:modwrite.obj
 0007:0004f982       _MiAttemptPageFileExtension@12 004f9982 f   mm:modwrite.obj
 0007:0004fa9e       _MiExtendPagingFiles@4     004f9a9e f   mm:modwrite.obj
 0007:0004fba0       _MiLdwPopupWorker@4        004f9ba0 f   mm:modwrite.obj
 0007:0004fc16       _MmGetPageFileInformation@12 004f9c16 f   mm:modwrite.obj
 0007:0004fd06       _NtCreatePagingFile@16     004f9d06 f   mm:modwrite.obj
 0007:000506fa       _MiCaptureImageExceptionValues@4 004fa6fa f   mm:sysload.obj
 0007:00050764       _MmPageEntireDriver@4      004fa764 f   mm:sysload.obj
 0007:000507c2       _MmResetDriverPaging@4     004fa7c2 f   mm:sysload.obj
 0007:0005089a       _MiClearImports@4          004fa89a f   mm:sysload.obj
 0007:000508c8       _MiRememberUnloadedDriver@12 004fa8c8 f   mm:sysload.obj
 0007:000509b2       _MiLocateExportName@8      004fa9b2 f   mm:sysload.obj
 0007:00050a90       _MiSnapThunk@32            004faa90 f   mm:sysload.obj
 0007:00050e20       _MmVerifyImageIsOkForMpUse@4 004fae20 f   mm:sysload.obj
 0007:00050e4e       _MiComputeDriverProtection@8 004fae4e f   mm:sysload.obj
 0007:00050eb2       _MiWriteProtectSystemImage@4 004faeb2 f   mm:sysload.obj
 0007:00051118       _MiSessionProcessGlobalSubsections@4 004fb118 f   mm:sysload.obj
 0007:0005127c       _MmCallDllInitialize@8     004fb27c f   mm:sysload.obj
 0007:000513ba       _MiFindExportedRoutineByName@8 004fb3ba f   mm:sysload.obj
 0007:0005148c       _MiUseLargeDriverPage@16   004fb48c f   mm:sysload.obj
 0007:00051614       _MiLoadImageSection@20     004fb614 f   mm:sysload.obj
 0007:00051992       _MiEnablePagingOfDriver@4  004fb992 f   mm:sysload.obj
 0007:00051a6a       _MiCallDllUnloadAndUnloadDll@4 004fba6a f   mm:sysload.obj
 0007:00051aa4       _MiDereferenceImports@4    004fbaa4 f   mm:sysload.obj
 0007:00051b50       _MmCheckSystemImage@8      004fbb50 f   mm:sysload.obj
 0007:00051d56       _MmGetSystemRoutineAddress@4 004fbd56 f   mm:sysload.obj
 0007:00051e56       _MmUnloadSystemImage@4     004fbe56 f   mm:sysload.obj
 0007:00052240       _MmLoadSystemImage@24      004fc240 f   mm:sysload.obj
 0007:00053090       _MiResolveImageReferences@24 004fd090 f   mm:sysload.obj
 0007:0005378e       _MmInitializeHandBuiltProcess@8 004fd78e f   mm:procsup.obj
 0007:000537aa       _MmCreateTeb@16            004fd7aa f   mm:procsup.obj
 0007:000538cc       _MmCreatePeb@12            004fd8cc f   mm:procsup.obj
 0007:00053c64       _MmSetMemoryPriorityProcess@8 004fdc64 f   mm:procsup.obj
 0007:00053c8c       _MiAllocateVad@12          004fdc8c f   mm:procsup.obj
 0007:00053cf2       _MmGetDirectoryFrameFromProcess@4 004fdcf2 f   mm:procsup.obj
 0007:00053d08       _MmInitializeHandBuiltProcess2@4 004fdd08 f   mm:procsup.obj
 0007:00053e2c       _MmHibernateInformation@12 004fde2c f   mm:mmsup.obj
 0007:00053e70       _MiPteSListExpansionWorker@4 004fde70 f   mm:sysptes.obj
 0007:00053ec4       _MiLoadUserSymbols@12      004fdec4 f   mm:mapview.obj
 0007:00054044       _MiCacheImageSymbols@4     004fe044 f   mm:mapview.obj
 0007:00054088       _NtAreMappedFilesTheSame@8 004fe088 f   mm:mapview.obj
 0007:0005419e       _MmGetSessionMappedViewInformation@16 004fe19e f   mm:mapview.obj
 0007:00054394       _MiInsertInSystemSpace@12  004fe394 f   mm:mapview.obj
 0007:000545a2       _MiRemoveFromSystemSpace@12 004fe5a2 f   mm:mapview.obj
 0007:0005461c       _MiInitializeSystemSpaceMap@4 004fe61c f   mm:mapview.obj
 0007:00054706       _MiFreeSessionSpaceMap@0   004fe706 f   mm:mapview.obj
 0007:0005475c       _MiUnsecureVirtualMemory@8 004fe75c f   mm:mapview.obj
 0007:000548f8       _MiMapViewInSystemSpace@16 004fe8f8 f   mm:mapview.obj
 0007:00054a96       _MiUnmapViewInSystemSpace@8 004fea96 f   mm:mapview.obj
 0007:00054b7e       _MmSecureVirtualMemory@12  004feb7e f   mm:mapview.obj
 0007:00054b9a       _MmUnsecureVirtualMemory@4 004feb9a f   mm:mapview.obj
 0007:00054bb0       _MmMapViewOfSection@40     004febb0 f   mm:mapview.obj
 0007:00054e50       _MmMapViewInSystemSpace@12 004fee50 f   mm:mapview.obj
 0007:00054e70       _MmMapViewInSessionSpace@12 004fee70 f   mm:mapview.obj
 0007:00054eae       _MmUnmapViewInSystemSpace@4 004feeae f   mm:mapview.obj
 0007:00054ec8       _MmUnmapViewInSessionSpace@4 004feec8 f   mm:mapview.obj
 0007:00054f00       _NtMapViewOfSection@40     004fef00 f   mm:mapview.obj
 0007:000551e8       _MiAddMappedPtes@12        004ff1e8 f   mm:mapcache.obj
 0007:0005528a       _MmExtendSection@12        004ff28a f   mm:extsect.obj
 0007:00055a64       _NtExtendSection@8         004ffa64 f   mm:extsect.obj
 0007:00055b4c       _MmSessionSetUnloadAddress@4 004ffb4c f   mm:session.obj
 0007:00055b6a       _MmGetSessionLocaleId@0    004ffb6a f   mm:session.obj
 0007:00055b96       _MmSetSessionLocaleId@4    004ffb96 f   mm:session.obj
 0007:00055bce       _MiSessionPoolSmallLists@0 004ffbce f   mm:session.obj
 0007:00055bd8       _MiSessionPoolLookaside@0  004ffbd8 f   mm:session.obj
 0007:00055be8       _MiSessionPoolTrackTable@0 004ffbe8 f   mm:session.obj
 0007:00055bfc       _MiSessionPoolTrackTableSize@0 004ffbfc f   mm:session.obj
 0007:00055c30       _MiSessionPoolBigPageTable@0 004ffc30 f   mm:session.obj
 0007:00055c4c       _MiSessionPoolBigPageTableSize@0 004ffc4c f   mm:session.obj
 0007:00055c7a       _MmQuitNextSession@4       004ffc7a f   mm:session.obj
 0007:00055c90       _MiDereferenceSession@0    004ffc90 f   mm:session.obj
 0007:00055d10       _MmSessionCreate@4         004ffd10 f   mm:session.obj
 0007:00055e44       _MmSessionDelete@4         004ffe44 f   mm:session.obj
 0007:00055eaa       _MiSessionPoolVector@0     004ffeaa f   mm:allocpag.obj
 0007:00055eba       _MmAvailablePoolInPages@4  004ffeba f   mm:allocpag.obj
 0007:00055ee0       _MiCheckSessionPoolAllocations@0 004ffee0 f   mm:allocpag.obj
 0007:00055fcc       _MiFreeSessionPoolBitMaps@0 004fffcc f   mm:allocpag.obj
 0007:00056018       _MiFindContiguousMemory@24 00500018 f   mm:allocpag.obj
 0007:000560ea       _MiInitializeSessionPool@0 005000ea f   mm:allocpag.obj
 0007:0005635c       _MmPerfSnapShotValidPhysicalMemory@0 0050035c f   mm:dmpaddr.obj
 0007:0005651a       _MiGetExceptionInfo@12     0050051a f   mm:readwrt.obj
 0007:00056560       _MiDoMappedCopy@28         00500560 f   mm:readwrt.obj
 0007:00056786       _MiDoPoolCopy@28           00500786 f   mm:readwrt.obj
 0007:00056976       _MmCopyVirtualMemory@28    00500976 f   mm:readwrt.obj
 0007:00056a38       _NtReadVirtualMemory@20    00500a38 f   mm:readwrt.obj
 0007:00056b40       _NtWriteVirtualMemory@20   00500b40 f   mm:readwrt.obj
 0007:00056c48       _MmGetExecuteOptions@4     00500c48 f   mm:mmfault.obj
 0007:00056c9a       _MmGetImageInformation@4   00500c9a f   mm:mmfault.obj
 0007:00056cc8       _MiInsertVadCharges@8      00500cc8 f   mm:vadtree.obj
 0007:00056ef4       _MiRemoveVadCharges@8      00500ef4 f   mm:vadtree.obj
 0007:00056fb6       _MmPerfVadTreeWalk@4       00500fb6 f   mm:vadtree.obj
 0007:0005713c       _MiAllocateAweInfo@0       0050113c f   mm:physical.obj
 0007:0005719a       _MiFreeAweInfo@4           0050119a f   mm:physical.obj
 0007:000571bc       _MiInsertAweInfo@4         005011bc f   mm:physical.obj
 0007:000571fe       _NtAllocateUserPhysicalPages@12 005011fe f   mm:physical.obj
 0007:00057956       _MiRemoveUserPhysicalPagesVad@4 00501956 f   mm:physical.obj
 0007:00057a64       _MiCleanPhysicalProcessPages@4 00501a64 f   mm:physical.obj
 0007:00057bf8       _MiAweViewInserter@8       00501bf8 f   mm:physical.obj
 0007:00057c2e       _MiAweViewRemover@8        00501c2e f   mm:physical.obj
 0007:00057c9c       _MiReleasePhysicalCharges@8 00501c9c f   mm:physical.obj
 0007:00057cca       _MiCaptureUlongPtrArray@12 00501cca f   mm:physical.obj
 0007:00057d42       _NtMapUserPhysicalPages@12 00501d42 f   mm:physical.obj
 0007:00058150       _NtMapUserPhysicalPagesScatter@12 00502150 f   mm:physical.obj
 0007:0005860a       _NtFreeUserPhysicalPages@12 0050260a f   mm:physical.obj
 0007:00058aee       _NtFlushWriteBuffer@0      00502aee f   mm:flushbuf.obj
 0007:00058afc       _MiFlushRangeFilter@16     00502afc f   mm:flushbuf.obj
 0007:00058b4a       _NtFlushInstructionCache@12 00502b4a f   mm:flushbuf.obj
 0007:00058c50       _MiCheckSecuredVad@16      00502c50 f   mm:protect.obj
 0007:00058d1e       _NtProtectVirtualMemory@20 00502d1e f   mm:protect.obj
 0007:00058e9e       _NtQuerySection@20         00502e9e f   mm:querysec.obj
 0007:00059042       _MiCheckForConflictingNode@12 00503042 f   mm:addrsup.obj
 0007:0005907a       _MiRealSuccessor@4         0050307a f   mm:addrsup.obj
 0007:000590be       _MiFindEmptyAddressRangeInTree@20 005030be f   mm:addrsup.obj
 0007:000591ea       _MiFindEmptyAddressRangeDownTree@20 005031ea f   mm:addrsup.obj
 0007:00059340       _MiFindEmptyAddressRangeDownBasedTree@20 00503340 f   mm:addrsup.obj
 0007:0005945e       _MiSessionLookupImage@4    0050345e f   mm:sessload.obj
 0007:00059488       _MiSessionUnloadAllImages@0 00503488 f   mm:sessload.obj
 0007:000594b0       _MiSessionWideReserveImageAddress@12 005034b0 f   mm:sessload.obj
 0007:00059850       _MiRemoveImageSessionWide@12 00503850 f   mm:sessload.obj
 0007:00059890       _MiShareSessionImage@8     00503890 f   mm:sessload.obj
 0007:000599a0       @MiCheckForUserStackOverflow@8 005039a0 f   mm:acceschk.obj
 0007:00059c8c       _LdrpAccessResourceDataNoMultipleLanguage@16 00503c8c f   ntosrtl:ldrrsrc.obj
 0007:00059db8       _LdrpAccessResourceData@16 00503db8 f   ntosrtl:ldrrsrc.obj
 0007:00059db8       _LdrAccessResource@16      00503db8 f   ntosrtl:ldrrsrc.obj
 0007:00059dc6       _LdrpCompareResourceNames_U@12 00503dc6 f   ntosrtl:ldrrsrc.obj
 0007:00059e34       _LdrpSearchResourceSection_U@20 00503e34 f   ntosrtl:ldrrsrc.obj
 0007:0005a154       _LdrEnumResources@20       00504154 f   ntosrtl:ldrrsrc.obj
 0007:0005a39c       _LdrFindResource_U@16      0050439c f   ntosrtl:ldrrsrc.obj
 0007:0005a3bc       _LdrFindResourceDirectory_U@16 005043bc f   ntosrtl:ldrrsrc.obj
 0007:0005a3dc       _RtlMultiByteToUnicodeN@20 005043dc f   ntosrtl:nlsxlat.obj
 0007:0005a6c8       _RtlOemToUnicodeN@20       005046c8 f   ntosrtl:nlsxlat.obj
 0007:0005a8b4       _RtlMultiByteToUnicodeSize@12 005048b4 f   ntosrtl:nlsxlat.obj
 0007:0005a906       _RtlUnicodeToMultiByteSize@12 00504906 f   ntosrtl:nlsxlat.obj
 0007:0005a954       _RtlUnicodeToMultiByteN@20 00504954 f   ntosrtl:nlsxlat.obj
 0007:0005aaf4       _RtlUpcaseUnicodeToMultiByteN@20 00504af4 f   ntosrtl:nlsxlat.obj
 0007:0005b33e       _RtlUnicodeToOemN@20       0050533e f   ntosrtl:nlsxlat.obj
 0007:0005b4ee       _RtlUpcaseUnicodeToOemN@20 005054ee f   ntosrtl:nlsxlat.obj
 0007:0005bd3e       _RtlpDidUnicodeToOemWork@8 00505d3e f   ntosrtl:nlsxlat.obj
 0007:0005be24       _RtlCustomCPToUnicodeN@24  00505e24 f   ntosrtl:nlsxlat.obj
 0007:0005c006       _RtlUnicodeToCustomCPN@24  00506006 f   ntosrtl:nlsxlat.obj
 0007:0005c1b4       _RtlUpcaseUnicodeToCustomCPN@24 005061b4 f   ntosrtl:nlsxlat.obj
 0007:0005ca22       _RtlInitCodePageTable@8    00506a22 f   ntosrtl:nlsxlat.obj
 0007:0005cac6       _RtlpInitUpcaseTable@8     00506ac6 f   ntosrtl:nlsxlat.obj
 0007:0005caf0       _RtlInitNlsTables@16       00506af0 f   ntosrtl:nlsxlat.obj
 0007:0005cb20       _RtlResetRtlTranslations@4 00506b20 f   ntosrtl:nlsxlat.obj
 0007:0005cc06       _RtlGetDefaultCodePage@8   00506c06 f   ntosrtl:nlsxlat.obj
 0007:0005cc2c       _PfxInitialize@4           00506c2c f   ntosrtl:prefix.obj
 0007:0005cc48       _PfxRemovePrefix@8         00506c48 f   ntosrtl:prefix.obj
 0007:0005ccca       _ComputeNameLength@4       00506cca f   ntosrtl:prefix.obj
 0007:0005cd3c       _CompareNamesCaseSensitive@8 00506d3c f   ntosrtl:prefix.obj
 0007:0005ce8a       _RtlInitializeUnicodePrefix@4 00506e8a f   ntosrtl:prefix.obj
 0007:0005ceaa       _RtlRemoveUnicodePrefix@8  00506eaa f   ntosrtl:prefix.obj
 0007:0005cfc8       _RtlNextUnicodePrefix@8    00506fc8 f   ntosrtl:prefix.obj
 0007:0005d04a       _ComputeUnicodeNameLength@4 0050704a f   ntosrtl:prefix.obj
 0007:0005d07c       _CompareUnicodeStrings@12  0050707c f   ntosrtl:prefix.obj
 0007:0005d24a       _PfxInsertPrefix@12        0050724a f   ntosrtl:prefix.obj
 0007:0005d32c       _PfxFindPrefix@8           0050732c f   ntosrtl:prefix.obj
 0007:0005d3ca       _RtlInsertUnicodePrefix@12 005073ca f   ntosrtl:prefix.obj
 0007:0005d508       _RtlFindUnicodePrefix@12   00507508 f   ntosrtl:prefix.obj
 0007:0005d5d4       _RtlpQuerySecurityDescriptor@36 005075d4 f   ntosrtl:rtlassig.obj
 0007:0005d6d4       _RtlSelfRelativeToAbsoluteSD2@8 005076d4 f   ntosrtl:rtlassig.obj
 0007:0005d752       _RtlSelfRelativeToAbsoluteSD@44 00507752 f   ntosrtl:rtlassig.obj
 0007:0005d8b6       _RtlMakeSelfRelativeSD@12  005078b6 f   ntosrtl:rtlassig.obj
 0007:0005d9d2       _RtlAbsoluteToSelfRelativeSD@12 005079d2 f   ntosrtl:rtlassig.obj
 0007:0005d9fa       _RtlCreateAcl@12           005079fa f   ntosrtl:acledit.obj
 0007:0005da4e       _RtlValidAcl@4             00507a4e f   ntosrtl:acledit.obj
 0007:0005dc70       _RtlGetAce@12              00507c70 f   ntosrtl:acledit.obj
 0007:0005dcda       _RtlFirstFreeAce@8         00507cda f   ntosrtl:acledit.obj
 0007:0005dd2c       _RtlpAddData@16            00507d2c f   ntosrtl:acledit.obj
 0007:0005dd66       _RtlpDeleteData@12         00507d66 f   ntosrtl:acledit.obj
 0007:0005ddb4       _RtlQueryInformationAcl@16 00507db4 f   ntosrtl:acledit.obj
 0007:0005de3e       _RtlAddAce@20              00507e3e f   ntosrtl:acledit.obj
 0007:0005df1e       _RtlDeleteAce@8            00507f1e f   ntosrtl:acledit.obj
 0007:0005df84       _RtlpAddKnownAce@24        00507f84 f   ntosrtl:acledit.obj
 0007:0005e076       _RtlAddAccessAllowedAce@16 00508076 f   ntosrtl:acledit.obj
 0007:0005e098       _RtlAddAccessAllowedAceEx@20 00508098 f   ntosrtl:acledit.obj
 0007:0005e0ba       _RtlAddAuditAccessAce@24   005080ba f   ntosrtl:acledit.obj
 0007:0005e0f0       _RtlpAllocateAtom@8        005080f0 f   ntosrtl:atom.obj
 0007:0005e144       _RtlpFreeAtom@4            00508144 f   ntosrtl:atom.obj
 0007:0005e16c       _RtlpLockAtomTable@4       0050816c f   ntosrtl:atom.obj
 0007:0005e1b8       _RtlpUnlockAtomTable@4     005081b8 f   ntosrtl:atom.obj
 0007:0005e202       _RtlpInitializeHandleTableForAtomTable@4 00508202 f   ntosrtl:atom.obj
 0007:0005e22c       _RtlpDestroyHandleTableForAtomTable@4 0050822c f   ntosrtl:atom.obj
 0007:0005e246       _RtlpAtomMapAtomToHandleEntry@8 00508246 f   ntosrtl:atom.obj
 0007:0005e27e       _RtlpCreateHandleForAtom@8 0050827e f   ntosrtl:atom.obj
 0007:0005e2c0       _RtlpFreeHandleForAtom@8   005082c0 f   ntosrtl:atom.obj
 0007:0005e2e4       _RtlInitializeAtomPackage@4 005082e4 f   ntosrtl:atom.obj
 0007:0005e2fa       _RtlCreateAtomTable@8      005082fa f   ntosrtl:atom.obj
 0007:0005e38a       _RtlDestroyAtomTable@4     0050838a f   ntosrtl:atom.obj
 0007:0005e43a       _RtlEmptyAtomTable@8       0050843a f   ntosrtl:atom.obj
 0007:0005e4e8       _RtlpGetIntegerAtom@8      005084e8 f   ntosrtl:atom.obj
 0007:0005e592       _RtlpHashStringToAtom@16   00508592 f   ntosrtl:atom.obj
 0007:0005e67e       _RtlAddAtomToAtomTable@12  0050867e f   ntosrtl:atom.obj
 0007:0005e81a       _RtlLookupAtomInAtomTable@12 0050881a f   ntosrtl:atom.obj
 0007:0005e902       _RtlDeleteAtomFromAtomTable@8 00508902 f   ntosrtl:atom.obj
 0007:0005e9e2       _RtlPinAtomInAtomTable@8   005089e2 f   ntosrtl:atom.obj
 0007:0005ea82       _RtlQueryAtomInAtomTable@24 00508a82 f   ntosrtl:atom.obj
 0007:0005ec32       _RtlQueryAtomsInAtomTable@16 00508c32 f   ntosrtl:atom.obj
 0007:0005ecd8       _RtlAnsiCharToUnicodeChar@4 00508cd8 f   ntosrtl:nls.obj
 0007:0005ed26       _RtlUpcaseUnicodeString@12 00508d26 f   ntosrtl:nls.obj
 0007:0005edf8       _RtlDowncaseUnicodeString@12 00508df8 f   ntosrtl:nls.obj
 0007:0005eeca       _RtlUpcaseUnicodeChar@4    00508eca f   ntosrtl:nls.obj
 0007:0005ef26       _RtlDowncaseUnicodeChar@4  00508f26 f   ntosrtl:nls.obj
 0007:0005ef82       _RtlFreeAnsiString@4       00508f82 f   ntosrtl:nls.obj
 0007:0005ef82       _RtlFreeUnicodeString@4    00508f82 f   ntosrtl:nls.obj
 0007:0005efa6       _RtlFreeOemString@4        00508fa6 f   ntosrtl:nls.obj
 0007:0005efc4       _RtlxUnicodeStringToAnsiSize@4 00508fc4 f   ntosrtl:nls.obj
 0007:0005efc4       _RtlxUnicodeStringToOemSize@4 00508fc4 f   ntosrtl:nls.obj
 0007:0005efe8       _RtlxAnsiStringToUnicodeSize@4 00508fe8 f   ntosrtl:nls.obj
 0007:0005efe8       _RtlxOemStringToUnicodeSize@4 00508fe8 f   ntosrtl:nls.obj
 0007:0005f00e       _RtlCompareUnicodeString@12 0050900e f   ntosrtl:nls.obj
 0007:0005f114       _RtlEqualUnicodeString@12  00509114 f   ntosrtl:nls.obj
 0007:0005f224       _RtlPrefixUnicodeString@12 00509224 f   ntosrtl:nls.obj
 0007:0005f31c       _RtlCreateUnicodeString@8  0050931c f   ntosrtl:nls.obj
 0007:0005f378       _RtlHashUnicodeString@16   00509378 f   ntosrtl:nls.obj
 0007:0005f442       _RtlFindCharInUnicodeString@16 00509442 f   ntosrtl:nls.obj
 0007:0005f734       _RtlAnsiStringToUnicodeString@12 00509734 f   ntosrtl:nls.obj
 0007:0005f7ea       _RtlUnicodeStringToAnsiString@12 005097ea f   ntosrtl:nls.obj
 0007:0005f8b2       _RtlUpcaseUnicodeStringToAnsiString@12 005098b2 f   ntosrtl:nls.obj
 0007:0005f960       _RtlOemStringToUnicodeString@12 00509960 f   ntosrtl:nls.obj
 0007:0005fa16       _RtlUnicodeStringToOemString@12 00509a16 f   ntosrtl:nls.obj
 0007:0005fac4       _RtlUpcaseUnicodeStringToOemString@12 00509ac4 f   ntosrtl:nls.obj
 0007:0005fb8c       _RtlOemStringToCountedUnicodeString@12 00509b8c f   ntosrtl:nls.obj
 0007:0005fc46       _RtlUnicodeStringToCountedOemString@12 00509c46 f   ntosrtl:nls.obj
 0007:0005fd18       _RtlUpcaseUnicodeStringToCountedOemString@12 00509d18 f   ntosrtl:nls.obj
 0007:0005fdea       _RtlDnsHostNameToComputerName@12 00509dea f   ntosrtl:nls.obj
 0007:0005fe9e       _RtlUpperChar@4            00509e9e f   ntosrtl:string.obj
 0007:0005ffba       _RtlCompareString@12       00509fba f   ntosrtl:string.obj
 0007:0006005c       _RtlPrefixString@12        0050a05c f   ntosrtl:string.obj
 0007:000600e2       _RtlCreateUnicodeStringFromAsciiz@8 0050a0e2 f   ntosrtl:string.obj
 0007:00060118       _RtlUpperString@8          0050a118 f   ntosrtl:string.obj
 0007:00060160       _RtlAppendAsciizToString@8 0050a160 f   ntosrtl:string.obj
 0007:000601be       _RtlAppendStringToString@8 0050a1be f   ntosrtl:string.obj
 0007:00060210       _RtlValidSid@4             0050a210 f   ntosrtl:sertl.obj
 0007:0006025a       _RtlEqualSid@8             0050a25a f   ntosrtl:sertl.obj
 0007:0006028e       _RtlEqualPrefixSid@8       0050a28e f   ntosrtl:sertl.obj
 0007:0006030c       _RtlLengthRequiredSid@4    0050a30c f   ntosrtl:sertl.obj
 0007:00060322       _RtlInitializeSid@12       0050a322 f   ntosrtl:sertl.obj
 0007:00060356       _RtlSubAuthoritySid@8      0050a356 f   ntosrtl:sertl.obj
 0007:0006036c       _RtlSubAuthorityCountSid@4 0050a36c f   ntosrtl:sertl.obj
 0007:0006037c       _RtlLengthSid@4            0050a37c f   ntosrtl:sertl.obj
 0007:00060396       _RtlCopySid@12             0050a396 f   ntosrtl:sertl.obj
 0007:000603cc       _RtlCopySidAndAttributesArray@28 0050a3cc f   ntosrtl:sertl.obj
 0007:0006045e       _RtlLengthSidAsUnicodeString@8 0050a45e f   ntosrtl:sertl.obj
 0007:000604b4       _RtlConvertSidToUnicodeString@12 0050a4b4 f   ntosrtl:sertl.obj
 0007:0006069a       _RtlEqualLuid@8            0050a69a f   ntosrtl:sertl.obj
 0007:000606c2       _RtlCopyLuid@8             0050a6c2 f   ntosrtl:sertl.obj
 0007:000606de       _RtlCopyLuidAndAttributesArray@12 0050a6de f   ntosrtl:sertl.obj
 0007:0006070c       _RtlCreateSecurityDescriptor@8 0050a70c f   ntosrtl:sertl.obj
 0007:0006070c       _RtlCreateSecurityDescriptorRelative@8 0050a70c f   ntosrtl:sertl.obj
 0007:00060738       _RtlValidSecurityDescriptor@4 0050a738 f   ntosrtl:sertl.obj
 0007:0006081a       _RtlLengthSecurityDescriptor@4 0050a81a f   ntosrtl:sertl.obj
 0007:000608cc       _RtlSetDaclSecurityDescriptor@16 0050a8cc f   ntosrtl:sertl.obj
 0007:00060932       _RtlGetDaclSecurityDescriptor@16 0050a932 f   ntosrtl:sertl.obj
 0007:00060992       _RtlSetSaclSecurityDescriptor@16 0050a992 f   ntosrtl:sertl.obj
 0007:000609f8       _RtlGetSaclSecurityDescriptor@16 0050a9f8 f   ntosrtl:sertl.obj
 0007:00060a58       _RtlSetOwnerSecurityDescriptor@12 0050aa58 f   ntosrtl:sertl.obj
 0007:00060aaa       _RtlGetOwnerSecurityDescriptor@12 0050aaaa f   ntosrtl:sertl.obj
 0007:00060aee       _RtlSetGroupSecurityDescriptor@12 0050aaee f   ntosrtl:sertl.obj
 0007:00060b40       _RtlGetGroupSecurityDescriptor@12 0050ab40 f   ntosrtl:sertl.obj
 0007:00060b80       _RtlAreAllAccessesGranted@8 0050ab80 f   ntosrtl:sertl.obj
 0007:00060b9a       _RtlAreAnyAccessesGranted@8 0050ab9a f   ntosrtl:sertl.obj
 0007:00060bb0       _RtlMapGenericMask@8       0050abb0 f   ntosrtl:sertl.obj
 0007:00060c08       _RtlpApplyAclToObject@8    0050ac08 f   ntosrtl:sertl.obj
 0007:00060c84       _RtlpCompareKnownAces@16   0050ac84 f   ntosrtl:sertl.obj
 0007:00060d86       _RtlpCompareKnownObjectAces@16 0050ad86 f   ntosrtl:sertl.obj
 0007:00060f86       _RtlpCreateServerAcl@20    0050af86 f   ntosrtl:sertl.obj
 0007:00061164       _RtlpValidateSDOffsetAndSize@16 0050b164 f   ntosrtl:sertl.obj
 0007:0006119a       _RtlValidRelativeSecurityDescriptor@12 0050b19a f   ntosrtl:sertl.obj
 0007:000612e2       _RtlpGuidPresentInGuidList@12 0050b2e2 f   ntosrtl:sertl.obj
 0007:00061318       _RtlpCopyEffectiveAce@64   0050b318 f   ntosrtl:sertl.obj
 0007:000617e4       _RtlpCopyAces@52           0050b7e4 f   ntosrtl:sertl.obj
 0007:00061ab4       _RtlpComputeMergedAcl2@44  0050bab4 f   ntosrtl:sertl.obj
 0007:00061c84       _RtlpComputeMergedAcl@40   0050bc84 f   ntosrtl:sertl.obj
 0007:00061d1c       _RtlpCompareAces@16        0050bd1c f   ntosrtl:sertl.obj
 0007:00061d80       _RtlpIsDuplicateAce@8      0050bd80 f   ntosrtl:sertl.obj
 0007:00061e60       _RtlpSetSecurityObject@32  0050be60 f   ntosrtl:sertl.obj
 0007:00062528       _RtlpGenerateInheritedAce@56 0050c528 f   ntosrtl:sertl.obj
 0007:00062708       _RtlpGenerateInheritAcl@52 0050c708 f   ntosrtl:sertl.obj
 0007:000627dc       _RtlpInheritAcl2@72        0050c7dc f   ntosrtl:sertl.obj
 0007:00062a74       _RtlpInheritAcl@68         0050ca74 f   ntosrtl:sertl.obj
 0007:00062b22       _RtlpNewSecurityObject@36  0050cb22 f   ntosrtl:sertl.obj
 0007:00063378       _RtlInitializeBitMap@12    0050d378 f   ntosrtl:bitmap.obj
 0007:00063392       _RtlIntegerToChar@16       0050d392 f   ntosrtl:cnvint.obj
 0007:000634b6       _RtlCharToInteger@12       0050d4b6 f   ntosrtl:cnvint.obj
 0007:000635de       _RtlUnicodeStringToInteger@12 0050d5de f   ntosrtl:cnvint.obj
 0007:00063764       _RtlIntegerToUnicode@16    0050d764 f   ntosrtl:cnvint.obj
 0007:00063892       _RtlIntegerToUnicodeString@12 0050d892 f   ntosrtl:cnvint.obj
 0007:000638f4       _RtlLargeIntegerToChar@16  0050d8f4 f   ntosrtl:cnvint.obj
 0007:00063a50       _RtlLargeIntegerToUnicode@16 0050da50 f   ntosrtl:cnvint.obj
 0007:00063bea       _RtlInt64ToUnicodeString@16 0050dbea f   ntosrtl:cnvint.obj
 0007:00063c58       _RtlpQueryRegistryDirect@16 0050dc58 f   ntosrtl:regutil.obj
 0007:00063d3c       _RtlpAllocDeallocQueryBuffer@16 0050dd3c f   ntosrtl:regutil.obj
 0007:00063d8a       _RtlExpandEnvironmentStrings_U@16 0050dd8a f   ntosrtl:regutil.obj
 0007:00063ed4       _RtlGetNtGlobalFlags@0     0050ded4 f   ntosrtl:regutil.obj
 0007:00063efa       _RtlFormatCurrentUserKeyPath@4 0050defa f   ntosrtl:regutil.obj
 0007:00064010       _RtlOpenCurrentUser@8      0050e010 f   ntosrtl:regutil.obj
 0007:000640aa       _RtlpGetRegistryHandle@16  0050e0aa f   ntosrtl:regutil.obj
 0007:00064292       _RtlpCallQueryRegistryRoutine@20 0050e292 f   ntosrtl:regutil.obj
 0007:00064662       _RtlQueryRegistryValues@20 0050e662 f   ntosrtl:regutil.obj
 0007:00064a1e       _RtlWriteRegistryValue@24  0050ea1e f   ntosrtl:regutil.obj
 0007:00064a78       _RtlCheckRegistryKey@8     0050ea78 f   ntosrtl:regutil.obj
 0007:00064aa4       _RtlCreateRegistryKey@8    0050eaa4 f   ntosrtl:regutil.obj
 0007:00064ad6       _RtlDeleteRegistryValue@12 0050ead6 f   ntosrtl:regutil.obj
 0007:00064b48       _RtlpGetTimeZoneInfoHandle@8 0050eb48 f   ntosrtl:regutil.obj
 0007:00064b66       _RtlQueryTimeZoneInformation@4 0050eb66 f   ntosrtl:regutil.obj
 0007:00064c8c       _RtlSetTimeZoneInformation@4 0050ec8c f   ntosrtl:regutil.obj
 0007:00064ddc       _RtlSetActiveTimeBias@4    0050eddc f   ntosrtl:regutil.obj
 0007:00064e62       _RtlpSysVolAllocate@4      0050ee62 f   ntosrtl:sysvol.obj
 0007:00064e7e       _RtlpSysVolAdminSid@4      0050ee7e f   ntosrtl:sysvol.obj
 0007:00064eb2       _RtlpSysVolCreateSecurityDescriptor@8 0050eeb2 f   ntosrtl:sysvol.obj
 0007:00064f8a       _RtlpSysVolCheckOwnerAndSecurity@8 0050ef8a f   ntosrtl:sysvol.obj
 0007:00065214       _RtlCreateSystemVolumeInformationFolder@4 0050f214 f   ntosrtl:sysvol.obj
 0007:000653ec       _RtlFindMessage@20         0050f3ec f   ntosrtl:message.obj
 0007:0006547c       _RtlStringFromGUID@8       0050f47c f   ntosrtl:guid.obj
 0007:00065628       _RtlGUIDFromString@8       0050f628 f   ntosrtl:guid.obj
 0007:000656ac       _RtlNtStatusToDosError@4   0050f6ac f   ntosrtl:error.obj
 0007:000656f2       _RtlTimeToElapsedTimeFields@8 0050f6f2 f   ntosrtl:time.obj
 0007:00065758       _RtlCutoverTimeToSystemTime@16 0050f758 f   ntosrtl:time.obj
 0007:00065922       _RtlpCreateStack@20        0050f922 f   ntosrtl:rtlexec.obj
 0007:00065a7c       _RtlpFreeStack@8           0050fa7c f   ntosrtl:rtlexec.obj
 0007:00065ab4       _RtlCreateUserThread@40    0050fab4 f   ntosrtl:rtlexec.obj
 0007:00065c4c       _LdrProcessRelocationBlockLongLong@20 0050fc4c f   ntosrtl:ldrreloc.obj
 0007:00065e8c       _LdrRelocateImageWithBias@28 0050fe8c f   ntosrtl:ldrreloc.obj
 0007:00065f42       _LdrRelocateImage@20       0050ff42 f   ntosrtl:ldrreloc.obj
 0007:00065f66       _RtlInitializeContext@20   0050ff66 f   ntosrtl:context.obj
 0007:00066020       _SepAdjustPrivileges@36    00510020 f   ntosse:tokenadj.obj
 0007:000662d0       _SepAdjustGroups@40        005102d0 f   ntosse:tokenadj.obj
 0007:00066514       _NtAdjustPrivilegesToken@24 00510514 f   ntosse:tokenadj.obj
 0007:000668c0       _NtAdjustGroupsToken@24    005108c0 f   ntosse:tokenadj.obj
 0007:00066c34       _SepMakeTokenEffectiveOnly@4 00510c34 f   ntosse:tokendup.obj
 0007:00066cce       _SepSidInSidAndAttributes@16 00510cce f   ntosse:tokendup.obj
 0007:00066d58       _SepRemoveDisabledGroupsAndPrivileges@24 00510d58 f   ntosse:tokendup.obj
 0007:00066ec4       _SepFilterToken@44         00510ec4 f   ntosse:tokendup.obj
 0007:00067356       _SepDuplicateToken@28      00511356 f   ntosse:tokendup.obj
 0007:0006773e       _SeCopyClientToken@16      0051173e f   ntosse:tokendup.obj
 0007:000677a4       _NtFilterToken@24          005117a4 f   ntosse:tokendup.obj
 0007:000679f6       _SeFilterToken@24          005119f6 f   ntosse:tokendup.obj
 0007:00067aa6       _SeFastFilterToken@44      00511aa6 f   ntosse:tokendup.obj
 0007:00067b02       _NtDuplicateToken@24       00511b02 f   ntosse:tokendup.obj
 0007:00067cb2       _SepCreateImpersonationTokenDacl@12 00511cb2 f   ntosse:tokenopn.obj
 0007:00067d94       _NtOpenProcessTokenEx@16   00511d94 f   ntosse:tokenopn.obj
 0007:00067e6e       _SepOpenTokenOfThread@28   00511e6e f   ntosse:tokenopn.obj
 0007:00067f00       _NtOpenThreadTokenEx@20    00511f00 f   ntosse:tokenopn.obj
 0007:00068188       _NtOpenProcessToken@12     00512188 f   ntosse:tokenopn.obj
 0007:000681a4       _NtOpenThreadToken@16      005121a4 f   ntosse:tokenopn.obj
 0007:000681c4       _SeQueryAuthenticationIdToken@8 005121c4 f   ntosse:tokenqry.obj
 0007:000681e4       _SeQuerySessionIdToken@8   005121e4 f   ntosse:tokenqry.obj
 0007:0006823e       _NtQueryInformationToken@20 0051223e f   ntosse:tokenqry.obj
 0007:00069680       _SeQueryInformationToken@12 00513680 f   ntosse:tokenqry.obj
 0007:00069b72       _SeCaptureObjectTypeList@16 00513b72 f   ntosse:accessck.obj
 0007:00069d02       _SepObjectInTypeList@16    00513d02 f   ntosse:accessck.obj
 0007:00069d54       _SepUpdateParentTypeList@12 00513d54 f   ntosse:accessck.obj
 0007:00069e20       _SepAddAccessTypeList@20   00513e20 f   ntosse:accessck.obj
 0007:00069ef8       _SepSidInToken@16          00513ef8 f   ntosse:accessck.obj
 0007:00069f8a       _SepSidInTokenEx@20        00513f8a f   ntosse:accessck.obj
 0007:0006a036       _SepMaximumAccessCheck@32  00514036 f   ntosse:accessck.obj
 0007:0006a23e       _SepNormalAccessCheck@36   0051423e f   ntosse:accessck.obj
 0007:0006a420       _SeMaximumAuditMask@16     00514420 f   ntosse:accessck.obj
 0007:0006a488       _SepAccessCheck@64         00514488 f   ntosse:accessck.obj
 0007:0006a8ac       _SePrivilegePolicyCheck@24 005148ac f   ntosse:accessck.obj
 0007:0006a9e4       _SepTokenIsOwner@12        005149e4 f   ntosse:accessck.obj
 0007:0006aa8a       _SeFastTraverseCheck@16    00514a8a f   ntosse:accessck.obj
 0007:0006ab32       _SeAccessCheckByType@48    00514b32 f   ntosse:accessck.obj
 0007:0006b204       _SeAccessCheck@40          00515204 f   ntosse:accessck.obj
 0007:0006b35a       _NtAccessCheck@32          0051535a f   ntosse:accessck.obj
 0007:0006b38a       _NtAccessCheckByType@44    0051538a f   ntosse:accessck.obj
 0007:0006b3be       _NtAccessCheckByTypeResultList@44 005153be f   ntosse:accessck.obj
 0007:0006b3f2       _SeCreateAccessStateEx@24  005153f2 f   ntosse:seastate.obj
 0007:0006b488       _SeDeleteAccessState@4     00515488 f   ntosse:seastate.obj
 0007:0006b4d2       _SeSetAccessStateGenericMapping@8 005154d2 f   ntosse:seastate.obj
 0007:0006b4f2       _SepConcatenatePrivileges@12 005154f2 f   ntosse:seastate.obj
 0007:0006b542       _SeCreateAccessState@16    00515542 f   ntosse:seastate.obj
 0007:0006b570       _SeAppendPrivileges@8      00515570 f   ntosse:seastate.obj
 0007:0006b654       _SeAssignSecurity@28       00515654 f   ntosse:seassign.obj
 0007:0006b6aa       _SeAssignSecurityEx@36     005156aa f   ntosse:seassign.obj
 0007:0006b6e6       _SeDeassignSecurity@4      005156e6 f   ntosse:seassign.obj
 0007:0006b70a       _SeAssignWorldSecurityDescriptor@12 0051570a f   ntosse:seassign.obj
 0007:0006b7d2       @SeDetailedAuditingWithToken@4 005157d2 f   ntosse:sepaudit.obj
 0007:0006b848       _SepAdtAuditThisEventWithContext@16 00515848 f   ntosse:sepaudit.obj
 0007:0006b974       _SepAdtPrivilegeObjectAuditAlarm@32 00515974 f   ntosse:sepaudit.obj
 0007:0006bb42       _SepAdtPrivilegedServiceAuditAlarm@28 00515b42 f   ntosse:sepaudit.obj
 0007:0006bce2       _SepAdtOpenObjectForDeleteAuditAlarm@48 00515ce2 f   ntosse:sepaudit.obj
 0007:0006bf52       _SepQueryNameString@4      00515f52 f   ntosse:sepaudit.obj
 0007:0006bfb8       _SepQueryTypeString@4      00515fb8 f   ntosse:sepaudit.obj
 0007:0006c028       _SeAuditHandleDuplication@16 00516028 f   ntosse:sepaudit.obj
 0007:0006c14c       _SepAdtGenerateDiscardAudit@0 0051614c f   ntosse:sepaudit.obj
 0007:0006c204       _SeInitializeProcessAuditName@12 00516204 f   ntosse:sepaudit.obj
 0007:0006c2e4       _SeLocateProcessImageName@8 005162e4 f   ntosse:sepaudit.obj
 0007:0006c3a4       _SepAuditAssignPrimaryToken@8 005163a4 f   ntosse:sepaudit.obj
 0007:0006c5ce       _SeAuditSystemTimeChange@16 005165ce f   ntosse:sepaudit.obj
 0007:0006c7ce       _SeAuditHardLinkCreation@12 005167ce f   ntosse:sepaudit.obj
 0007:0006c9b0       _SepAdtOpenObjectAuditAlarm@64 005169b0 f   ntosse:sepaudit.obj
 0007:0006ce52       _SepAdtCloseObjectAuditAlarm@12 00516e52 f   ntosse:sepaudit.obj
 0007:0006cfca       _SepAdtDeleteObjectAuditAlarm@12 00516fca f   ntosse:sepaudit.obj
 0007:0006d142       _SeOperationAuditAlarm@20  00517142 f   ntosse:sepaudit.obj
 0007:0006d450       _SepAdtObjectReferenceAuditAlarm@16 00517450 f   ntosse:sepaudit.obj
 0007:0006d62c       _SeAuditProcessCreation@4  0051762c f   ntosse:sepaudit.obj
 0007:0006d7a8       _SeAuditProcessExit@4      005177a8 f   ntosse:sepaudit.obj
 0007:0006d900       _SepSinglePrivilegeCheck@16 00517900 f   ntosse:seaudit.obj
 0007:0006d932       _SepProbeAndCaptureString_U@8 00517932 f   ntosse:seaudit.obj
 0007:0006da32       _SePrivilegeObjectAuditAlarm@24 00517a32 f   ntosse:seaudit.obj
 0007:0006da66       _SeAuditHandleCreation@8   00517a66 f   ntosse:seaudit.obj
 0007:0006dae2       _SeCloseObjectAuditAlarm@12 00517ae2 f   ntosse:seaudit.obj
 0007:0006db26       _SeDeleteObjectAuditAlarm@8 00517b26 f   ntosse:seaudit.obj
 0007:0006db64       _SepExamineSacl@24         00517b64 f   ntosse:seaudit.obj
 0007:0006dc96       _SepAuditTypeList@24       00517c96 f   ntosse:seaudit.obj
 0007:0006dd04       _SepSetAuditInfoForObjectType@44 00517d04 f   ntosse:seaudit.obj
 0007:0006ddea       _SepExamineSaclEx@44       00517dea f   ntosse:seaudit.obj
 0007:0006e0bc       _SepFilterPrivilegeAudits@8 005180bc f   ntosse:seaudit.obj
 0007:0006e16c       _SeAuditingFileOrGlobalEvents@12 0051816c f   ntosse:seaudit.obj
 0007:0006e1ea       _SeAuditingFileEvents@8    005181ea f   ntosse:seaudit.obj
 0007:0006e236       _SeAuditingFileEventsWithContext@12 00518236 f   ntosse:seaudit.obj
 0007:0006e276       _SeAuditingHardLinkEvents@8 00518276 f   ntosse:seaudit.obj
 0007:0006e2d4       _SeAuditingHardLinkEventsWithContext@12 005182d4 f   ntosse:seaudit.obj
 0007:0006e328       _SePrivilegedServiceAuditAlarm@16 00518328 f   ntosse:seaudit.obj
 0007:0006e3b2       _SeOpenObjectAuditAlarm@36 005183b2 f   ntosse:seaudit.obj
 0007:0006e678       _SeOpenObjectForDeleteAuditAlarm@36 00518678 f   ntosse:seaudit.obj
 0007:0006e912       _SeObjectReferenceAuditAlarm@32 00518912 f   ntosse:seaudit.obj
 0007:0006e99e       _SeCheckAuditPrivilege@8   0051899e f   ntosse:seaudit.obj
 0007:0006e9fe       _NtPrivilegeObjectAuditAlarm@24 005189fe f   ntosse:seaudit.obj
 0007:0006ebdc       _NtPrivilegedServiceAuditAlarm@20 00518bdc f   ntosse:seaudit.obj
 0007:0006edea       _SepAccessCheckAndAuditAlarm@68 00518dea f   ntosse:seaudit.obj
 0007:0006f58e       _NtAccessCheckAndAuditAlarm@44 0051958e f   ntosse:seaudit.obj
 0007:0006f5c6       _NtAccessCheckByTypeAndAuditAlarm@64 005195c6 f   ntosse:seaudit.obj
 0007:0006f608       _NtAccessCheckByTypeResultListAndAuditAlarm@64 00519608 f   ntosse:seaudit.obj
 0007:0006f64a       _NtAccessCheckByTypeResultListAndAuditAlarmByHandle@68 0051964a f   ntosse:seaudit.obj
 0007:0006f68e       _NtOpenObjectAuditAlarm@48 0051968e f   ntosse:seaudit.obj
 0007:0006fab0       _NtCloseObjectAuditAlarm@12 00519ab0 f   ntosse:seaudit.obj
 0007:0006fbbc       _NtDeleteObjectAuditAlarm@12 00519bbc f   ntosse:seaudit.obj
 0007:0006fce4       _SeCaptureSecurityDescriptor@20 00519ce4 f   ntosse:capture.obj
 0007:00070306       _SepCopyProxyData@8        0051a306 f   ntosse:capture.obj
 0007:00070384       _SeFreeCapturedObjectTypeList@4 0051a384 f   ntosse:accessck.obj
 0007:00070384       _SepFreeProxyData@4        0051a384 f   ntosse:capture.obj
 0007:000703a0       _SepProbeAndCaptureQosData@4 0051a3a0 f   ntosse:capture.obj
 0007:000704ae       _SeFreeCapturedSecurityQos@4 0051a4ae f   ntosse:capture.obj
 0007:000704dc       _SeCaptureSecurityQos@16   0051a4dc f   ntosse:capture.obj
 0007:0007062e       _SeCaptureSid@28           0051a62e f   ntosse:capture.obj
 0007:0007079c       _SeCaptureAcl@32           0051a79c f   ntosse:capture.obj
 0007:00070902       _SeReleaseAcl@12           0051a902 f   ntosse:capture.obj
 0007:00070902       _SeReleaseSidAndAttributesArray@12 0051a902 f   ntosse:capture.obj
 0007:00070902       _SeReleaseSid@12           0051a902 f   ntosse:capture.obj
 0007:0007092a       _SeCaptureLuidAndAttributesArray@36 0051a92a f   ntosse:capture.obj
 0007:00070a62       _SeReleaseLuidAndAttributesArray@12 0051aa62 f   ntosse:capture.obj
 0007:00070a62       _SeReleaseSecurityDescriptor@12 0051aa62 f   ntosse:capture.obj
 0007:00070a90       _SeCaptureSidAndAttributesArray@36 0051aa90 f   ntosse:capture.obj
 0007:00070e40       _SeCaptureAuditPolicy@28   0051ae40 f   ntosse:capture.obj
 0007:00070fd4       _SeReleaseAuditPolicy@12   0051afd4 f   ntosse:capture.obj
 0007:00071002       _SeComputeQuotaInformationSize@8 0051b002 f   ntosse:capture.obj
 0007:0007108c       _SeValidSecurityDescriptor@8 0051b08c f   ntosse:capture.obj
 0007:000711d4       _SeCaptureSubjectContextEx@12 0051b1d4 f   ntosse:subject.obj
 0007:0007121e       _SeLockSubjectContext@4    0051b21e f   ntosse:subject.obj
 0007:00071262       _SeUnlockSubjectContext@4  0051b262 f   ntosse:subject.obj
 0007:000712d4       _SeReleaseSubjectContext@4 0051b2d4 f   ntosse:subject.obj
 0007:0007130e       _SepGetDefaultsSubjectContext@24 0051b30e f   ntosse:subject.obj
 0007:00071360       _SepIdAssignableAsGroup@8  0051b360 f   ntosse:subject.obj
 0007:000713e4       _SepValidOwnerSubjectContext@12 0051b3e4 f   ntosse:subject.obj
 0007:000714d4       _SeCaptureSubjectContext@4 0051b4d4 f   ntosse:subject.obj
 0007:000714f8       _SepCreateClientSecurity@28 0051b4f8 f   ntosse:seclient.obj
 0007:000715d0       _SeCreateClientSecurity@16 0051b5d0 f   ntosse:seclient.obj
 0007:00071628       _SeImpersonateClientEx@8   0051b628 f   ntosse:seclient.obj
 0007:00071668       _SeCreateClientSecurityFromSubjectContext@16 0051b668 f   ntosse:seclient.obj
 0007:000716c0       _SeImpersonateClient@8     0051b6c0 f   ntosse:seclient.obj
 0007:000716ce       _SepAssemblePrivileges@16  0051b6ce f   ntosse:seglobal.obj
 0007:0007173a       _SepReferenceLogonSession@8 0051b73a f   ntosse:rmlogon.obj
 0007:0007185e       _SepCleanupLUIDDeviceMapDirectory@4 0051b85e f   ntosse:rmlogon.obj
 0007:00071bd8       _SepCreateLogonSessionTrack@4 0051bbd8 f   ntosse:rmlogon.obj
 0007:00071cde       _SepDeleteLogonSessionTrack@4 0051bcde f   ntosse:rmlogon.obj
 0007:00071e0e       _SepInformLsaOfDeletedLogon@4 0051be0e f   ntosse:rmlogon.obj
 0007:00071e7a       _SeRegisterLogonSessionTerminatedRoutine@4 0051be7a f   ntosse:rmlogon.obj
 0007:00071f30       _SeUnregisterLogonSessionTerminatedRoutine@4 0051bf30 f   ntosse:rmlogon.obj
 0007:00072036       _SeMarkLogonSessionForTerminationNotification@4 0051c036 f   ntosse:rmlogon.obj
 0007:000720d4       _SepNotifyFileSystems@4    0051c0d4 f   ntosse:rmlogon.obj
 0007:0007217c       _SepRmCreateLogonSessionWrkr@8 0051c17c f   ntosse:rmlogon.obj
 0007:000721a8       _SepRmDeleteLogonSessionWrkr@8 0051c1a8 f   ntosse:rmlogon.obj
 0007:000721d4       _SepInformFileSystemsOfDeletedLogon@4 0051c1d4 f   ntosse:rmlogon.obj
 0007:00072216       _SepDeReferenceLogonSession@4 0051c216 f   ntosse:rmlogon.obj
 0007:000723b2       _SeGetLogonIdDeviceMap@8   0051c3b2 f   ntosse:rmlogon.obj
 0007:00072704       _SepPrivilegeCheck@20      0051c704 f   ntosse:privileg.obj
 0007:000727d8       _SePrivilegeCheck@12       0051c7d8 f   ntosse:privileg.obj
 0007:00072810       _NtPrivilegeCheck@12       0051c810 f   ntosse:privileg.obj
 0007:000729e0       _SeSinglePrivilegeCheck@12 0051c9e0 f   ntosse:privileg.obj
 0007:00072a48       _SeCheckPrivilegedObject@20 0051ca48 f   ntosse:privileg.obj
 0007:00072ab8       _SeSetSecurityAccessMask@8 0051cab8 f   ntosse:semethod.obj
 0007:00072aea       _SeQuerySecurityAccessMask@8 0051caea f   ntosse:semethod.obj
 0007:00072b12       _SeSetSecurityDescriptorInfo@24 0051cb12 f   ntosse:semethod.obj
 0007:00072b48       _SeSetSecurityDescriptorInfoEx@28 0051cb48 f   ntosse:semethod.obj
 0007:00072b80       _SeQuerySecurityDescriptorInfo@16 0051cb80 f   ntosse:semethod.obj
 0007:00072e64       _SeDefaultObjectMethod@32  0051ce64 f   ntosse:semethod.obj
 0007:00072eda       _SeTokenType@4             0051ceda f   ntosse:token.obj
 0007:00072ef0       _SeTokenIsAdmin@4          0051cef0 f   ntosse:token.obj
 0007:00072f0c       _SeTokenIsRestricted@4     0051cf0c f   ntosse:token.obj
 0007:00072f28       _SeTokenImpersonationLevel@4 0051cf28 f   ntosse:token.obj
 0007:00072f3e       _SeDeassignPrimaryToken@4  0051cf3e f   ntosse:token.obj
 0007:00072f68       _SeExchangePrimaryToken@12 0051cf68 f   ntosse:token.obj
 0007:000730a0       _SeGetTokenControlInformation@8 0051d0a0 f   ntosse:token.obj
 0007:00073126       _SeSubProcessToken@16      0051d126 f   ntosse:token.obj
 0007:00073196       _SepTokenDeleteMethod@4    0051d196 f   ntosse:token.obj
 0007:00073246       _SepCreateToken@84         0051d246 f   ntosse:token.obj
 0007:00073742       _SepIdAssignableAsOwner@8  0051d742 f   ntosse:token.obj
 0007:00073768       _SeIsChildTokenByPointer@8 0051d768 f   ntosse:token.obj
 0007:000737c6       _SeIsSiblingTokenByPointer@8 0051d7c6 f   ntosse:token.obj
 0007:000738e4       _NtImpersonateAnonymousToken@4 0051d8e4 f   ntosse:token.obj
 0007:000739da       _SepComparePrivilegeAndAttributeArrays@16 0051d9da f   ntosse:token.obj
 0007:00073af6       _SepCompareSidAndAttributeArrays@16 0051daf6 f   ntosse:token.obj
 0007:00073bf4       _NtCompareTokens@12        0051dbf4 f   ntosse:token.obj
 0007:00073e28       _SeAssignPrimaryToken@8    0051de28 f   ntosse:token.obj
 0007:00073e7a       _NtCreateToken@52          0051de7a f   ntosse:token.obj
 0007:00074384       _SepRmCommandServerThreadInit@0 0051e384 f   ntosse:rmmain.obj
 0007:00074538       _SepRmCallLsa@4            0051e538 f   ntosse:rmmain.obj
 0007:000747ca       _SepRmCommandServerThread@4 0051e7ca f   ntosse:rmmain.obj
 0007:00074a00       _SepModifyTokenPolicyCounter@8 0051ea00 f   ntosse:tokenset.obj
 0007:00074ab2       _SepExpandDynamic@8        0051eab2 f   ntosse:tokenset.obj
 0007:00074b4c       _SepFreePrimaryGroup@4     0051eb4c f   ntosse:tokenset.obj
 0007:00074b92       _SepFreeDefaultDacl@4      0051eb92 f   ntosse:tokenset.obj
 0007:00074bdc       _SepAppendPrimaryGroup@8   0051ebdc f   ntosse:tokenset.obj
 0007:00074c2e       _SepAppendDefaultDacl@8    0051ec2e f   ntosse:tokenset.obj
 0007:00074c74       _SeSetSessionIdToken@8     0051ec74 f   ntosse:tokenset.obj
 0007:00074ccc       _NtSetInformationToken@16  0051eccc f   ntosse:tokenset.obj
 0007:000757cc       _SepAuditFailed@4          0051f7cc f   ntosse:adtlog.obj
 0007:000758a2       _SepAdtMarshallAuditRecord@12 0051f8a2 f   ntosse:adtlog.obj
 0007:00075a20       _SepAdtCopyToLsaSharedMemory@16 0051fa20 f   ntosse:adtlog.obj
 0007:00075a9e       _SepQueueWorkItem@8        0051fa9e f   ntosse:adtlog.obj
 0007:00075ba8       _SepDequeueWorkItem@0      0051fba8 f   ntosse:adtlog.obj
 0007:00075c6c       _SepAdtLogAuditRecord@4    0051fc6c f   ntosse:adtlog.obj
 0007:00075d26       _SepCheckAcl@8             0051fd26 f   ntosse:sep.obj
 0007:00075d4e       _SepRegQueryDwordValue@12  0051fd4e f   ntosse:adtutil.obj
 0007:00075d6e       _SepRmSetAuditEventWrkr@8  0051fd6e f   ntosse:rmaudit.obj
 0007:00075dbe       _SepAdtValidateAuditBounds@8 0051fdbe f   ntosse:adtinit.obj
 0007:00075e60       _SepAdtInitializeBounds@0  0051fe60 f   ntosse:adtinit.obj
 0007:00075eb8       _ObpReferenceProcessObjectByHandle@28 0051feb8 f   ob:obref.obj
 0007:00076054       _ObpAuditObjectAccess@16   00520054 f   ob:obref.obj
 0007:000760a2       _ObpRemoveObjectRoutine@8  005200a2 f   ob:obref.obj
 0007:00076192       _ObIsObjectDeletionInline@4 00520192 f   ob:obref.obj
 0007:000761a8       _ObReferenceObjectByHandle@24 005201a8 f   ob:obref.obj
 0007:000763d4       _ObReferenceFileObjectForWrite@16 005203d4 f   ob:obref.obj
 0007:00076580       _ObpProcessRemoveObjectQueue@4 00520580 f   ob:obref.obj
 0007:000765e2       _ObOpenObjectByName@28     005205e2 f   ob:obref.obj
 0007:00076992       _ObOpenObjectByPointer@28  00520992 f   ob:obref.obj
 0007:00076a76       _ObReferenceObjectByName@32 00520a76 f   ob:obref.obj
 0007:00076c1c       _ObpDeleteNameCheck@4      00520c1c f   ob:obref.obj
 0007:00076f92       _ObpCloseHandleTableEntry@20 00520f92 f   ob:obclose.obj
 0007:000770d8       _ObpCloseHandle@8          005210d8 f   ob:obclose.obj
 0007:0007724a       _ObCloseHandle@8           0052124a f   ob:obclose.obj
 0007:00077258       _NtClose@4                 00521258 f   ob:obclose.obj
 0007:0007727a       _ObMakeTemporaryObject@4   0052127a f   ob:obclose.obj
 0007:000772f6       _NtMakeTemporaryObject@4   005212f6 f   ob:obclose.obj
 0007:0007735a       _ObReferenceProcessHandleTable@4 0052135a f   ob:obhandle.obj
 0007:000773ba       _ObDereferenceProcessHandleTable@4 005213ba f   ob:obhandle.obj
 0007:000773e8       _ObGetProcessHandleCount@4 005213e8 f   ob:obhandle.obj
 0007:00077414       _ObpInsertHandleCount@4    00521414 f   ob:obhandle.obj
 0007:0007750e       _ObpIncrementHandleDataBase@12 0052150e f   ob:obhandle.obj
 0007:000775c6       _ObpChargeQuotaForObject@12 005215c6 f   ob:obhandle.obj
 0007:00077652       _ObpDecrementHandleCount@16 00521652 f   ob:obhandle.obj
 0007:00077778       _ObpValidateDesiredAccess@4 00521778 f   ob:obhandle.obj
 0007:000777b4       _ObpComputeGrantedAccessIndex@4 005217b4 f   ob:obhandle.obj
 0007:00077886       _ObpTranslateGrantedAccessIndex@4 00521886 f   ob:obhandle.obj
 0007:0007791c       _ObpCaptureHandleInformation@24 0052191c f   ob:obhandle.obj
 0007:000779d0       _ObpCaptureHandleInformationEx@24 005219d0 f   ob:obhandle.obj
 0007:00077a86       _ObpIncrementHandleCount@28 00521a86 f   ob:obhandle.obj
 0007:00077e98       _ObpIncrementUnnamedHandleCount@24 00521e98 f   ob:obhandle.obj
 0007:000781a0       _ObpCreateHandle@40        005221a0 f   ob:obhandle.obj
 0007:000786bc       _ObpCreateUnnamedHandle@28 005226bc f   ob:obhandle.obj
 0007:0007884c       _ObDuplicateObject@32      0052284c f   ob:obhandle.obj
 0007:00078c12       _NtDuplicateObject@28      00522c12 f   ob:obhandle.obj
 0007:00078d36       _ObGetHandleInformation@12 00522d36 f   ob:obhandle.obj
 0007:00078d7a       _ObGetHandleInformationEx@12 00522d7a f   ob:obhandle.obj
 0007:00078dbe       _NtCreateDirectoryObject@12 00522dbe f   ob:obdir.obj
 0007:00078e90       _NtOpenDirectoryObject@12  00522e90 f   ob:obdir.obj
 0007:00078f30       _NtQueryDirectoryObject@28 00522f30 f   ob:obdir.obj
 0007:00079332       _ObpInsertDirectoryEntry@12 00523332 f   ob:obdir.obj
 0007:00079388       _ObpDeleteDirectoryEntry@4 00523388 f   ob:obdir.obj
 0007:000793bc       _ObpGetShadowDirectory@4   005233bc f   ob:obdir.obj
 0007:00079462       @ObfDereferenceDeviceMap@4 00523462 f   ob:obdir.obj
 0007:00079560       _NtMakePermanentObject@4   00523560 f   ob:obdir.obj
 0007:00079636       _ObpTryReferenceNameInfoExclusive@4 00523636 f   ob:obdir.obj
 0007:00079688       _ObpReleaseExclusiveNameLock@4 00523688 f   ob:obdir.obj
 0007:000796aa       _ObpUnlinkDirectoryEntry@8 005236aa f   ob:obdir.obj
 0007:000796c8       _ObpReleaseLookupContextObject@4 005236c8 f   ob:obdir.obj
 0007:0007973c       _ObpLookupDirectoryEntry@20 0052373c f   ob:obdir.obj
 0007:00079a74       _ObpSetCurrentProcessDeviceMap@0 00523a74 f   ob:obdir.obj
 0007:00079bb2       _ObpReferenceDeviceMap@0   00523bb2 f   ob:obdir.obj
 0007:00079dbc       _ObpLookupObjectName@44    00523dbc f   ob:obdir.obj
 0007:0007a7ac       _ObSwapObjectNames@16      005247ac f   ob:obdir.obj
 0007:0007ad66       _ObSetSecurityObjectByPointer@12 00524d66 f   ob:obse.obj
 0007:0007ad98       _NtQuerySecurityObject@20  00524d98 f   ob:obse.obj
 0007:0007ae9e       _ObAssignObjectSecurityDescriptor@12 00524e9e f   ob:obse.obj
 0007:0007aee8       _ObGetObjectSecurity@12    00524ee8 f   ob:obse.obj
 0007:0007affe       _ObReleaseObjectSecurity@8 00524ffe f   ob:obse.obj
 0007:0007b02c       _ObValidateSecurityQuota@8 0052502c f   ob:obse.obj
 0007:0007b084       _ObAssignSecurity@16       00525084 f   ob:obse.obj
 0007:0007b0ee       _ObQuerySecurityDescriptorInfo@20 005250ee f   ob:obse.obj
 0007:0007b132       _ObSetSecurityDescriptorInfo@24 00525132 f   ob:obse.obj
 0007:0007b256       _ObpValidateAccessMask@4   00525256 f   ob:obse.obj
 0007:0007b282       _NtSetSecurityObject@12    00525282 f   ob:obse.obj
 0007:0007b34c       _ObCheckObjectAccess@20    0052534c f   ob:obse.obj
 0007:0007b42c       _ObpCheckObjectReference@20 0052542c f   ob:obse.obj
 0007:0007b4e0       _ObpCheckTraverseAccess@24 005254e0 f   ob:obse.obj
 0007:0007b592       _ObCheckCreateObjectAccess@28 00525592 f   ob:obse.obj
 0007:0007b638       _NtWaitForSingleObject@12  00525638 f   ob:obwait.obj
 0007:0007b72c       _ObpWaitForMultipleObjects@20 0052572c f   ob:obwait.obj
 0007:0007b9c8       _NtWaitForMultipleObjects@20 005259c8 f   ob:obwait.obj
 0007:0007babe       _NtWaitForMultipleObjects32@20 00525abe f   ob:obwait.obj
 0007:0007bbb0       _ObpAllocateObjectNameBuffer@12 00525bb0 f   ob:obcreate.obj
 0007:0007bc3a       @ObpFreeObjectNameBuffer@4 00525c3a f   ob:obcreate.obj
 0007:0007bc92       _ObDeleteCapturedInsertInfo@4 00525c92 f   ob:obcreate.obj
 0007:0007bd12       _ObpAllocateObject@24      00525d12 f   ob:obcreate.obj
 0007:0007bf2c       @ObpFreeObject@4           00525f2c f   ob:obcreate.obj
 0007:0007c0c4       @ObFreeObjectCreateInfoBuffer@4 005260c4 f   ob:obcreate.obj
 0007:0007c10e       _ObpCaptureObjectName@16   0052610e f   ob:obcreate.obj
 0007:0007c22a       _ObpCaptureObjectCreateInformation@28 0052622a f   ob:obcreate.obj
 0007:0007c3cc       _ObCreateObject@36         005263cc f   ob:obcreate.obj
 0007:0007c586       _ObCreateObjectType@16     00526586 f   ob:obtype.obj
 0007:0007cd14       _ObpDeleteObjectType@4     00526d14 f   ob:obtype.obj
 0007:0007cd44       _ObpCreateTypeArray@4      00526d44 f   ob:obtype.obj
 0007:0007cdf8       _ObpDestroyTypeArray@4     00526df8 f   ob:obtype.obj
 0007:0007ce3c       _ObGetObjectInformation@16 00526e3c f   ob:obtype.obj
 0007:0007d2d2       _ObEnumerateObjectsByType@12 005272d2 f   ob:obtype.obj
 0007:0007d36e       _ObpHashBuffer@8           0052736e f   ob:obsdata.obj
 0007:0007d3ae       _ObpCreateCacheEntry@16    005273ae f   ob:obsdata.obj
 0007:0007d3f8       _ObReferenceSecurityDescriptor@8 005273f8 f   ob:obsdata.obj
 0007:0007d412       _ObpReferenceSecurityDescriptor@4 00527412 f   ob:obsdata.obj
 0007:0007d4fc       _ObpCompareSecurityDescriptors@12 005274fc f   ob:obsdata.obj
 0007:0007d52a       _ObLogSecurityDescriptor@12 0052752a f   ob:obsdata.obj
 0007:0007d71a       _ObDereferenceSecurityDescriptor@8 0052771a f   ob:obsdata.obj
 0007:0007d824       _ObDeassignSecurity@4      00527824 f   ob:obsdata.obj
 0007:0007d84a       _ObDupHandleProcedure@16   0052784a f   ob:obinit.obj
 0007:0007d8f8       _ObAuditInheritedHandleProcedure@12 005278f8 f   ob:obinit.obj
 0007:0007d922       _ObInitProcess@8           00527922 f   ob:obinit.obj
 0007:0007d9c8       _ObpCloseHandleProcedure@12 005279c8 f   ob:obinit.obj
 0007:0007d9ee       _ObClearProcessHandleTable@4 005279ee f   ob:obinit.obj
 0007:0007da7e       _ObKillProcess@4           00527a7e f   ob:obinit.obj
 0007:0007db24       _ObpEnumFindHandleProcedure@12 00527b24 f   ob:obinit.obj
 0007:0007dba6       _ObFindHandleForObject@20  00527ba6 f   ob:obinit.obj
 0007:0007dc06       _ObpShutdownCloseHandleProcedure@12 00527c06 f   ob:obinit.obj
 0007:0007dc52       _ObShutdownSystem@4        00527c52 f   ob:obinit.obj
 0007:0007df94       _ObInsertObject@24         00527f94 f   ob:obinsert.obj
 0007:0007e762       _ObpQueryNameString@20     00528762 f   ob:obquery.obj
 0007:0007f076       _ObQueryTypeName@16        00529076 f   ob:obquery.obj
 0007:0007f122       _ObQueryTypeInfo@16        00529122 f   ob:obquery.obj
 0007:0007f212       _ObQueryObjectAuditingByHandle@8 00529212 f   ob:obquery.obj
 0007:0007f2b4       _ObpSetHandleAttributes@8  005292b4 f   ob:obquery.obj
 0007:0007f302       _NtQueryObject@20          00529302 f   ob:obquery.obj
 0007:0007f8aa       _ObSetHandleAttributes@12  005298aa f   ob:obquery.obj
 0007:0007f958       _NtSetInformationObject@16 00529958 f   ob:obquery.obj
 0007:0007fafe       _ObQueryNameString@16      00529afe f   ob:obquery.obj
 0007:0007fb1e       _NtCreateSymbolicLinkObject@16 00529b1e f   ob:oblink.obj
 0007:0007fcfe       _NtOpenSymbolicLinkObject@12 00529cfe f   ob:oblink.obj
 0007:0007fd9e       _NtQuerySymbolicLinkObject@12 00529d9e f   ob:oblink.obj
 0007:0007ffb0       _ObpParseSymbolicLink@40   00529fb0 f   ob:oblink.obj
 0007:00080288       _ObpDeleteSymbolicLink@4   0052a288 f   ob:oblink.obj
 0007:000802ac       _ObpProcessDosDeviceSymbolicLink@8 0052a2ac f   ob:oblink.obj
 0007:000808c0       _ObpDeleteSymbolicLinkName@4 0052a8c0 f   ob:oblink.obj
 0007:000808d6       _ObpCreateSymbolicLinkName@4 0052a8d6 f   ob:oblink.obj
 0007:000809e4       _ObSetDirectoryDeviceMap@8 0052a9e4 f   ob:obdevmap.obj
 0007:00080c3c       _ObSetDeviceMap@8          0052ac3c f   ob:obdevmap.obj
 0007:00080eee       _ObQueryDeviceMapInformation@12 0052aeee f   ob:obdevmap.obj
 0007:000810f4       _ObInheritDeviceMap@8      0052b0f4 f   ob:obdevmap.obj
 0007:000811a8       _ObDereferenceDeviceMap@4  0052b1a8 f   ob:obdevmap.obj
 0007:00081250       _ObIsLUIDDeviceMapsEnabled@0 0052b250 f   ob:obdevmap.obj
 0007:0008125c       @ObInitializeFastReference@8 0052b25c f   ob:fastref.obj
 0007:00081282       @ObFastReferenceObject@4   0052b282 f   ob:fastref.obj
 0007:000812f2       @ObFastReferenceObjectLocked@4 0052b2f2 f   ob:fastref.obj
 0007:0008130c       @ObFastDereferenceObject@8 0052b30c f   ob:fastref.obj
 0007:00081338       @ObFastReplaceObject@8     0052b338 f   ob:fastref.obj
 0007:00081376       _PerfInfoFlushProfileCache@0 0052b376 f   perf:hooks.obj
 0007:000813cc       _NtOpenProcess@16          0052b3cc f   ps:psopen.obj
 0007:0008165a       _NtOpenThread@16           0052b65a f   ps:psopen.obj
 0007:000818d2       _PspQueryQuotaLimits@24    0052b8d2 f   ps:psquery.obj
 0007:00081a06       _PspQueryPooledQuotaLimits@24 0052ba06 f   ps:psquery.obj
 0007:00081b04       _PspSetPrimaryToken@20     0052bb04 f   ps:psquery.obj
 0007:00081cac       _NtQueryInformationProcess@20 0052bcac f   ps:psquery.obj
 0007:00082cc2       _NtQueryPortInformationProcess@0 0052ccc2 f   ps:psquery.obj
 0007:00082ccc       _PspSetQuotaLimits@20      0052cccc f   ps:psquery.obj
 0007:00083098       _NtQueryInformationThread@20 0052d098 f   ps:psquery.obj
 0007:00083690       _NtSetInformationThread@16 0052d690 f   ps:psquery.obj
 0007:00083fc4       _NtGetCurrentProcessorNumber@0 0052dfc4 f   ps:psquery.obj
 0007:00083fd2       _PsEstablishWin32Callouts@4 0052dfd2 f   ps:psquery.obj
 0007:00084070       _PspComputeQuantumAndPriority@12 0052e070 f   ps:psquery.obj
 0007:000840f2       _PsConvertToGuiThread@0    0052e0f2 f   ps:psquery.obj
 0007:0008425e       _PsSetProcessPriorityByClass@8 0052e25e f   ps:psquery.obj
 0007:00084286       _NtSetInformationProcess@16 0052e286 f   ps:psquery.obj
 0007:000851a8       _PsReferencePrimaryToken@4 0052f1a8 f   ps:security.obj
 0007:00085232       _PsReferenceImpersonationToken@16 0052f232 f   ps:security.obj
 0007:000852e8       _PsReferenceEffectiveToken@16 0052f2e8 f   ps:security.obj
 0007:0008546a       _PsOpenTokenOfProcess@8    0052f46a f   ps:security.obj
 0007:000854be       _PsDisableImpersonation@8  0052f4be f   ps:security.obj
 0007:000855a6       _PsRestoreImpersonation@8  0052f5a6 f   ps:security.obj
 0007:00085670       _PspInitializeProcessSecurity@8 0052f670 f   ps:security.obj
 0007:000856ec       _PspDeleteProcessSecurity@4 0052f6ec f   ps:security.obj
 0007:0008570a       _PspAssignPrimaryToken@12  0052f70a f   ps:security.obj
 0007:000857dc       _PspDeleteThreadSecurity@4 0052f7dc f   ps:security.obj
 0007:00085826       _PspWriteTebImpersonationInfo@8 0052f826 f   ps:security.obj
 0007:00085934       _PsDereferenceImpersonationToken@4 0052f934 f   ps:security.obj
 0007:0008594c       _PspSinglePrivCheck@16     0052f94c f   ps:security.obj
 0007:0008599a       _PspSinglePrivCheckAudit@8 0052f99a f   ps:security.obj
 0007:000859ce       _PsImpersonateClient@20    0052f9ce f   ps:security.obj
 0007:00085cae       _PsRevertToSelf@0          0052fcae f   ps:security.obj
 0007:00085d50       _PsRevertThreadToSelf@4    0052fd50 f   ps:security.obj
 0007:00085e04       _PsAssignImpersonationToken@8 0052fe04 f   ps:security.obj
 0007:00085e8a       _PsChargeSharedPoolQuota@12 0052fe8a f   ps:psquota.obj
 0007:00086066       _PsReturnSharedPoolQuota@12 00530066 f   ps:psquota.obj
 0007:000861fa       _PspInheritQuota@8         005301fa f   ps:psquota.obj
 0007:00086238       _PspDereferenceQuota@4     00530238 f   ps:psquota.obj
 0007:0008625e       _PspCreateProcess@36       0053025e f   ps:create.obj
 0007:00086ab8       _PsSetCreateProcessNotifyRoutine@8 00530ab8 f   ps:create.obj
 0007:00086b86       _PsSetCreateThreadNotifyRoutine@4 00530b86 f   ps:create.obj
 0007:00086be8       _PsRemoveCreateThreadNotifyRoutine@4 00530be8 f   ps:create.obj
 0007:00086c64       _PspUserThreadStartup@8    00530c64 f   ps:create.obj
 0007:00086db6       _PspUnhandledExceptionInSystemThread@4 00530db6 f   ps:create.obj
 0007:00086dd4       _PspSystemThreadStartup@8  00530dd4 f   ps:create.obj
 0007:00086e30       _PsSetLoadImageNotifyRoutine@4 00530e30 f   ps:create.obj
 0007:00086e9a       _PsRemoveLoadImageNotifyRoutine@4 00530e9a f   ps:create.obj
 0007:00086f16       _PsCallImageNotifyRoutines@12 00530f16 f   ps:create.obj
 0007:00086f64       _PspCreateThread@44        00530f64 f   ps:create.obj
 0007:00087760       _NtCreateProcessEx@36      00531760 f   ps:create.obj
 0007:000877ec       _PsCreateSystemProcess@12  005317ec f   ps:create.obj
 0007:00087814       _NtCreateThread@32         00531814 f   ps:create.obj
 0007:0008791a       _PsCreateSystemThread@28   0053191a f   ps:create.obj
 0007:00087954       _NtCreateProcess@32        00531954 f   ps:create.obj
 0007:00087998       _NtQueueApcThread@20       00531998 f   ps:psctx.obj
 0007:00087a4a       _PsGetContextThread@12     00531a4a f   ps:psctx.obj
 0007:00087c46       _NtGetContextThread@8      00531c46 f   ps:psctx.obj
 0007:00087cb0       _PsSetContextThread@12     00531cb0 f   ps:psctx.obj
 0007:00087e64       _NtSetContextThread@8      00531e64 f   ps:psctx.obj
 0007:00087ece       _PsIsProcessBeingDebugged@4 00531ece f   ps:pshelper.obj
 0007:00087ee8       _PsGetProcessExitProcessCalled@4 00531ee8 f   ps:pshelper.obj
 0007:00087f02       _PsGetThreadSessionId@4    00531f02 f   ps:pshelper.obj
 0007:00087f1c       _PsIsSystemProcess@4       00531f1c f   ps:pshelper.obj
 0007:00087f34       _PsSetJobUIRestrictionsClass@8 00531f34 f   ps:pshelper.obj
 0007:00087f4c       _PsSetProcessPriorityClass@8 00531f4c f   ps:pshelper.obj
 0007:00087f64       _PsSetProcessWin32Process@12 00531f64 f   ps:pshelper.obj
 0007:00088022       _PsSetProcessWindowStation@8 00532022 f   ps:pshelper.obj
 0007:0008803a       _PsSetThreadWin32Thread@12 0053203a f   ps:pshelper.obj
 0007:0008806c       _PsGetProcessSecurityPort@4 0053206c f   ps:pshelper.obj
 0007:00088082       _PsSetProcessSecurityPort@8 00532082 f   ps:pshelper.obj
 0007:0008809c       _PsIsThreadImpersonating@4 0053209c f   ps:pshelper.obj
 0007:000880b6       _PsReferenceProcessFilePointer@8 005320b6 f   ps:pshelper.obj
 0007:00088144       _PsSetBBTNotifyRoutine@4   00532144 f   ps:psdelete.obj
 0007:0008815e       _PspWaitForUsermodeExit@4  0053215e f   ps:psdelete.obj
 0007:000881ca       _PspCatchCriticalBreak@12  005321ca f   ps:psdelete.obj
 0007:00088248       _PspExitProcess@8          00532248 f   ps:psdelete.obj
 0007:00088460       _PspProcessDelete@4        00532460 f   ps:psdelete.obj
 0007:00088636       _PspThreadDelete@4         00532636 f   ps:psdelete.obj
 0007:00088720       _NtRegisterThreadTerminatePort@4 00532720 f   ps:psdelete.obj
 0007:0008878e       _PsGetProcessExitTime@0    0053278e f   ps:psdelete.obj
 0007:000887aa       _PspFreezeProcessWorker@8  005327aa f   ps:psdelete.obj
 0007:000887f4       _PsWaitForAllProcesses@0   005327f4 f   ps:psdelete.obj
 0007:000888dc       _PspExitThread@4           005328dc f   ps:psdelete.obj
 0007:00088f2e       _PsExitSpecialApc@20       00532f2e f   ps:psdelete.obj
 0007:00088f52       _PspExitNormalApc@12       00532f52 f   ps:psdelete.obj
 0007:00088fcc       _PspTerminateThreadByPointer@12 00532fcc f   ps:psdelete.obj
 0007:000890e4       _NtTerminateProcess@8      005330e4 f   ps:psdelete.obj
 0007:00089278       _PspTerminateProcess@8     00533278 f   ps:psdelete.obj
 0007:000892e6       _NtTerminateThread@8       005332e6 f   ps:psdelete.obj
 0007:0008937a       _PsTerminateSystemThread@4 0053337a f   ps:psdelete.obj
 0007:000893a8       _PsTerminateProcess@8      005333a8 f   ps:psdelete.obj
 0007:000893b6       _PsShutdownSystem@0        005333b6 f   ps:psdelete.obj
 0007:00089568       _PsMapSystemDll@12         00533568 f   ps:psinit.obj
 0007:0008963e       _PsChangeQuantumTable@8    0053363e f   ps:psinit.obj
 0007:000897ba       _PsLocateSystemDll@4       005337ba f   ps:psinit.obj
 0007:000899be       _PsLookupProcessThreadByCid@12 005339be f   ps:pscid.obj
 0007:00089a78       _PsLookupProcessByProcessId@8 00533a78 f   ps:pscid.obj
 0007:00089b02       _PsLookupThreadByThreadId@8 00533b02 f   ps:pscid.obj
 0007:00089b8c       _PsEnumProcesses@8         00533b8c f   ps:psenum.obj
 0007:00089d18       _PsGetNextProcess@4        00533d18 f   ps:psenum.obj
 0007:00089dfa       _PsGetNextProcessThread@8  00533dfa f   ps:psenum.obj
 0007:00089eb0       _PsGetNextJob@4            00533eb0 f   ps:psenum.obj
 0007:00089f8c       _PsGetNextJobProcess@8     00533f8c f   ps:psenum.obj
 0007:0008a024       _PspGetNextJobProcess@8    00534024 f   ps:psenum.obj
 0007:0008a07a       _PspQueryLdtInformation@16 0053407a f   ps:psldt.obj
 0007:0008a1f6       _PspCreateLdt@16           005341f6 f   ps:psldt.obj
 0007:0008a24e       _PspIsDescriptorValid@4    0053424e f   ps:psldt.obj
 0007:0008a31c       _PspQueryDescriptorThread@16 0053431c f   ps:psldt.obj
 0007:0008a466       _PspDeleteLdt@4            00534466 f   ps:psldt.obj
 0007:0008a4a2       _PsSetLdtEntries@24        005344a2 f   ps:psldt.obj
 0007:0008a73e       _NtSetLdtEntries@24        0053473e f   ps:psldt.obj
 0007:0008a74c       _PsSetProcessLdtInfo@8     0053474c f   ps:psldt.obj
 0007:0008aa96       _PspSetLdtSize@12          00534a96 f   ps:psldt.obj
 0007:0008abd6       _PspSetLdtInformation@12   00534bd6 f   ps:psldt.obj
 0007:0008aef0       _PsSuspendThread@8         00534ef0 f   ps:psspnd.obj
 0007:0008b006       _PsSuspendProcess@4        00535006 f   ps:psspnd.obj
 0007:0008b07a       _PsResumeProcess@4         0053507a f   ps:psspnd.obj
 0007:0008b0ec       _NtSuspendThread@8         005350ec f   ps:psspnd.obj
 0007:0008b1b0       _PsResumeThread@8          005351b0 f   ps:psspnd.obj
 0007:0008b1d0       _NtResumeThread@8          005351d0 f   ps:psspnd.obj
 0007:0008b296       _NtSuspendProcess@4        00535296 f   ps:psspnd.obj
 0007:0008b2ea       _NtResumeProcess@4         005352ea f   ps:psspnd.obj
 0007:0008b33e       _NtAlertThread@4           0053533e f   ps:psspnd.obj
 0007:0008b38c       _NtAlertResumeThread@8     0053538c f   ps:psspnd.obj
 0007:0008b44c       _NtTestAlert@0             0053544c f   ps:psspnd.obj
 0007:0008b46e       _NtCreateJobObject@12      0053546e f   ps:psjob.obj
 0007:0008b632       _NtOpenJobObject@12        00535632 f   ps:psjob.obj
 0007:0008b6d8       _NtQueryInformationJobObject@20 005356d8 f   ps:psjob.obj
 0007:0008c0d8       _PspApplyJobLimitsToProcess@8 005360d8 f   ps:psjob.obj
 0007:0008c284       _PspFoldProcessAccountingIntoJob@8 00536284 f   ps:psjob.obj
 0007:0008c392       _PspCaptureTokenFilter@12  00536392 f   ps:psjob.obj
 0007:0008c51e       _PsChangeJobMemoryUsage@8  0053651e f   ps:psjob.obj
 0007:0008c678       _PsReportProcessMemoryLimitViolation@0 00536678 f   ps:psjob.obj
 0007:0008c778       _PspShutdownJobLimits@0    00536778 f   ps:psjob.obj
 0007:0008c81a       _NtIsProcessInJob@8        0053681a f   ps:psjob.obj
 0007:0008c8cc       _PspGetJobFromSet@12       005368cc f   ps:psjob.obj
 0007:0008c9dc       _NtCreateJobSet@12         005369dc f   ps:psjob.obj
 0007:0008cc82       _PspWin32SessionCallout@12 00536c82 f   ps:psjob.obj
 0007:0008cd0e       _PspAddProcessToJob@8      00536d0e f   ps:psjob.obj
 0007:0008cf7e       _PspRemoveProcessFromJob@8 00536f7e f   ps:psjob.obj
 0007:0008cffe       _PspExitProcessFromJob@8   00536ffe f   ps:psjob.obj
 0007:0008d06e       _PspJobDelete@4            0053706e f   ps:psjob.obj
 0007:0008d214       _PspApplyJobLimitsToProcessSet@4 00537214 f   ps:psjob.obj
 0007:0008d292       _PspTerminateAllProcessesInJob@12 00537292 f   ps:psjob.obj
 0007:0008d364       _NtAssignProcessToJobObject@8 00537364 f   ps:psjob.obj
 0007:0008d610       _PspJobClose@20            00537610 f   ps:psjob.obj
 0007:0008d726       _NtSetInformationJobObject@16 00537726 f   ps:psjob.obj
 0007:0008e346       _NtTerminateJobObject@8    00538346 f   ps:psjob.obj
 0007:0008e39a       _PsEnforceExecutionTimeLimits@0 0053839a f   ps:psjob.obj
 0007:0008e676       _PspJobTimeLimitsWork@4    00538676 f   ps:psjob.obj
 0007:0008e72e       _NtImpersonateThread@12    0053872e f   ps:psimpers.obj
 0007:0008e84c       _PspDeleteVdmObjects@4     0053884c f   ps:psvdm.obj
 0007:0008e91a       _Psp386CreateVdmIoListHead@4 0053891a f   ps:psvdm.obj
 0007:0008ea00       _Psp386InsertVdmIoHandlerBlock@8 00538a00 f   ps:psvdm.obj
 0007:0008ea54       _Psp386GetVdmIoHandler@8   00538a54 f   ps:psvdm.obj
 0007:0008ea84       _Psp386RemoveIoHandler@12  00538a84 f   ps:psvdm.obj
 0007:0008eb96       _Psp386InstallIoHandler@16 00538b96 f   ps:psvdm.obj
 0007:0008ed96       _Ps386GetVdmIoHandler@16   00538d96 f   ps:psvdm.obj
 0007:0008ee1e       _PspSetProcessIoHandlers@12 00538e1e f   ps:psvdm.obj
 0007:0008eedc       _PspGetContext@12          00538edc f   ps:psctx386.obj
 0007:0008eef6       _PspSetContext@16          00538ef6 f   ps:psctx386.obj
 0007:0008ef16       _PspGetSetContextSpecialApc@20 00538f16 f   ps:psctx386.obj
 0007:0008ef6e       _WmiQueryTrace@4           00538f6e f   wmi:traceapi.obj
 0007:0008ef92       _WmiStopTrace@4            00538f92 f   wmi:traceapi.obj
 0007:0008f0e0       _WmiUpdateTrace@4          005390e0 f   wmi:traceapi.obj
 0007:0008f6fc       _WmiFlushTrace@4           005396fc f   wmi:traceapi.obj
 0007:0008f7d8       _WmiQueryTraceInformation@20 005397d8 f   wmi:traceapi.obj
 0007:0008fc5e       _WmiStartTrace@4           00539c5e f   wmi:traceapi.obj
 0007:0008fcfa       _IoWMIRegistrationControl@8 00539cfa f   wmi:api.obj
 0007:0008fdf0       _IoWMIAllocateInstanceIds@12 00539df0 f   wmi:api.obj
 0007:0008fed4       _IoWMISuggestInstanceName@16 00539ed4 f   wmi:api.obj
 0007:00090112       _IoWMIQueryAllData@12      0053a112 f   wmi:api.obj
 0007:000901a4       _IoWMIQueryAllDataMultiple@16 0053a1a4 f   wmi:api.obj
 0007:0009022e       _IoWMIQuerySingleInstance@16 0053a22e f   wmi:api.obj
 0007:00090314       _IoWMIQuerySingleInstanceMultiple@20 0053a314 f   wmi:api.obj
 0007:000903aa       _IoWMISetSingleInstance@20 0053a3aa f   wmi:api.obj
 0007:0009047a       _IoWMISetSingleItem@24     0053a47a f   wmi:api.obj
 0007:00090552       _IoWMIExecuteMethod@24     0053a552 f   wmi:api.obj
 0007:0009067e       _IoWMISetNotificationCallback@12 0053a67e f   wmi:api.obj
 0007:000906ae       _IoWMIHandleToInstanceName@12 0053a6ae f   wmi:api.obj
 0007:000906ce       _IoWMIDeviceObjectToInstanceName@12 0053a6ce f   wmi:api.obj
 0007:00090762       _IoWMIOpenBlock@12         0053a762 f   wmi:api.obj
 0007:0009087e       _WmipExtendBase@8          0053a87e f   wmi:tracesup.obj
 0007:000908b6       _WmipInitContext@0         0053a8b6 f   wmi:tracesup.obj
 0007:00090930       _WmipFreeTraceBufferPool@4 0053a930 f   wmi:tracesup.obj
 0007:00090a48       _WmipLookupLoggerIdByName@8 0053aa48 f   wmi:tracesup.obj
 0007:00090aac       _WmipShutdown@8            0053aaac f   wmi:tracesup.obj
 0007:00090b98       _WmipNtDllLoggerInfo@4     0053ab98 f   wmi:tracesup.obj
 0007:00090f26       _WmipStopLoggerInstance@4  0053af26 f   wmi:tracesup.obj
 0007:00090fda       _WmipVerifyLoggerInfo@8    0053afda f   wmi:tracesup.obj
 0007:000911e8       _WmipFreeLoggerContext@4   0053b1e8 f   wmi:tracesup.obj
 0007:0009139e       _WmipAllocateTraceBufferPool@4 0053b39e f   wmi:tracesup.obj
 0007:000914a2       _WmipFlushLogger@8         0053b4a2 f   wmi:tracesup.obj
 0007:00091518       _WmipStartLogger@4         0053b518 f   wmi:tracesup.obj
 0007:000923ae       _WmipQueryLogger@8         0053c3ae f   wmi:tracesup.obj
 0007:00092680       _WmipAdjustFreeBuffers@4   0053c680 f   wmi:tracelog.obj
 0007:000926ba       _WmipSendNotification@12   0053c6ba f   wmi:tracelog.obj
 0007:0009273c       _WmipPrepareHeader@12      0053c73c f   wmi:tracelog.obj
 0007:000927f4       _WmiBootPhase1@0           0053c7f4 f   wmi:tracelog.obj
 0007:00092804       _WmipFinalizeHeader@8      0053c804 f   wmi:tracelog.obj
 0007:00092912       _WmipCreateLogFile@12      0053c912 f   wmi:tracelog.obj
 0007:00092c46       _WmipFlushActiveBuffers@8  0053cc46 f   wmi:tracelog.obj
 0007:00092d88       _WmipGenerateFileName@12   0053cd88 f   wmi:tracelog.obj
 0007:00092e5c       _WmipSwitchToNewFile@4     0053ce5c f   wmi:tracelog.obj
 0007:0009301c       _WmipRequestLogFile@4      0053d01c f   wmi:tracelog.obj
 0007:000930b8       _WmipLogger@4              0053d0b8 f   wmi:tracelog.obj
 0007:00093316       @WmipDisableKernelTrace@4  0053d316 f   wmi:callouts.obj
 0007:000934f8       _WmipSetTraceNotify@12     0053d4f8 f   wmi:callouts.obj
 0007:0009359a       @WmiStartContextSwapTrace@0 0053d59a f   wmi:callouts.obj
 0007:000935ae       @WmiStopContextSwapTrace@0 0053d5ae f   wmi:callouts.obj
 0007:0009362c       @WmiTraceProcess@8         0053d62c f   wmi:callouts.obj
 0007:000938b0       _WmiTraceThread@12         0053d8b0 f   wmi:callouts.obj
 0007:00093a0a       _WmipTraceFile@4           0053da0a f   wmi:callouts.obj
 0007:00093b02       _WmipTraceLoadImage@12     0053db02 f   wmi:callouts.obj
 0007:00093c20       _WmipTraceRegistry@28      0053dc20 f   wmi:callouts.obj
 0007:00093d5c       @WmipEnableKernelTrace@4   0053dd5c f   wmi:callouts.obj
 0007:00093fb0       _WmipIsISFlagsSet@8        0053dfb0 f   wmi:enabdisa.obj
 0007:00094002       _WmipDeliverWnodeToDS@16   0053e002 f   wmi:enabdisa.obj
 0007:0009408c       _WmipSendEnableDisableRequest@24 0053e08c f   wmi:enabdisa.obj
 0007:0009428c       _WmipReleaseCollectionEnabled@4 0053e28c f   wmi:enabdisa.obj
 0007:000942b4       _WmipWaitForCollectionEnabled@4 0053e2b4 f   wmi:enabdisa.obj
 0007:0009430c       _WmipSendEnableRequest@20  0053e30c f   wmi:enabdisa.obj
 0007:0009442c       _WmipDoDisableRequest@24   0053e42c f   wmi:enabdisa.obj
 0007:000944b8       _WmipSendDisableRequest@20 0053e4b8 f   wmi:enabdisa.obj
 0007:0009450e       _WmipEnableCollectOrEvent@20 0053e50e f   wmi:enabdisa.obj
 0007:000945e2       _WmipDisableCollectOrEvent@16 0053e5e2 f   wmi:enabdisa.obj
 0007:0009465a       _WmipEnableDisableTrace@8  0053e65a f   wmi:enabdisa.obj
 0007:000948f8       _WmipDisableTraceProviders@4 0053e8f8 f   wmi:enabdisa.obj
 0007:0009499c       _WmipSDRegistryQueryRoutine@24 0053e99c f   wmi:secure.obj
 0007:00094a14       _WmipSaveGuidSecurityDescriptor@8 0053ea14 f   wmi:secure.obj
 0007:00094aa6       _WmipGetGuidSecurityDescriptor@12 0053eaa6 f   wmi:secure.obj
 0007:00094b52       _WmipCreateGuidObject@20   0053eb52 f   wmi:secure.obj
 0007:00094cc2       _WmipCloseMethod@20        0053ecc2 f   wmi:secure.obj
 0007:00094d22       _WmipDeleteMethod@4        0053ed22 f   wmi:secure.obj
 0007:00094eac       _WmipHexStringToDword@16   0053eeac f   wmi:secure.obj
 0007:00094f3a       _WmipUuidFromString@8      0053ef3a f   wmi:secure.obj
 0007:000950ee       _WmipSecurityMethod@32     0053f0ee f   wmi:secure.obj
 0007:00095268       _WmipOpenGuidObject@20     0053f268 f   wmi:secure.obj
 0007:0009538c       _WmipCheckGuidAccess@12    0053f38c f   wmi:secure.obj
 0007:0009546c       _WmipQueryGLRegistryRoutine@24 0053f46c f   wmi:globalog.obj
 0007:000954d2       _WmipAddLogHeader@8        0053f4d2 f   wmi:globalog.obj
 0007:000958c2       _WmipCreateDirectoryFile@16 0053f8c2 f   wmi:globalog.obj
 0007:00095a0c       _WmipCreateNtFileName@8    0053fa0c f   wmi:globalog.obj
 0007:00095b8c       _WmipDelayCreate@12        0053fb8c f   wmi:globalog.obj
 0007:00095e00       _WmipOpenCloseCleanup@8    0053fe00 f   wmi:wmi.obj
 0007:00095e20       _WmipUpdateDeviceStackSize@4 0053fe20 f   wmi:wmi.obj
 0007:00095e50       _WmipSystemControl@8       0053fe50 f   wmi:wmi.obj
 0007:00095e6c       _WmipGetDevicePDO@8        0053fe6c f   wmi:wmi.obj
 0007:00095f0c       _WmipObjectToPDO@12        0053ff0c f   wmi:wmi.obj
 0007:00095f3c       _WmipForwardWmiIrp@24      0053ff3c f   wmi:wmi.obj
 0007:00096128       _WmipSendWmiIrp@24         00540128 f   wmi:wmi.obj
 0007:000961b0       _WmipFastIoDeviceControl@36 005401b0 f   wmi:wmi.obj
 0007:00096206       _WmipProbeWnodeWorker@36   00540206 f   wmi:wmi.obj
 0007:000962a2       _WmipProbeWnodeAllData@12  005402a2 f   wmi:wmi.obj
 0007:000962dc       _WmipProbeWnodeSingleInstance@16 005402dc f   wmi:wmi.obj
 0007:0009634a       _WmipProbeWnodeSingleItem@8 0054034a f   wmi:wmi.obj
 0007:000963a4       _WmipProbeWnodeMethodItem@12 005403a4 f   wmi:wmi.obj
 0007:000963fe       _WmipProbeAndCaptureGuidObjectAttributes@16 005403fe f   wmi:wmi.obj
 0007:000964c2       _WmipProbeWmiOpenGuidBlock@28 005404c2 f   wmi:wmi.obj
 0007:00096520       _WmipProbeWmiRegRequest@20 00540520 f   wmi:wmi.obj
 0007:00096622       _WmipTranslateFileHandle@24 00540622 f   wmi:wmi.obj
 0007:0009688c       _WmipIoControl@8           0054088c f   wmi:wmi.obj
 0007:00096fba       _WmipBuildMcaCmcEvent@16   00540fba f   wmi:mca.obj
 0007:0009703c       _WmipGetRawMCAInfo@8       0054103c f   wmi:mca.obj
 0007:000970a2       _WmipGetLogFromHal@28      005410a2 f   wmi:mca.obj
 0007:000971f0       _WmipCheckIsWbemRunning@0  005411f0 f   wmi:mca.obj
 0007:000972d6       _WmipIsWbemRunningWorker@4 005412d6 f   wmi:mca.obj
 0007:00097300       _WmipSetupWaitForWbem@0    00541300 f   wmi:mca.obj
 0007:00097358       _WmipWriteMCAEventLogEvent@4 00541358 f   wmi:mca.obj
 0007:000973e0       _WmipGenerateMCAEventlog@12 005413e0 f   wmi:mca.obj
 0007:00097594       _WmipMceWorkerRoutine@4    00541594 f   wmi:mca.obj
 0007:0009761c       _WmipProcessPrevMcaLogs@0  0054161c f   wmi:mca.obj
 0007:0009771a       _WmipRegisterMcaHandler@4  0054171a f   wmi:mca.obj
 0007:000979ae       _WmipAllocRegEntry@8       005419ae f   wmi:register.obj
 0007:00097a1a       _WmipWaitForIrpCompletion@4 00541a1a f   wmi:register.obj
 0007:00097a3e       _WmipFindRegEntryByDevice@8 00541a3e f   wmi:register.obj
 0007:00097a8e       _WmipPDOToDeviceInstanceName@8 00541a8e f   wmi:register.obj
 0007:00097a9c       _WmipTranslatePDOInstanceNames@16 00541a9c f   wmi:register.obj
 0007:00097de8       _WmipValidateWmiRegInfoString@16 00541de8 f   wmi:register.obj
 0007:00097e2a       _WmipProcessWmiRegInfo@24  00541e2a f   wmi:register.obj
 0007:00097ebe       _WmipRegisterOrUpdateDS@8  00541ebe f   wmi:register.obj
 0007:00097f8a       _WmipUpdateDS@4            00541f8a f   wmi:register.obj
 0007:00097fa0       _WmipRegisterDS@4          00541fa0 f   wmi:register.obj
 0007:00097fb6       _WmipQueueRegWork@8        00541fb6 f   wmi:register.obj
 0007:0009803e       _WmipDoUnreferenceRegEntry@4 0054203e f   wmi:register.obj
 0007:000980c2       _WmipRegisterDevice@8      005420c2 f   wmi:register.obj
 0007:000981f4       _WmipDeregisterDevice@4    005421f4 f   wmi:register.obj
 0007:00098266       _WmipUpdateRegistration@4  00542266 f   wmi:register.obj
 0007:000982a0       _WmipRegistrationWorker@4  005422a0 f   wmi:register.obj
 0007:00098328       _WmipEventNotification@4   00542328 f   wmi:notify.obj
 0007:00098382       _WmipIsQuerySetGuid@4      00542382 f   wmi:consumer.obj
 0007:000983ce       _WmipOpenBlock@20          005423ce f   wmi:consumer.obj
 0007:00098572       _WmipAddProviderIdToPIList@20 00542572 f   wmi:consumer.obj
 0007:00098634       _WmipPrepareForWnodeAD@20  00542634 f   wmi:consumer.obj
 0007:00098706       _WmipStaticInstanceNameSize@4 00542706 f   wmi:consumer.obj
 0007:0009876c       _WmipGetGuidPropertiesFromGuidEntry@8 0054276c f   wmi:consumer.obj
 0007:00098816       _WmipEnumerateGuids@16     00542816 f   wmi:consumer.obj
 0007:000988da       _WmipQueryGuidInfo@4       005428da f   wmi:consumer.obj
 0007:0009895c       _WmipClearIrpObjectList@4  0054295c f   wmi:consumer.obj
 0007:00098988       _WmipClearObjectFromThreadList@4 00542988 f   wmi:consumer.obj
 0007:000989c8       _WmipClearThreadObjectList@4 005429c8 f   wmi:consumer.obj
 0007:000989f0       _WmipCopyFromEventQueues@24 005429f0 f   wmi:consumer.obj
 0007:00098b5a       _WmipCompleteGuidIrpWithError@4 00542b5a f   wmi:consumer.obj
 0007:00098b90       _WmipMarkHandleAsClosed@4  00542b90 f   wmi:consumer.obj
 0007:00098bf0       _WmipReceiveNotifications@12 00542bf0 f   wmi:consumer.obj
 0007:00099004       _WmipCreatePumpThread@4    00543004 f   wmi:consumer.obj
 0007:000990e8       _WmipCreatePumpThreadRoutine@4 005430e8 f   wmi:consumer.obj
 0007:00099126       _WmipQueueNotification@12  00543126 f   wmi:consumer.obj
 0007:0009925e       _WmipDereferenceEvent@4    0054325e f   wmi:consumer.obj
 0007:000993cc       _WmipWriteWnodeToObject@12 005433cc f   wmi:consumer.obj
 0007:00099478       _WmipUMProviderCallback@16 00543478 f   wmi:consumer.obj
 0007:00099486       _WmipRegisterUMGuids@24    00543486 f   wmi:consumer.obj
 0007:000995ec       _WmipUnregisterGuids@4     005435ec f   wmi:consumer.obj
 0007:00099630       _WmipWriteMBToObject@16    00543630 f   wmi:consumer.obj
 0007:0009974c       _WmipWriteMessageToGuid@20 0054374c f   wmi:consumer.obj
 0007:000997b6       _WmipCreateUMLogger@4      005437b6 f   wmi:consumer.obj
 0007:000998aa       _WmipMBReply@16            005438aa f   wmi:consumer.obj
 0007:00099948       _WmipPrepareWnodeSI@24     00543948 f   wmi:consumer.obj
 0007:00099be8       _WmipQuerySetExecuteSI@28  00543be8 f   wmi:consumer.obj
 0007:00099de0       _WmipQuerySingleMultiple@36 00543de0 f   wmi:consumer.obj
 0007:0009a1f4       _WmipInsertStaticNames@12  005441f4 f   wmi:consumer.obj
 0007:0009a380       _WmipQueryAllData@24       00544380 f   wmi:consumer.obj
 0007:0009a692       _WmipQueryAllDataMultiple@32 00544692 f   wmi:consumer.obj
 0007:0009a87a       _WmipIncludeStaticNames@4  0054487a f   wmi:consumer.obj
 0007:0009aac2       _WmipProcessEvent@12       00544ac2 f   wmi:consumer.obj
 0007:0009ac34       _WmipAllocEntry@4          00544c34 f   wmi:chunk.obj
 0007:0009ad62       _WmipFreeEntry@8           00544d62 f   wmi:chunk.obj
 0007:0009add6       _WmipUnreferenceEntry@8    00544dd6 f   wmi:chunk.obj
 0007:0009ae52       _WmipCountedToSz@4         00544e52 f   wmi:chunk.obj
 0007:0009ae9a       _WmipAllocDataSource@0     00544e9a f   wmi:alloc.obj
 0007:0009aed0       _WmipDSCleanup@8           00544ed0 f   wmi:alloc.obj
 0007:0009afde       _WmipGECleanup@8           00544fde f   wmi:alloc.obj
 0007:0009b006       _WmipAllocGuidEntryX@8     00545006 f   wmi:alloc.obj
 0007:0009b056       _WmipISCleanup@8           00545056 f   wmi:alloc.obj
 0007:0009b07a       _WmipMRCleanup@8           0054507a f   wmi:alloc.obj
 0007:0009b0d8       _WmipFindGEByGuid@8        005450d8 f   wmi:alloc.obj
 0007:0009b152       _WmipFindDSByProviderId@4  00545152 f   wmi:alloc.obj
 0007:0009b19e       _WmipFindISByGuid@8        0054519e f   wmi:alloc.obj
 0007:0009b200       _WmipFindMRByNames@8       00545200 f   wmi:alloc.obj
 0007:0009b268       _WmipIsNumber@4            00545268 f   wmi:alloc.obj
 0007:0009b296       _WmipFindISinGEbyName@12   00545296 f   wmi:alloc.obj
 0007:0009b376       _WmipRealloc@16            00545376 f   wmi:alloc.obj
 0007:0009b3f0       _WmipQueryWmiRegInfo@16    005453f0 f   wmi:dataprov.obj
 0007:0009b424       _WmipFindGuid@20           00545424 f   wmi:dataprov.obj
 0007:0009b472       _IoWMICompleteRequest@24   00545472 f   wmi:dataprov.obj
 0007:0009b656       _WmipQueryWmiDataBlock@32  00545656 f   wmi:dataprov.obj
 0007:0009b9f6       _IoWMISystemControl@12     005459f6 f   wmi:dataprov.obj
 0007:0009be5c       _WmipEnableCollectionForNewGuid@8 00545e5c f   wmi:ds.obj
 0007:0009bfbc       _WmipDisableCollectionForRemovedGuid@8 00545fbc f   wmi:ds.obj
 0007:0009c110       _WmipDetermineInstanceBaseIndex@12 00546110 f   wmi:ds.obj
 0007:0009c190       _WmipMangleInstanceName@16 00546190 f   wmi:ds.obj
 0007:0009c262       _WmipBuildInstanceSet@24   00546262 f   wmi:ds.obj
 0007:0009c4ce       _WmipLinkDataSourceToList@8 005464ce f   wmi:ds.obj
 0007:0009c596       _WmipGenerateMofResourceNotification@16 00546596 f   wmi:ds.obj
 0007:0009c686       _WmipFindISInDSByGuid@8    00546686 f   wmi:ds.obj
 0007:0009c6d6       _WmipUpdateAddGuid@20      005466d6 f   wmi:ds.obj
 0007:0009c756       _WmipUpdateRemoveGuid@12   00546756 f   wmi:ds.obj
 0007:0009c78c       _WmipIsEqualInstanceSets@8 0054678c f   wmi:ds.obj
 0007:0009c808       _WmipUpdateModifyGuid@20   00546808 f   wmi:ds.obj
 0007:0009c912       _WmipCachePtrs@20          00546912 f   wmi:ds.obj
 0007:0009c9b2       _WmipSendGuidUpdateNotifications@12 005469b2 f   wmi:ds.obj
 0007:0009cac2       _WmipGenerateBinaryMofNotification@8 00546ac2 f   wmi:ds.obj
 0007:0009cc14       _WmipGenerateRegistrationNotification@8 00546c14 f   wmi:ds.obj
 0007:0009ccba       _WmipAddMofResource@20     00546cba f   wmi:ds.obj
 0007:0009ce3a       _WmipAddDataSource@28      00546e3a f   wmi:ds.obj
 0007:0009d056       _WmipUpdateDataSource@12   00547056 f   wmi:ds.obj
 0007:0009d2e4       _WmipRemoveDataSourceByDS@4 005472e4 f   wmi:ds.obj
 0007:0009d308       _WmipRemoveDataSource@4    00547308 f   wmi:ds.obj
 0007:0009d344       _WmipEnumerateMofResources@12 00547344 f   wmi:ds.obj
 0007:0009d460       _WmipFindSMBiosEPSHeader@12 00547460 f   wmi:smbios.obj
 0007:0009d504       _WmipSMBiosIdentifierRegQueryRoutine@24 00547504 f   wmi:smbios.obj
 0007:0009d534       _WmipSMBiosDataRegQueryRoutine@24 00547534 f   wmi:smbios.obj
 0007:0009d5f0       _WmipIsSMBiosKey@16        005475f0 f   wmi:smbios.obj
 0007:0009d74c       _WmipFindSMBiosTable@16    0054774c f   wmi:smbios.obj
 0007:0009d914       _WmipGetSMBiosTableData@12 00547914 f   wmi:smbios.obj
 0007:0009da06       _WmipFindSMBiosStructure@16 00547a06 f   wmi:smbios.obj
 0007:0009db3a       _WmipFindSysIdTable@12     00547b3a f   wmi:smbios.obj
 0007:0009dc38       _WmipParseSysIdTable@28    00547c38 f   wmi:smbios.obj
 0007:0009dd80       _WmipGetSysIds@16          00547d80 f   wmi:smbios.obj
 0007:0009df7a       _WmipGetSMBiosEventlog@8   00547f7a f   wmi:smbios.obj
 0007:0009e0de       _WmipDockUndockEventCallback@8 005480de f   wmi:smbios.obj
 0007:0009e110       _WmipConstructMCAErrorEvent@24 00548110 f   wmi:mcaevent.obj
 0007:0009e2f0       _ExAcquireTimeRefreshLock@4 005482f0 f   ntoswrk:SYSTIME.obj
 0007:0009e340       _ExReleaseTimeRefreshLock@0 00548340 f   ntoswrk:SYSTIME.obj
 0007:0009e374       _IsRegistryKeyLocked@8     00548374 f   ntoswrk:SYSTIME.obj
 0007:0009e3be       _NtLockProductActivationKeys@8 005483be f   ntoswrk:SYSTIME.obj
 0007:0009e772       _ExpTimeZoneWork@4         00548772 f   ntoswrk:SYSTIME.obj
 0007:0009e792       _NtQuerySystemTime@4       00548792 f   ntoswrk:SYSTIME.obj
 0007:0009e824       _NtQueryTimerResolution@12 00548824 f   ntoswrk:SYSTIME.obj
 0007:0009e8e6       _NtSetTimerResolution@12   005488e6 f   ntoswrk:SYSTIME.obj
 0007:0009ea42       _ExSetTimerResolution@8    00548a42 f   ntoswrk:SYSTIME.obj
 0007:0009eca0       _ExShutdownSystem@4        00548ca0 f   ntoswrk:SYSTIME.obj
 0007:0009f01e       _ExpExpirationThread@4     0054901e f   ntoswrk:SYSTIME.obj
 0007:0009f210       _ExpRefreshTimeZoneInformation@4 00549210 f   ntoswrk:SYSTIME.obj
 0007:0009f5e4       _NtSetSystemTime@8         005495e4 f   ntoswrk:SYSTIME.obj
 0007:0009fe0a       _NtDisplayString@4         00549e0a f   ntoswrk:EXSCAN.obj
 0007:0009ff92       _xHalQuerySystemInformation@16 00549f92 f   ntoswrk:HALFNC.obj
 0007:0009ffa0       _xHalSetSystemInformation@12 00549fa0 f   ntoswrk:HALFNC.obj
 0007:0009ffae       _xHalQueryBusSlots@16      00549fae f   ntoswrk:HALFNC.obj
 0007:0009ffbc       _xHalRegisterBusHandler@32 00549fbc f   ntoswrk:HALFNC.obj
 0007:0009ffca       _FstubTranslatorNull@4     00549fca f   ntoswrk:TRANSLATE.obj
 0007:0009ffca       _WmipValidateClockType@4   00549fca f   wmi:tracesup.obj
 0007:0009ffca       _DbgkpDeleteObject@4       00549fca f   dbgk:dbgkobj.obj
 0007:0009ffca       _xHalLocateHiberRanges@4   00549fca f   ntoswrk:HALFNC.obj
 0007:0009ffca       _ExpDeleteCallback@4       00549fca f   ex:callback.obj
 0007:0009ffca       _FsRtlInitializeOplock@4   00549fca f   fsrtl:Oplock.obj
 0007:0009ffd2       _xHalStartMirroring@0      00549fd2 f   ntoswrk:HALFNC.obj
 0007:0009ffde       _HeadlessTerminalAddResources@20 00549fde f   ntoswrk:HDLSTERM.obj
 0007:000a00b8       _IoInitializeRemoveLockEx@20 0054a0b8 f   ntoswrk:REMLOCK.obj
 0007:000a0130       _IoReleaseRemoveLockAndWaitEx@12 0054a130 f   ntoswrk:REMLOCK.obj
 0007:000a017a       _IoAssignResources@24      0054a17a f   ntoswrk:ASSIGN.obj
 0007:000a032e       _FstubReadPartitionTableMBR@12 0054a32e f   ntoswrk:EX.obj
 0007:000a041c       _FstubGetDiskGeometry@8    0054a41c f   ntoswrk:EX.obj
 0007:000a0510       _FstubAllocateDiskInformation@12 0054a510 f   ntoswrk:EX.obj
 0007:000a05c2       _FstubFreeDiskInformation@4 0054a5c2 f   ntoswrk:EX.obj
 0007:000a05f4       _FstubConvertExtendedToLayout@4 0054a5f4 f   ntoswrk:EX.obj
 0007:000a0698       _FstubWritePartitionTableMBR@8 0054a698 f   ntoswrk:EX.obj
 0007:000a06de       _FstubAdjustPartitionCount@8 0054a6de f   ntoswrk:EX.obj
 0007:000a0712       _FstubCopyEntryEFI@12      0054a712 f   ntoswrk:EX.obj
 0007:000a079e       _FstubWriteSector@20       0054a79e f   ntoswrk:EX.obj
 0007:000a082c       _FstubReadSector@20        0054a82c f   ntoswrk:EX.obj
 0007:000a08ba       _IoReadDiskSignature@12    0054a8ba f   ntoswrk:EX.obj
 0007:000a09d0       _FstubDetectPartitionStyle@8 0054a9d0 f   ntoswrk:EX.obj
 0007:000a0a42       _FstubWriteBootSectorEFI@4 0054aa42 f   ntoswrk:EX.obj
 0007:000a0b28       _FstubWriteEntryEFI@28     0054ab28 f   ntoswrk:EX.obj
 0007:000a0bea       _FstubWriteHeaderEFI@52    0054abea f   ntoswrk:EX.obj
 0007:000a0d04       _FstubCreateDiskMBR@8      0054ad04 f   ntoswrk:EX.obj
 0007:000a0d80       _FstubCreateDiskRaw@4      0054ad80 f   ntoswrk:EX.obj
 0007:000a0e60       _FstubWritePartitionTableEFI@52 0054ae60 f   ntoswrk:EX.obj
 0007:000a0fe6       _FstubReadHeaderEFI@12     0054afe6 f   ntoswrk:EX.obj
 0007:000a11ae       _FstubVerifyPartitionTableEFI@8 0054b1ae f   ntoswrk:EX.obj
 0007:000a136e       _IoWritePartitionTableEx@8 0054b36e f   ntoswrk:EX.obj
 0007:000a14b4       _IoVerifyPartitionTable@8  0054b4b4 f   ntoswrk:EX.obj
 0007:000a1516       _FstubCreateDiskEFI@8      0054b516 f   ntoswrk:EX.obj
 0007:000a15fe       _FstubReadPartitionTableEFI@12 0054b5fe f   ntoswrk:EX.obj
 0007:000a18a6       _IoCreateDisk@8            0054b8a6 f   ntoswrk:EX.obj
 0007:000a18f6       _IoReadPartitionTableEx@8  0054b8f6 f   ntoswrk:EX.obj
 0007:000a1978       _FstubSetPartitionInformationEFI@12 0054b978 f   ntoswrk:EX.obj
 0007:000a1a0c       _IoSetPartitionInformationEx@12 0054ba0c f   ntoswrk:EX.obj
 0007:000a1a96       _PiGetDeviceRegistryProperty@24 0054ba96 f   ntoswrk:PNPIOAPI.obj
 0007:000a1bae       _IoSynchronousInvalidateDeviceRelations@8 0054bbae f   ntoswrk:PNPIOAPI.obj
 0007:000a1c60       _IopRequestDeviceEjectWorker@4 0054bc60 f   ntoswrk:PNPIOAPI.obj
 0007:000a1d1a       _IopIsReportedAlready@16   0054bd1a f   ntoswrk:PNPIOAPI.obj
 0007:000a1ee6       _IopResourceRequirementsChanged@8 0054bee6 f   ntoswrk:PNPIOAPI.obj
 0007:000a1f06       _IoIsWdmVersionAvailable@8 0054bf06 f   ntoswrk:PNPIOAPI.obj
 0007:000a1f44       _IopOpenDeviceParametersSubkey@16 0054bf44 f   ntoswrk:PNPIOAPI.obj
 0007:000a2168       _IopAppendLegacyVeto@8     0054c168 f   ntoswrk:PNPIOAPI.obj
 0007:000a220e       _IopGetLegacyVetoListDevice@8 0054c20e f   ntoswrk:PNPIOAPI.obj
 0007:000a224e       _IopGetLegacyVetoListDeviceNode@8 0054c24e f   ntoswrk:PNPIOAPI.obj
 0007:000a228a       _IoForwardIrpSynchronously@8 0054c28a f   ntoswrk:PNPIOAPI.obj
 0007:000a241e       _IoGetDeviceProperty@20    0054c41e f   ntoswrk:PNPIOAPI.obj
 0007:000a2906       _IopOpenOrCreateDeviceRegistryKey@20 0054c906 f   ntoswrk:PNPIOAPI.obj
 0007:000a2d46       _IoGetDmaAdapter@12        0054cd46 f   ntoswrk:PNPIOAPI.obj
 0007:000a3076       _PpCreateLegacyDeviceIds@12 0054d076 f   ntoswrk:PNPIOAPI.obj
 0007:000a3192       _IopGetLegacyVetoListDrivers@4 0054d192 f   ntoswrk:PNPIOAPI.obj
 0007:000a334a       _IoGetLegacyVetoList@8     0054d34a f   ntoswrk:PNPIOAPI.obj
 0007:000a3404       _IoOpenDeviceRegistryKey@16 0054d404 f   ntoswrk:PNPIOAPI.obj
 0007:000a362a       _IoReportDetectedDevice@32 0054d62a f   ntoswrk:PNPIOAPI.obj
 0007:000a4636       _IopAllocateBuffer@8       0054e636 f   ntoswrk:DEVINTRF.obj
 0007:000a4670       _IopResizeBuffer@12        0054e670 f   ntoswrk:DEVINTRF.obj
 0007:000a46e6       _IopFreeBuffer@4           0054e6e6 f   ntoswrk:DEVINTRF.obj
 0007:000a4710       _IopAppendBuffer@12        0054e710 f   ntoswrk:DEVINTRF.obj
 0007:000a4764       _IopReplaceSeperatorWithPound@8 0054e764 f   ntoswrk:DEVINTRF.obj
 0007:000a47d6       _IopParseSymbolicLinkName@28 0054e7d6 f   ntoswrk:DEVINTRF.obj
 0007:000a49b8       _PiRemoveDeferredSetInterfaceState@8 0054e9b8 f   ntoswrk:DEVINTRF.obj
 0007:000a4a12       _IopAllocateUnicodeString@8 0054ea12 f   ntoswrk:DEVINTRF.obj
 0007:000a4a5a       _IopOpenOrCreateDeviceInterfaceSubKeys@32 0054ea5a f   ntoswrk:DEVINTRF.obj
 0007:000a4bf4       _IopBuildSymbolicLinkStrings@20 0054ebf4 f   ntoswrk:DEVINTRF.obj
 0007:000a4d04       _IopDropReferenceString@8  0054ed04 f   ntoswrk:DEVINTRF.obj
 0007:000a4d88       _IopBuildGlobalSymbolicLinkString@8 0054ed88 f   ntoswrk:DEVINTRF.obj
 0007:000a4e30       _PiDeferSetInterfaceState@8 0054ee30 f   ntoswrk:DEVINTRF.obj
 0007:000a4ea4       _IopSetRegistryStringValue@12 0054eea4 f   ntoswrk:DEVINTRF.obj
 0007:000a504a       _IopGetDeviceInterfaces@24 0054f04a f   ntoswrk:DEVINTRF.obj
 0007:000a5710       _IoGetDeviceInterfaces@16  0054f710 f   ntoswrk:DEVINTRF.obj
 0007:000a57de       _IopDeviceInterfaceKeysFromSymbolicLink@20 0054f7de f   ntoswrk:DEVINTRF.obj
 0007:000a5990       _IopRegisterDeviceInterface@20 0054f990 f   ntoswrk:DEVINTRF.obj
 0007:000a5b76       _IoGetDeviceInterfaceAlias@12 0054fb76 f   ntoswrk:DEVINTRF.obj
 0007:000a5dc2       _IopProcessSetInterfaceState@12 0054fdc2 f   ntoswrk:DEVINTRF.obj
 0007:000a6226       _IopDoDeferredSetInterfaceState@4 00550226 f   ntoswrk:DEVINTRF.obj
 0007:000a62c2       _IoSetDeviceInterfaceState@8 005502c2 f   ntoswrk:DEVINTRF.obj
 0007:000a6350       _IoOpenDeviceInterfaceRegistryKey@12 00550350 f   ntoswrk:DEVINTRF.obj
 0007:000a63f2       _IoRegisterDeviceInterface@16 005503f2 f   ntoswrk:DEVINTRF.obj
 0007:000a64a4       _IopUnregisterDeviceInterface@4 005504a4 f   ntoswrk:DEVINTRF.obj
 0007:000a67fc       _IopRemoveDeviceInterfaces@4 005507fc f   ntoswrk:DEVINTRF.obj
 0007:000a6c12       _IopDisableDeviceInterfaces@4 00550c12 f   ntoswrk:DEVINTRF.obj
 0007:000a6dac       _IoReportTargetDeviceChange@8 00550dac f   ntoswrk:NOTIFY.obj
 0007:000a6eba       _IopReportTargetDeviceChangeAsyncWorker@4 00550eba f   ntoswrk:NOTIFY.obj
 0007:000a6ef0       _IopDereferenceNotify@4    00550ef0 f   ntoswrk:NOTIFY.obj
 0007:000a6f4c       _IopGetRelatedTargetDevice@8 00550f4c f   ntoswrk:NOTIFY.obj
 0007:000a7016       _IoGetRelatedTargetDevice@8 00551016 f   ntoswrk:NOTIFY.obj
 0007:000a704a       _IoNotifyPowerOperationVetoed@12 0055104a f   ntoswrk:NOTIFY.obj
 0007:000a70a6       _IoPnPDeliverServicePowerNotification@16 005510a6 f   ntoswrk:NOTIFY.obj
 0007:000a7174       _IopOrphanNotification@4   00551174 f   ntoswrk:NOTIFY.obj
 0007:000a7234       _PiNotifyDriverCallback@24 00551234 f   ntoswrk:NOTIFY.obj
 0007:000a72bc       _IoUnregisterPlugPlayNotification@4 005512bc f   ntoswrk:NOTIFY.obj
 0007:000a7554       _IopProcessDeferredRegistrations@0 00551554 f   ntoswrk:NOTIFY.obj
 0007:000a76b2       _PiDeferNotification@4     005516b2 f   ntoswrk:NOTIFY.obj
 0007:000a7818       _IopNotifyHwProfileChange@12 00551818 f   ntoswrk:NOTIFY.obj
 0007:000a7b40       _IopNotifyTargetDeviceChange@16 00551b40 f   ntoswrk:NOTIFY.obj
 0007:000a7eda       _IopNotifyDeviceClassChange@12 00551eda f   ntoswrk:NOTIFY.obj
 0007:000a80b4       _IoRegisterPlugPlayNotification@28 005520b4 f   ntoswrk:NOTIFY.obj
 0007:000a85c4       _IopNotifySetupDeviceArrival@12 005525c4 f   ntoswrk:NOTIFY.obj
 0007:000a8694       _IopRequestHwProfileChangeNotification@16 00552694 f   ntoswrk:NOTIFY.obj
 0007:000a880a       _pIoQueryDeviceDescription@24 0055280a f   ntoswrk:QUERY.obj
 0007:000a8bde       _pIoQueryBusDescription@24 00552bde f   ntoswrk:QUERY.obj
 0007:000a8e42       _IoQueryDeviceDescription@32 00552e42 f   ntoswrk:QUERY.obj
 0007:000a8f24       _IopChangeInterfaceType@8  00552f24 f   ntoswrk:REPORT.obj
 0007:000a901c       _IopWriteResourceList@24   0055301c f   ntoswrk:REPORT.obj
 0007:000a90a2       _IoReportResourceUsageInternal@40 005530a2 f   ntoswrk:REPORT.obj
 0007:000a9170       _IoReportResourceForDetection@28 00553170 f   ntoswrk:REPORT.obj
 0007:000a9318       _IoReportResourceUsage@36  00553318 f   ntoswrk:REPORT.obj
 0007:000a94c2       _IopCompareReqAlternativePriority 005534c2 f   ntoswrk:PNPRES.obj
 0007:000a9506       _IopCompareResourceRequestPriority 00553506 f   ntoswrk:PNPRES.obj
 0007:000a9548       _IopRearrangeReqList@4     00553548 f   ntoswrk:PNPRES.obj
 0007:000a95be       _IopRearrangeAssignTable@8 005535be f   ntoswrk:PNPRES.obj
 0007:000a9604       _IopNeedToReleaseBootResources@8 00553604 f   ntoswrk:PNPRES.obj
 0007:000a96ca       _IopUncacheInterfaceInformation@4 005536ca f   ntoswrk:PNPRES.obj
 0007:000a9796       _IopFindResourceHandlerInfo@16 00553796 f   ntoswrk:PNPRES.obj
 0007:000a982a       _IopParentToRawTranslation@4 0055382a f   ntoswrk:PNPRES.obj
 0007:000a9882       _IopTranslateAndAdjustReqDesc@12 00553882 f   ntoswrk:PNPRES.obj
 0007:000a9b4c       _IopCallArbiter@20         00553b4c f   ntoswrk:PNPRES.obj
 0007:000a9c32       _IopRemoveLegacyDeviceNode@8 00553c32 f   ntoswrk:PNPRES.obj
 0007:000a9cf6       _IopSetLegacyDeviceInstance@8 00553cf6 f   ntoswrk:PNPRES.obj
 0007:000a9dba       _IopCombineLegacyResources@4 00553dba f   ntoswrk:PNPRES.obj
 0007:000a9e6c       _IopQueryConflictFillString@16 00553e6c f   ntoswrk:PNPRES.obj
 0007:000a9f44       _IopQueryConflictFillConflicts@24 00553f44 f   ntoswrk:PNPRES.obj
 0007:000aa262       _IopTestConfiguration@4    00554262 f   ntoswrk:PNPRES.obj
 0007:000aa2ce       _IopRetestConfiguration@4  005542ce f   ntoswrk:PNPRES.obj
 0007:000aa31e       _IopCommitConfiguration@4  0055431e f   ntoswrk:PNPRES.obj
 0007:000aa37c       _IopComputeConfigurationPriority@8 0055437c f   ntoswrk:PNPRES.obj
 0007:000aa3a8       _IopSaveRestoreConfiguration@16 005543a8 f   ntoswrk:PNPRES.obj
 0007:000aa48a       _IopAddRemoveReqDescs@16   0055448a f   ntoswrk:PNPRES.obj
 0007:000aa55e       _IopInsertLegacyBusDeviceNode@12 0055455e f   ntoswrk:PNPRES.obj
 0007:000aa616       _IopFindLegacyBusDeviceNode@8 00554616 f   ntoswrk:PNPRES.obj
 0007:000aa670       _IopBootAllocation@4       00554670 f   ntoswrk:PNPRES.obj
 0007:000aa710       _IopCreateCmResourceList@16 00554710 f   ntoswrk:PNPRES.obj
 0007:000aa8a4       _IopCombineCmResourceList@8 005548a4 f   ntoswrk:PNPRES.obj
 0007:000aa93a       _IopFreeReqAlternative@4   0055493a f   ntoswrk:PNPRES.obj
 0007:000aa99c       _IopFreeReqList@4          0055499c f   ntoswrk:PNPRES.obj
 0007:000aa9d8       _IopFreeResourceRequirementsForAssignTable@8 005549d8 f   ntoswrk:PNPRES.obj
 0007:000aaa2c       _IopSetupArbiterAndTranslators@4 00554a2c f   ntoswrk:PNPRES.obj
 0007:000aad2e       _IopChildToRootTranslation@24 00554d2e f   ntoswrk:PNPRES.obj
 0007:000aae82       _IopReleaseResourcesInternal@4 00554e82 f   ntoswrk:PNPRES.obj
 0007:000ab01e       _IopFindLegacyDeviceNode@16 0055501e f   ntoswrk:PNPRES.obj
 0007:000ab19a       _IopDuplicateDetection@16  0055519a f   ntoswrk:PNPRES.obj
 0007:000ab22c       _IopTestForReconfiguration@16 0055522c f   ntoswrk:PNPRES.obj
 0007:000ab3ae       _IopSelectFirstConfiguration@12 005553ae f   ntoswrk:PNPRES.obj
 0007:000ab3ec       _IopSelectNextConfiguration@12 005553ec f   ntoswrk:PNPRES.obj
 0007:000ab47e       _IopCleanupSelectedConfiguration@8 0055547e f   ntoswrk:PNPRES.obj
 0007:000ab4b8       _IopFindBestConfiguration@12 005554b8 f   ntoswrk:PNPRES.obj
 0007:000ab59a       _IopResourceRequirementsListToReqList@8 0055559a f   ntoswrk:PNPRES.obj
 0007:000ab9b6       _IopBuildCmResourceList@4  005559b6 f   ntoswrk:PNPRES.obj
 0007:000abe22       _IopBuildCmResourceLists@8 00555e22 f   ntoswrk:PNPRES.obj
 0007:000abea2       _IopRestoreResourcesInternal@4 00555ea2 f   ntoswrk:PNPRES.obj
 0007:000abfbc       _IopQueryConflictListInternal@24 00555fbc f   ntoswrk:PNPRES.obj
 0007:000ac186       _IopQueryRebalanceWorker@16 00556186 f   ntoswrk:PNPRES.obj
 0007:000ac1cc       _IopAllocateBootResourcesInternal@12 005561cc f   ntoswrk:PNPRES.obj
 0007:000ac2b0       _IopGetResourceRequirementsForAssignTable@12 005562b0 f   ntoswrk:PNPRES.obj
 0007:000ac43c       _IopReleaseFilteredBootResources@8 0055643c f   ntoswrk:PNPRES.obj
 0007:000ac4ee       _IopReleaseResources@4     005564ee f   ntoswrk:PNPRES.obj
 0007:000ac580       _IopQueryConflictList@24   00556580 f   ntoswrk:PNPRES.obj
 0007:000ac5f6       _IopQueryRebalance@16      005565f6 f   ntoswrk:PNPRES.obj
 0007:000ac6a4       _IopRebalance@8            005566a4 f   ntoswrk:PNPRES.obj
 0007:000acb24       _IopAllocateBootResources@12 00556b24 f   ntoswrk:PNPRES.obj
 0007:000acb90       _IopAllocateResources@20   00556b90 f   ntoswrk:PNPRES.obj
 0007:000ace7e       _IopLegacyResourceAllocation@20 00556e7e f   ntoswrk:PNPRES.obj
 0007:000ad07e       _IopReallocateResources@4  0055707e f   ntoswrk:PNPRES.obj
 0007:000ad228       _IopReleaseDeviceResources@8 00557228 f   ntoswrk:PNPRES.obj
 0007:000ad3be       _KdSystemDebugControl@28   005573be f   ntoswrk:DBGCTRL.obj
 0007:000ad904       _IopLoadDumpDriver@12      00557904 f   ntoswrk:DUMPCTL.obj
 0007:000ada12       _IoFreeDumpStack@4         00557a12 f   ntoswrk:DUMPCTL.obj
 0007:000adb56       _IopCompleteDumpInitialization@4 00557b56 f   ntoswrk:DUMPCTL.obj
 0007:000add02       _IopFreeDCB@4              00557d02 f   ntoswrk:DUMPCTL.obj
 0007:000ade76       _IopReadDumpRegistry@16    00557e76 f   ntoswrk:DUMPCTL.obj
 0007:000ae060       _IopInitializeDCB@0        00558060 f   ntoswrk:DUMPCTL.obj
 0007:000ae22e       _IopGetDumpStack@24        0055822e f   ntoswrk:DUMPCTL.obj
 0007:000ae84e       _IoGetDumpStack@16         0055884e f   ntoswrk:DUMPCTL.obj
 0007:000ae87c       _IoInitializeCrashDump@4   0055887c f   ntoswrk:DUMPCTL.obj
 0007:000ae97a       _IoConfigureCrashDump@4    0055897a f   ntoswrk:DUMPCTL.obj
 0007:000aea1e       _LsaFreeReturnBuffer@4     00558a1e f   ntoswrk:austub.obj
 0007:000aea45       _LsaRegisterLogonProcess@12 00558a45 f   ntoswrk:austub.obj
 0007:000aebd8       _LsaLookupAuthenticationPackage@12 00558bd8 f   ntoswrk:austub.obj
 0007:000aec86       _LsaLogonUser@56           00558c86 f   ntoswrk:austub.obj
 0007:000aed81       _LsaCallAuthenticationPackage@28 00558d81 f   ntoswrk:austub.obj
 0007:000aee25       _LsaDeregisterLogonProcess@4 00558e25 f   ntoswrk:austub.obj
 0007:000aee96       _MmMarkPhysicalMemoryAsBad@8 00558e96 f   ntoswrk:DYNMEM.obj
 0007:000aeeb2       _MmRemovePhysicalMemory@8  00558eb2 f   ntoswrk:DYNMEM.obj
 0007:000aeecc       _MmRemoveVerifierEntry@4   00558ecc f   ntoswrk:VERIFIER.obj
 0007:000aefc8       _MmAddVerifierThunks@8     00558fc8 f   ntoswrk:VERIFIER.obj
 0007:000af15c       _MiVerifierCheckThunks@4   0055915c f   ntoswrk:VERIFIER.obj
 0007:000af1a6       _MmIsVerifierEnabled@4     005591a6 f   ntoswrk:VERIFIER.obj
 0007:000af1d2       _MmGetVerifierInformation@12 005591d2 f   ntoswrk:VERIFIER.obj
 0007:000af3fc       _MmSetVerifierInformation@8 005593fc f   ntoswrk:VERIFIER.obj
 0007:000af5ee       _ViPrintString@4           005595ee f   ntoswrk:VERIFIER.obj
 0007:000af716       _MiEnableVerifier@4        00559716 f   ntoswrk:VERIFIER.obj
 0007:000af7fc       _MmAddVerifierEntry@4      005597fc f   ntoswrk:VERIFIER.obj
 0007:000afa02       _MiApplyDriverVerifier@8   00559a02 f   ntoswrk:VERIFIER.obj
 0007:000afb86       _MiPfReleaseSubsectionReferences@4 00559b86 f   ntoswrk:PFSUP.obj
 0007:000afbbc       _MiPfAllocateMdls@12       00559bbc f   ntoswrk:PFSUP.obj
 0007:000afea6       _MiPfExecuteReadList@4     00559ea6 f   ntoswrk:PFSUP.obj
 0007:000aff18       _MiPfPrepareReadList@8     00559f18 f   ntoswrk:PFSUP.obj
 0007:000b0402       _MmPrefetchPages@8         0055a402 f   ntoswrk:PFSUP.obj
 0007:000b064a       _VdmpQueryVdmProcess@4     0055a64a f   ntoswrk:VDMENTRY.obj
 0007:000b0730       _NtVdmControl@8            0055a730 f   ntoswrk:VDMENTRY.obj
 0007:000b0ab2       _PoRequestShutdownWait@4   0055aab2 f   ntoswrk:POSHTDWN.obj
 0007:000b0bec       _PoRequestShutdownEvent@4  0055abec f   ntoswrk:POSHTDWN.obj
 0007:000b0c20       _PoQueueShutdownWorkItem@4 0055ac20 f   ntoswrk:POSHTDWN.obj
 0007:000b0cd6       _PopUserPresentSetWorker@4 0055acd6 f   ntoswrk:ATTRIB.obj
 0007:000b0d1e       _PopDeleteHiberLinkFile@0  0055ad1e f   ntoswrk:HIBER.obj
 0007:000b0e88       _PopCreateHiberLinkFile@4  0055ae88 f   ntoswrk:HIBER.obj
 0007:000b1186       _PopClearHiberFileSignature@4 0055b186 f   ntoswrk:HIBER.obj
 0007:000b142a       _PopZeroHiberFile@8        0055b42a f   ntoswrk:HIBER.obj
 0007:000b1540       _PopGetHiberFlags@0        0055b540 f   ntoswrk:HIBER.obj
 0007:000b160a       _PopCreateHiberFile@16     0055b60a f   ntoswrk:HIBER.obj
 0007:000b19b8       _PopEnableHiberFile@4      0055b9b8 f   ntoswrk:HIBER.obj
 0007:000b1bf8       _PopAllocateHiberContextCallback@8 0055bbf8 f   ntoswrk:HIBER.obj
 0007:000b1c14       _PopAllocateHiberContext@0 0055bc14 f   ntoswrk:HIBER.obj
 0007:000b208a       _PoShutdownBugCheck@24     0055c08a f   ntoswrk:PACTION.obj
 0007:000b20ea       _PopCompareActions@8       0055c0ea f   ntoswrk:PACTION.obj
 0007:000b211e       _PopPromoteActionFlag@20   0055c11e f   ntoswrk:PACTION.obj
 0007:000b2166       _PopCompleteAction@8       0055c166 f   ntoswrk:PACTION.obj
 0007:000b2194       _PopDispatchStateCallout@8 0055c194 f   ntoswrk:PACTION.obj
 0007:000b2316       _PopSetPowerAction@20      0055c316 f   ntoswrk:PACTION.obj
 0007:000b257e       _PopIssueActionRequest@16  0055c57e f   ntoswrk:PACTION.obj
 0007:000b271a       _PopCriticalShutdown@4     0055c71a f   ntoswrk:PACTION.obj
 0007:000b2790       _PopPolicyWorkerAction@0   0055c790 f   ntoswrk:PACTION.obj
 0007:000b286e       _PopPolicyWorkerActionPromote@0 0055c86e f   ntoswrk:PACTION.obj
 0007:000b28f6       _RtlInitializeRangeList@4  0055c8f6 f   ntoswrk:RANGE.obj
 0007:000b2916       _RtlpAddToMergedRange@12   0055c916 f   ntoswrk:RANGE.obj
 0007:000b2a52       _RtlpCreateRangeListEntry@28 0055ca52 f   ntoswrk:RANGE.obj
 0007:000b2a9e       _RtlpDeleteRangeListEntry@4 0055ca9e f   ntoswrk:RANGE.obj
 0007:000b2af2       _RtlFreeRangeList@4        0055caf2 f   ntoswrk:RANGE.obj
 0007:000b2b36       _RtlGetFirstRange@12       0055cb36 f   ntoswrk:RANGE.obj
 0007:000b2b90       _RtlGetLastRange@12        0055cb90 f   ntoswrk:RANGE.obj
 0007:000b2bec       _RtlGetNextRange@12        0055cbec f   ntoswrk:RANGE.obj
 0007:000b2c9a       _RtlpCopyRangeListEntry@4  0055cc9a f   ntoswrk:RANGE.obj
 0007:000b2d36       _RtlCopyRangeList@8        0055cd36 f   ntoswrk:RANGE.obj
 0007:000b2da6       _RtlpIsRangeAvailable@44   0055cda6 f   ntoswrk:RANGE.obj
 0007:000b2e86       _RtlFindRange@48           0055ce86 f   ntoswrk:RANGE.obj
 0007:000b2ffa       _RtlpConvertToMergedRange@4 0055cffa f   ntoswrk:RANGE.obj
 0007:000b303c       _RtlpAddIntersectingRanges@16 0055d03c f   ntoswrk:RANGE.obj
 0007:000b31fc       _RtlIsRangeAvailable@40    0055d1fc f   ntoswrk:RANGE.obj
 0007:000b326a       _RtlpAddRange@12           0055d26a f   ntoswrk:RANGE.obj
 0007:000b3324       _RtlpDeleteFromMergedRange@8 0055d324 f   ntoswrk:RANGE.obj
 0007:000b3416       _RtlMergeRangeLists@16     0055d416 f   ntoswrk:RANGE.obj
 0007:000b34f4       _RtlAddRange@36            0055d4f4 f   ntoswrk:RANGE.obj
 0007:000b3574       _RtlDeleteRange@24         0055d574 f   ntoswrk:RANGE.obj
 0007:000b36a4       _RtlDeleteOwnersRanges@8   0055d6a4 f   ntoswrk:RANGE.obj
 0007:000b374a       _RtlInvertRangeList@8      0055d74a f   ntoswrk:RANGE.obj
 0007:000b3804       _RtlpHeapExceptionFilter@4 0055d804 f   ntoswrk:HEAP.obj
 0007:000b382a       _RtlZeroHeap@8             0055d82a f   ntoswrk:HEAP.obj
 0007:000b3952       _RtlpCreateUnCommittedRange@4 0055d952 f   ntoswrk:HEAP.obj
 0007:000b3a7c       _RtlpDestroyUnCommittedRange@8 0055da7c f   ntoswrk:HEAP.obj
 0007:000b3aca       _RtlpInsertUnCommittedPages@12 0055daca f   ntoswrk:HEAP.obj
 0007:000b3ba4       _RtlpFindAndCommitPages@16 0055dba4 f   ntoswrk:HEAP.obj
 0007:000b3d50       _RtlpDestroyHeapSegment@4  0055dd50 f   ntoswrk:HEAP.obj
 0007:000b3e82       _RtlpCoalesceFreeBlocks@16 0055de82 f   ntoswrk:HEAP.obj
 0007:000b4212       _RtlpInsertFreeBlock@12    0055e212 f   ntoswrk:HEAP.obj
 0007:000b435c       _RtlpGetExtraStuffPointer@4 0055e35c f   ntoswrk:HEAP.obj
 0007:000b439a       _RtlDestroyHeap@4          0055e39a f   ntoswrk:HEAP.obj
 0007:000b4450       _RtlSizeHeap@12            0055e450 f   ntoswrk:HEAP.obj
 0007:000b44ac       _RtlpInitializeHeapSegment@28 0055e4ac f   ntoswrk:HEAP.obj
 0007:000b45fc       _RtlpExtendHeap@8          0055e5fc f   ntoswrk:HEAP.obj
 0007:000b47b4       _RtlpDeCommitFreeBlock@12  0055e7b4 f   ntoswrk:HEAP.obj
 0007:000b4b62       _RtlCreateHeap@24          0055eb62 f   ntoswrk:HEAP.obj
 0007:000b5116       _RtlAllocateHeapSlowly@12  0055f116 f   ntoswrk:HEAP.obj
 0007:000b5c90       _RtlFreeHeapSlowly@12      0055fc90 f   ntoswrk:HEAP.obj
 0007:000b5ea4       _RtlAllocateHeap@12        0055fea4 f   ntoswrk:HEAP.obj
 0007:000b6778       _RtlFreeHeap@12            00560778 f   ntoswrk:HEAP.obj
 0007:000b69b6       _RtlDecompressBuffer@24    005609b6 f   ntoswrk:COMPRESS.obj
 0007:000b6a00       _RtlDecompressFragment@32  00560a00 f   ntoswrk:COMPRESS.obj
 0007:000b6a50       _RtlDescribeChunk@20       00560a50 f   ntoswrk:COMPRESS.obj
 0007:000b6a96       _RtlReserveChunk@20        00560a96 f   ntoswrk:COMPRESS.obj
 0007:000b6adc       _RtlDecompressChunks@28    00560adc f   ntoswrk:COMPRESS.obj
 0007:000b6c9e       _RtlCompressChunks@28      00560c9e f   ntoswrk:COMPRESS.obj
 0007:000b6d90       _RtlCompressWorkSpaceSizeNS@12 00560d90 f   ntoswrk:COMPRESS.obj
 0007:000b6d9e       _RtlCompressBufferNS@32    00560d9e f   ntoswrk:COMPRESS.obj
 0007:000b6dac       _RtlDecompressBufferNS@20  00560dac f   ntoswrk:COMPRESS.obj
 0007:000b6dba       _RtlDecompressFragmentNS@28 00560dba f   ntoswrk:COMPRESS.obj
 0007:000b6dc8       _RtlReserveChunkNS@16      00560dc8 f   ntoswrk:COMPRESS.obj
 0007:000b6dc8       _RtlDescribeChunkNS@16     00560dc8 f   ntoswrk:COMPRESS.obj
 0007:000b6dd6       _RtlIsValidOemCharacter@4  00560dd6 f   ntoswrk:GEN8DOT3.obj
 0007:000b6f08       _GetNextWchar@16           00560f08 f   ntoswrk:GEN8DOT3.obj
 0007:000b6fac       _RtlComputeLfnChecksum@4   00560fac f   ntoswrk:GEN8DOT3.obj
 0007:000b702a       _RtlIsNameLegalDOS8Dot3@12 0056102a f   ntoswrk:GEN8DOT3.obj
 0007:000b71a4       _RtlGenerate8dot3Name@16   005611a4 f   ntoswrk:GEN8DOT3.obj
 0007:000b75c8       _RtlLockBootStatusData@4   005615c8 f   ntoswrk:BOOTSTATUS.obj
 0007:000b76a4       _RtlUnlockBootStatusData@4 005616a4 f   ntoswrk:BOOTSTATUS.obj
 0007:000b76e8       _RtlGetSetBootStatusData@24 005616e8 f   ntoswrk:BOOTSTATUS.obj
 0007:000b77de       _RtlGetVersion@4           005617de f   ntoswrk:VERSION.obj
 0007:000b7866       _RtlRandom@4               00561866 f   ntoswrk:RANDOM.obj
 0007:000b78b6       _PopDefaultPolicy@4        005618b6 f   ntoswrk:POINIT.obj
 0007:000b7922       _PopDefaultProcessorPolicy@4 00561922 f   ntoswrk:POINIT.obj
 0007:000b79e8       _PoInitHiberServices@4     005619e8 f   ntoswrk:POINIT.obj
 0007:000b7b86       _CmpSetVersionData@0       00561b86 f   ntoswrk:CMSYSINI2.obj
 0007:000b80fe       _CcPfBootWorker@4          005620fe f   ntoswrk:PREFBOOT.obj
 0007:000b85a0       _CcPfBootQueueEndTraceTimer@4 005625a0 f   ntoswrk:PREFBOOT.obj
 0007:000b8608       _CcPfBeginBootPhase@4      00562608 f   ntoswrk:PREFBOOT.obj
 0007:000b88d8       _CmReplaceKey@16           005628d8 f   ntoswrk:CMAPI3.obj
 0007:000b8e8c       _CmpGetAcpiProfileInformation@24 00562e8c f   ntoswrk:HWPROFIL.obj
 0007:000b964a       _CmpAddAcpiAliasEntry@28   0056364a f   ntoswrk:HWPROFIL.obj
 0007:000b98dc       _CmpFilterAcpiDockingState@24 005638dc f   ntoswrk:HWPROFIL.obj
 0007:000b9a68       _CmDeleteKeyRecursive@20   00563a68 f   ntoswrk:HWPROFIL.obj
 0007:000b9bf4       _CmpCreateHwProfileFriendlyName@16 00563bf4 f   ntoswrk:HWPROFIL.obj
 0007:000ba05e       _CmpMoveBiosAliasTable@28  0056405e f   ntoswrk:HWPROFIL.obj
 0007:000ba5dc       _CmpCloneHwProfile@28      005645dc f   ntoswrk:HWPROFIL.obj
 0007:000bb0fc       _CmSetAcpiHwProfile@20     005650fc f   ntoswrk:HWPROFIL.obj
 0007:000bba50       _VdmpInitialize@4          00565a50 f   ntoswrk:VDMINIT.obj
 0007:000bbff0       _ExpSyncRenameFiles@32     00565ff0 f   ntoswrk:EXHOTP.obj
 0007:000bc06c       _ExApplyCodePatch@8        0056606c f   ntoswrk:EXHOTP.obj
 0007:000bc256       _CcPfSetPrefetcherInformation@16 00566256 f   ntoswrk:PREFETCH.obj
 0007:000bc43e       _CcPfCleanupTrace@4        0056643e f   ntoswrk:PREFETCH.obj
 0007:000bc4f2       _CcPfGetCompletedTrace@12  005664f2 f   ntoswrk:PREFETCH.obj
 0007:000bc62a       _CcPfPrefetchFileMetadata@8 0056662a f   ntoswrk:PREFETCH.obj
 0007:000bc734       _CcPfPrefetchDirectoryContents@8 00566734 f   ntoswrk:PREFETCH.obj
 0007:000bc818       _CcPfInitializePrefetchHeader@4 00566818 f   ntoswrk:PREFETCH.obj
 0007:000bc842       _CcPfCleanupPrefetchHeader@4 00566842 f   ntoswrk:PREFETCH.obj
 0007:000bc92c       _CcPfQueryScenarioInformation@20 0056692c f   ntoswrk:PREFETCH.obj
 0007:000bcbe0       _CcPfFindPrefetchVolumeInfoInList@8 00566be0 f   ntoswrk:PREFETCH.obj
 0007:000bcc1c       _CcPfGetSectionObject@20   00566c1c f   ntoswrk:PREFETCH.obj
 0007:000bcd6c       _CcPfAcquireExclusiveRef@4 00566d6c f   ntoswrk:PREFETCH.obj
 0007:000bcdbe       _CcPfFindString@8          00566dbe f   ntoswrk:PREFETCH.obj
 0007:000bce20       _CcPfIsVolumeMounted@8     00566e20 f   ntoswrk:PREFETCH.obj
 0007:000bcec0       _CcPfQueryVolumeInfo@16    00566ec0 f   ntoswrk:PREFETCH.obj
 0007:000bcf9a       _PfVerifyScenarioId@4      00566f9a f   ntoswrk:PREFETCH.obj
 0007:000bcfc6       _PfVerifyScenarioBuffer@12 00566fc6 f   ntoswrk:PREFETCH.obj
 0007:000bd61e       _PfVerifyTraceBuffer@12    0056761e f   ntoswrk:PREFETCH.obj
 0007:000bd912       _CcPfProcessExitNotification@4 00567912 f   ntoswrk:PREFETCH.obj
 0007:000bd95e       _CcPfQueryPrefetcherInformation@20 0056795e f   ntoswrk:PREFETCH.obj
 0007:000bdb2c       _CcPfBuildDumpFromTrace@8  00567b2c f   ntoswrk:PREFETCH.obj
 0007:000bdf52       _CcPfUpdateVolumeList@12   00567f52 f   ntoswrk:PREFETCH.obj
 0007:000be074       _CcPfPrefetchSections@24   00568074 f   ntoswrk:PREFETCH.obj
 0007:000be4ee       _CcPfPrefetchMetadata@4    005684ee f   ntoswrk:PREFETCH.obj
 0007:000be5e2       _CcPfGetPrefetchInstructions@12 005685e2 f   ntoswrk:PREFETCH.obj
 0007:000be7d8       _CcPfOpenVolumesForPrefetch@4 005687d8 f   ntoswrk:PREFETCH.obj
 0007:000be926       _CcPfScanCommandLine@8     00568926 f   ntoswrk:PREFETCH.obj
 0007:000bead4       _CcPfEndTrace@4            00568ad4 f   ntoswrk:PREFETCH.obj
 0007:000bec66       _CcPfEndTraceWorkerThreadRoutine@4 00568c66 f   ntoswrk:PREFETCH.obj
 0007:000bec7c       _CcPfGetFileNamesWorkerRoutine@4 00568c7c f   ntoswrk:PREFETCH.obj
 0007:000beeb4       _CcPfPrefetchScenario@4    00568eb4 f   ntoswrk:PREFETCH.obj
 0007:000bef60       _CcPfBeginTrace@12         00568f60 f   ntoswrk:PREFETCH.obj
 0007:000bf1fa       _CcPfBeginAppLaunch@8      005691fa f   ntoswrk:PREFETCH.obj
 0007:000bf3ac       _NtSetThreadExecutionState@8 005693ac f   ntoswrk:NTAPI.obj
 0007:000bf496       _NtRequestWakeupLatency@4  00569496 f   ntoswrk:NTAPI.obj
 0007:000bf4ee       _NtInitiatePowerAction@16  005694ee f   ntoswrk:NTAPI.obj
 0007:000bf68e       _NtRequestDeviceWakeup@4   0056968e f   ntoswrk:NTAPI.obj
 0007:000bf68e       _NtModifyDriverEntry@4     0056968e f   ntoswrk:SYSENV.obj
 0007:000bf68e       _NtModifyBootEntry@4       0056968e f   ntoswrk:SYSENV.obj
 0007:000bf68e       _NtCancelDeviceWakeupRequest@4 0056968e f   ntoswrk:NTAPI.obj
 0007:000bf68e       _NtDeleteBootEntry@4       0056968e f   ntoswrk:SYSENV.obj
 0007:000bf68e       _NtDeleteDriverEntry@4     0056968e f   ntoswrk:SYSENV.obj
 0007:000bf69c       _NtIsSystemResumeAutomatic@0 0056969c f   ntoswrk:NTAPI.obj
 0007:000bf6b0       _NtGetDevicePowerState@8   005696b0 f   ntoswrk:NTAPI.obj
 0007:000bf796       _NtQuerySystemEnvironmentValue@16 00569796 f   ntoswrk:SYSENV.obj
 0007:000bfa3e       _NtSetSystemEnvironmentValue@8 00569a3e f   ntoswrk:SYSENV.obj
 0007:000bfcea       _NtSetSystemEnvironmentValueEx@20 00569cea f   ntoswrk:SYSENV.obj
 0007:000bfcea       _NtQuerySystemEnvironmentValueEx@20 00569cea f   ntoswrk:SYSENV.obj
 0007:000bfcf8       _NtEnumerateSystemEnvironmentValuesEx@12 00569cf8 f   ntoswrk:SYSENV.obj
 0007:000bfd06       _NtAddBootEntry@8          00569d06 f   ntoswrk:SYSENV.obj
 0007:000bfd06       _NtAddDriverEntry@8        00569d06 f   ntoswrk:SYSENV.obj
 0007:000bfd06       _NtSetBootEntryOrder@8     00569d06 f   ntoswrk:SYSENV.obj
 0007:000bfd06       _NtQueryBootOptions@8      00569d06 f   ntoswrk:SYSENV.obj
 0007:000bfd06       _NtSetBootOptions@8        00569d06 f   ntoswrk:SYSENV.obj
 0007:000bfd06       _NtEnumerateDriverEntries@8 00569d06 f   ntoswrk:SYSENV.obj
 0007:000bfd06       _NtQueryDriverEntryOrder@8 00569d06 f   ntoswrk:SYSENV.obj
 0007:000bfd06       _NtEnumerateBootEntries@8  00569d06 f   ntoswrk:SYSENV.obj
 0007:000bfd06       _NtSetDriverEntryOrder@8   00569d06 f   ntoswrk:SYSENV.obj
 0007:000bfd06       _NtQueryBootEntryOrder@8   00569d06 f   ntoswrk:SYSENV.obj
 0007:000bfd14       _NtTranslateFilePath@16    00569d14 f   ntoswrk:SYSENV.obj
 0007:000bfd22       _VdmDispatchIoToHandler@24 00569d22 f   ntoswrk:VDMKE.obj
 0007:000bfe3e       _VdmDispatchUnalignedIoToHandler@24 00569e3e f   ntoswrk:VDMKE.obj
 0007:000bfec4       _VdmConvertToLinearAddress@8 00569ec4 f   ntoswrk:VDMKE.obj
 0007:000bff30       _Ki386AdlibEmulation@12    00569f30 f   ntoswrk:VDMKE.obj
 0007:000bffde       _Ki386VdmDispatchIo@20     00569fde f   ntoswrk:VDMKE.obj
 0007:000c019c       _VdmCallStringIoHandler@32 0056a19c f   ntoswrk:VDMKE.obj
 0007:000c036e       _VdmDispatchStringIoToHandler@28 0056a36e f   ntoswrk:VDMKE.obj
 0007:000c0454       _Ki386VdmDispatchStringIo@32 0056a454 f   ntoswrk:VDMKE.obj
 0007:000c05b8       _PoInitializeDeviceObject@4 0056a5b8 f   ntoswrk:MISC.obj
 0007:000c05d0       _PopCleanupPowerState@4    0056a5d0 f   ntoswrk:MISC.obj
 0007:000c0606       _PopChangeCapability@8     0056a606 f   ntoswrk:MISC.obj
 0007:000c062e       _PopExceptionFilter@8      0056a62e f   ntoswrk:MISC.obj
 0007:000c0698       _PopOpenPowerKey@4         0056a698 f   ntoswrk:MISC.obj
 0007:000c0730       _PopInitializePowerPolicySimulate@0 0056a730 f   ntoswrk:MISC.obj
 0007:000c081c       _PopSaveHeuristics@0       0056a81c f   ntoswrk:MISC.obj
 0007:000c086a       _PoInvalidateDevicePowerRelations@4 0056a86a f   ntoswrk:MISC.obj
 0007:000c0878       _PoGetLightestSystemStateForEject@16 0056a878 f   ntoswrk:MISC.obj
 0007:000c09b4       _PoGetDevicePowerState@8   0056a9b4 f   ntoswrk:MISC.obj
 0007:000c09d8       _PopUnlockAfterSleepWorker@4 0056a9d8 f   ntoswrk:MISC.obj
 0007:000c0a10       _PoVolumeDevice@4          0056aa10 f   ntoswrk:VOLUME.obj
 0007:000c0ad2       _PopFlushVolumeWorker@4    0056aad2 f   ntoswrk:VOLUME.obj
 0007:000c0ce8       _PopFlushVolumes@0         0056ace8 f   ntoswrk:VOLUME.obj
 0007:000c0eb4       _PipConcatenateUnicodeStrings@12 0056aeb4 f   ntoswrk:PNPSUBS.obj
 0007:000c0f00       _IopOpenRegistryKeyEx@16   0056af00 f   ntoswrk:PNPSUBS.obj
 0007:000c0f44       _IopCreateRegistryKeyEx@24 0056af44 f   ntoswrk:PNPSUBS.obj
 0007:000c10b4       _PipOpenServiceEnumKeys@20 0056b0b4 f   ntoswrk:PNPSUBS.obj
 0007:000c11e8       _IopGetDeviceInstanceCsConfigFlags@8 0056b1e8 f   ntoswrk:PNPSUBS.obj
 0007:000c12ec       _PipApplyFunctionToSubKeys@24 0056b2ec f   ntoswrk:PNPSUBS.obj
 0007:000c1450       _PipIsDuplicatedDevices@16 0056b450 f   ntoswrk:PNPSUBS.obj
 0007:000c1606       _IopDisableDevice@4        0056b606 f   ntoswrk:PNPSUBS.obj
 0007:000c1660       _IopDetermineResourceListSize@4 0056b660 f   ntoswrk:PNPSUBS.obj
 0007:000c16ba       _PiCompareInstancePath@12  0056b6ba f   ntoswrk:PNPSUBS.obj
 0007:000c16ee       _PiAllocateGenericTableEntry@8 0056b6ee f   ntoswrk:PNPSUBS.obj
 0007:000c170c       _PiFreeGenericTableEntry@8 0056b70c f   ntoswrk:PNPSUBS.obj
 0007:000c172e       _IopMapDeviceObjectToDeviceInstance@8 0056b72e f   ntoswrk:PNPSUBS.obj
 0007:000c186e       _IopDeviceObjectFromDeviceInstance@4 0056b86e f   ntoswrk:PNPSUBS.obj
 0007:000c1954       _IopDeviceObjectToDeviceInstance@12 0056b954 f   ntoswrk:PNPSUBS.obj
 0007:000c19ba       _IopCleanupDeviceRegistryValues@4 0056b9ba f   ntoswrk:PNPSUBS.obj
 0007:000c1ab6       _PipReadDeviceConfiguration@16 0056bab6 f   ntoswrk:PNPSUBS.obj
 0007:000c1bc4       _IopCmResourcesToIoResources@12 0056bbc4 f   ntoswrk:PNPSUBS.obj
 0007:000c1dca       _IopFilterResourceRequirementsList@16 0056bdca f   ntoswrk:PNPSUBS.obj
 0007:000c247a       _IopMergeFilteredResourceRequirementsList@12 0056c47a f   ntoswrk:PNPSUBS.obj
 0007:000c2562       _IopMergeCmResourceLists@12 0056c562 f   ntoswrk:PNPSUBS.obj
 0007:000c2650       _IopIsLegacyDriver@4       0056c650 f   ntoswrk:PNPSUBS.obj
 0007:000c269c       _PpSaveDeviceCapabilities@8 0056c69c f   ntoswrk:PNPSUBS.obj
 0007:000c2780       _IopRestartDeviceNode@4    0056c780 f   ntoswrk:PNPSUBS.obj
 0007:000c2826       _IopDeleteKeyRecursiveCallback@12 0056c826 f   ntoswrk:PNPSUBS.obj
 0007:000c2856       _IopDeleteKeyRecursive@8   0056c856 f   ntoswrk:PNPSUBS.obj
 0007:000c28bc       _PiRegSzToString@16        0056c8bc f   ntoswrk:PNPSUBS.obj
 0007:000c293a       _PpSystemHiveLimitCallback@8 0056c93a f   ntoswrk:PNPSUBS.obj
 0007:000c2988       _PpLogEvent@20             0056c988 f   ntoswrk:PNPSUBS.obj
 0007:000c2b2a       _PiFixupID@20              0056cb2a f   ntoswrk:PNPSUBS.obj
 0007:000c2c78       _PpQueryID@16              0056cc78 f   ntoswrk:PNPSUBS.obj
 0007:000c2da2       _PpQueryDeviceID@12        0056cda2 f   ntoswrk:PNPSUBS.obj
 0007:000c2df2       _PpBusTypeGuidGetIndex@4   0056cdf2 f   ntoswrk:PNPSUBS.obj
 0007:000c2f60       _PpBusTypeGuidGet@8        0056cf60 f   ntoswrk:PNPSUBS.obj
 0007:000c301a       _PpDriverObjectDereferenceComplete@4 0056d01a f   ntoswrk:PNPSUBS.obj
 0007:000c3046       _PipGenerateMadeupNodeName@8 0056d046 f   ntoswrk:PNPSUBS.obj
 0007:000c3176       _PipServiceInstanceToDeviceInstance@24 0056d176 f   ntoswrk:PNPSUBS.obj
 0007:000c32fc       _PipApplyFunctionToServiceInstances@28 0056d2fc f   ntoswrk:PNPSUBS.obj
 0007:000c359c       _IopDriverLoadingFailed@8  0056d59c f   ntoswrk:PNPSUBS.obj
 0007:000c3b16       _IopIsDeviceInstanceEnabled@12 0056db16 f   ntoswrk:PNPSUBS.obj
 0007:000c3d5a       _IopGetDeviceResourcesFromRegistry@20 0056dd5a f   ntoswrk:PNPSUBS.obj
 0007:000c3fd2       _IopDeleteLegacyKey@4      0056dfd2 f   ntoswrk:PNPSUBS.obj
 0007:000c43b2       _IopQueryAndSaveDeviceNodeCapabilities@4 0056e3b2 f   ntoswrk:PNPSUBS.obj
 0007:000c43e4       _PpQueryBusInformation@4   0056e3e4 f   ntoswrk:PNPSUBS.obj
 0007:000c45ac       _PipCreateMadeupNode@20    0056e5ac f   ntoswrk:PNPSUBS.obj
 0007:000c4b22       _IopIsAnyDeviceInstanceEnabled@12 0056eb22 f   ntoswrk:PNPSUBS.obj
 0007:000c4d5e       _IopPrepareDriverLoading@16 0056ed5e f   ntoswrk:PNPSUBS.obj
 0007:000c4fe0       _PipEnumerateDevice@8      0056efe0 f   ntoswrk:PNPENUM.obj
 0007:000c500a       _PipEnumerateCompleted@4   0056f00a f   ntoswrk:PNPENUM.obj
 0007:000c52bc       _PiCreateDeviceInstanceKey@12 0056f2bc f   ntoswrk:PNPENUM.obj
 0007:000c53dc       _PiQueryAndAllocateBootResources@8 0056f3dc f   ntoswrk:PNPENUM.obj
 0007:000c5506       _PiQueryResourceRequirements@8 0056f506 f   ntoswrk:PNPENUM.obj
 0007:000c5608       _PipCallDriverAddDeviceQueryRoutine@24 0056f608 f   ntoswrk:PNPENUM.obj
 0007:000c5a28       _PipGetRegistryDwordWithFallback@16 0056fa28 f   ntoswrk:PNPENUM.obj
 0007:000c5aea       _PipGetRegistrySecurityWithFallback@12 0056faea f   ntoswrk:PNPENUM.obj
 0007:000c5c38       _PipChangeDeviceObjectFromRegistryProperties@16 0056fc38 f   ntoswrk:PNPENUM.obj
 0007:000c5e7e       _PipProcessStartPhase1@8   0056fe7e f   ntoswrk:PNPENUM.obj
 0007:000c5eea       _PipProcessStartPhase2@4   0056feea f   ntoswrk:PNPENUM.obj
 0007:000c5f9c       _PiProcessQueryDeviceState@4 0056ff9c f   ntoswrk:PNPENUM.obj
 0007:000c6062       _PipProcessRestartPhase1@8 00570062 f   ntoswrk:PNPENUM.obj
 0007:000c6090       _PipProcessRestartPhase2@4 00570090 f   ntoswrk:PNPENUM.obj
 0007:000c60ea       _PiProcessHaltDevice@4     005700ea f   ntoswrk:PNPENUM.obj
 0007:000c616a       _PiMarkDeviceTreeForReenumerationWorker@8 0057016a f   ntoswrk:PNPENUM.obj
 0007:000c6188       _PiProcessClearDeviceProblem@4 00570188 f   ntoswrk:PNPENUM.obj
 0007:000c623a       _PiProcessRequeryDeviceState@4 0057023a f   ntoswrk:PNPENUM.obj
 0007:000c628e       _PiProcessSetDeviceProblem@4 0057028e f   ntoswrk:PNPENUM.obj
 0007:000c635e       _PiProcessShutdownPnpDevices@4 0057035e f   ntoswrk:PNPENUM.obj
 0007:000c652a       _PiBuildDeviceNodeInstancePath@16 0057052a f   ntoswrk:PNPENUM.obj
 0007:000c66aa       _PipCallDriverAddDevice@12 005706aa f   ntoswrk:PNPENUM.obj
 0007:000c6c8c       _PipMakeGloballyUniqueId@12 00570c8c f   ntoswrk:PNPENUM.obj
 0007:000c70f8       _PipProcessStartPhase3@4   005710f8 f   ntoswrk:PNPENUM.obj
 0007:000c73fa       _PiMarkDeviceTreeForReenumeration@8 005713fa f   ntoswrk:PNPENUM.obj
 0007:000c7424       _PiProcessAddBootDevices@4 00571424 f   ntoswrk:PNPENUM.obj
 0007:000c7526       _PiProcessNewDeviceNode@4  00571526 f   ntoswrk:PNPENUM.obj
 0007:000c8038       _PipProcessDevNodeTree@32  00572038 f   ntoswrk:PNPENUM.obj
 0007:000c8588       _PiProcessResourceRequirementsChanged@4 00572588 f   ntoswrk:PNPENUM.obj
 0007:000c862e       _PiProcessReenumeration@4  0057262e f   ntoswrk:PNPENUM.obj
 0007:000c86a6       _PiProcessStartSystemDevices@4 005726a6 f   ntoswrk:PNPENUM.obj
 0007:000c86ea       _PiRestartDevice@4         005726ea f   ntoswrk:PNPENUM.obj
 0007:000c87a6       _IoShutdownPnpDevices@0    005727a6 f   ntoswrk:PNPENUM.obj
 0007:000c87f4       _PiResetProblemDevicesWorker@8 005727f4 f   ntoswrk:PNPENUM.obj
 0007:000c8860       _PpResetProblemDevices@8   00572860 f   ntoswrk:PNPENUM.obj
 0007:000c889c       _IopSurpriseRemoveLockedDeviceNode@8 0057289c f   ntoswrk:PNPDEL.obj
 0007:000c89d0       _IopQueryRemoveLockedDeviceNode@12 005729d0 f   ntoswrk:PNPDEL.obj
 0007:000c8b2c       _IopCancelRemoveLockedDeviceNode@4 00572b2c f   ntoswrk:PNPDEL.obj
 0007:000c8b5a       _PiProcessBusRelations@24  00572b5a f   ntoswrk:PNPDEL.obj
 0007:000c8b92       _IopProcessRelation@24     00572b92 f   ntoswrk:PNPDEL.obj
 0007:000c9318       _IopQueuePendingEject@4    00573318 f   ntoswrk:PNPDEL.obj
 0007:000c934e       _IopInvalidateRelationsInList@16 0057334e f   ntoswrk:PNPDEL.obj
 0007:000c947a       _IopProcessCompletedEject@4 0057347a f   ntoswrk:PNPDEL.obj
 0007:000c9536       _IopQueuePendingSurpriseRemoval@12 00573536 f   ntoswrk:PNPDEL.obj
 0007:000c95ee       _IopUnlinkDeviceRemovalRelations@12 005735ee f   ntoswrk:PNPDEL.obj
 0007:000c96e2       _PipRequestDeviceRemovalWorker@8 005736e2 f   ntoswrk:PNPDEL.obj
 0007:000c9744       _PipIsBeingRemovedSafely@4 00573744 f   ntoswrk:PNPDEL.obj
 0007:000c9782       _IopBuildRemovalRelationList@20 00573782 f   ntoswrk:PNPDEL.obj
 0007:000c97f4       _IopUnloadAttachedDriver@4 005737f4 f   ntoswrk:PNPDEL.obj
 0007:000c987e       _PipRequestDeviceRemoval@12 0057387e f   ntoswrk:PNPDEL.obj
 0007:000c98c2       _IopDeleteLockedDeviceNode@24 005738c2 f   ntoswrk:PNPDEL.obj
 0007:000c991c       _IopDeleteLockedDeviceNodes@28 0057391c f   ntoswrk:PNPDEL.obj
 0007:000c99b2       _IopDelayedRemoveWorker@4  005739b2 f   ntoswrk:PNPDEL.obj
 0007:000c9a2e       _IopChainDereferenceComplete@8 00573a2e f   ntoswrk:PNPDEL.obj
 0007:000c9b2c       _PipAreDriversLoadedWorker@8 00573b2c f   ntoswrk:DEVNODE.obj
 0007:000c9b8a       _PipIsDevNodeDNStarted@4   00573b8a f   ntoswrk:DEVNODE.obj
 0007:000c9bb8       _PipClearDevNodeProblem@4  00573bb8 f   ntoswrk:DEVNODE.obj
 0007:000c9bd2       _PipSetDevNodeProblem@8    00573bd2 f   ntoswrk:DEVNODE.obj
 0007:000c9bee       _PipIsProblemReadonly@4    00573bee f   ntoswrk:DEVNODE.obj
 0007:000c9c56       _PipAllocateDeviceNode@8   00573c56 f   ntoswrk:DEVNODE.obj
 0007:000c9d76       _PipForAllChildDeviceNodes@12 00573d76 f   ntoswrk:DEVNODE.obj
 0007:000c9da2       _PipForAllDeviceNodesCallback@8 00573da2 f   ntoswrk:DEVNODE.obj
 0007:000c9dd4       _IopDestroyDeviceNode@4    00573dd4 f   ntoswrk:DEVNODE.obj
 0007:000c9f5c       _PpDevNodeLockTree@4       00573f5c f   ntoswrk:DEVNODE.obj
 0007:000c9fea       _PpDevNodeUnlockTree@4     00573fea f   ntoswrk:DEVNODE.obj
 0007:000ca052       _PipAreDriversLoaded@4     00574052 f   ntoswrk:DEVNODE.obj
 0007:000ca06c       _PipForDeviceNodeSubtree@12 0057406c f   ntoswrk:DEVNODE.obj
 0007:000ca0d2       _PipForAllDeviceNodes@8    005740d2 f   ntoswrk:DEVNODE.obj
 0007:000ca0f0       _VdmFetchBop4@4            005740f0 f   ntoswrk:VDMUSERREFS.obj
 0007:000ca178       _VdmFetchULONG@4           00574178 f   ntoswrk:VDMUSERREFS.obj
 0007:000ca1ba       _VdmFetchBop1@4            005741ba f   ntoswrk:VDMUSERREFS.obj
 0007:000ca1fc       _VdmDispatchOpcodeV86_try@4 005741fc f   ntoswrk:VDMUSERREFS.obj
 0007:000ca234       _VdmTibPass1@12            00574234 f   ntoswrk:VDMUSERREFS.obj
 0007:000ca29e       _VdmDispatchBop@4          0057429e f   ntoswrk:VDMUSERREFS.obj
 0007:000ca3b6       _VdmDispatchPageFault@12   005743b6 f   ntoswrk:VDMFAULT.obj
 0007:000ca472       _VdmDispatchIRQ13@4        00574472 f   ntoswrk:VDMNPX.obj
 0007:000ca50e       _VdmSkipNpxInstruction@16  0057450e f   ntoswrk:VDMNPX.obj
 0007:000ca5cc       _NTFastDOSIO@8             005745cc f   ntoswrk:RDWR.obj
 0007:000ca886       _Ke386CyrixId@0            00574886 f   ntoswrk:CYRIX.obj
 0007:000ca996       _PopInitProcessorStateHandlers2@4 00574996 f   ntoswrk:PIDLE.obj
 0007:000caaa4       _VdmpFlushPrinterWriteData@4 00574aa4 f   ntoswrk:VDMPRINT.obj
 0007:000cabd6       _VdmpPrinterInitialize@4   00574bd6 f   ntoswrk:VDMPRINT.obj
 0007:000cacb4       _VdmpPrinterDirectIoOpen@4 00574cb4 f   ntoswrk:VDMPRINT.obj
 0007:000cacbe       _VdmpPrinterDirectIoClose@4 00574cbe f   ntoswrk:VDMPRINT.obj
 0007:000cae2a       _VdmPrinterStatus@12       00574e2a f   ntoswrk:VDMPRINT.obj
 0007:000cb062       _VdmPrinterWriteData@12    00575062 f   ntoswrk:VDMPRINT.obj
 0007:000cb13a       _NtGetPlugPlayEvent@16     0057513a f   ntoswrk:PNPEVENT.obj
 0007:000cb234       _PpInitializeNotification@0 00575234 f   ntoswrk:PNPEVENT.obj
 0007:000cb3bc       _PpCompleteDeviceEvent@8   005753bc f   ntoswrk:PNPEVENT.obj
 0007:000cb408       _PiUserResponse@16         00575408 f   ntoswrk:PNPEVENT.obj
 0007:000cb46c       _PiBuildUnsafeRemovalDeviceBlock@12 0057546c f   ntoswrk:PNPEVENT.obj
 0007:000cb5e4       _PiCompareGuid@8           005755e4 f   ntoswrk:PNPEVENT.obj
 0007:000cb604       _PiAllocateCriticalMemory@16 00575604 f   ntoswrk:PNPEVENT.obj
 0007:000cb64a       _PiNotifyUserMode@4        0057564a f   ntoswrk:PNPEVENT.obj
 0007:000cb7bc       _PiNotifyUserModeDeviceRemoval@16 005757bc f   ntoswrk:PNPEVENT.obj
 0007:000cb82e       _PiNotifyUserModeKernelInitiatedEject@12 0057582e f   ntoswrk:PNPEVENT.obj
 0007:000cb924       _PiNotifyUserModeRemoveVetoed@16 00575924 f   ntoswrk:PNPEVENT.obj
 0007:000cba66       _PiNotifyUserModeRemoveVetoedByList@16 00575a66 f   ntoswrk:PNPEVENT.obj
 0007:000cbbb6       _PpNotifyUserModeRemovalSafe@4 00575bb6 f   ntoswrk:PNPEVENT.obj
 0007:000cbca6       _PiProcessCustomDeviceEvent@4 00575ca6 f   ntoswrk:PNPEVENT.obj
 0007:000cbcd6       _PiResizeTargetDeviceBlock@16 00575cd6 f   ntoswrk:PNPEVENT.obj
 0007:000cbe72       _PiFinalizeVetoedRemove@12 00575e72 f   ntoswrk:PNPEVENT.obj
 0007:000cbf3c       _PiCollectOpenHandlesCallBack@20 00575f3c f   ntoswrk:PNPEVENT.obj
 0007:000cc060       _PiCollectOpenHandles@16   00576060 f   ntoswrk:PNPEVENT.obj
 0007:000cc106       _PiProcessQueryRemoveAndEject@4 00576106 f   ntoswrk:PNPEVENT.obj
 0007:000ccb58       _PiProcessTargetDeviceEvent@4 00576b58 f   ntoswrk:PNPEVENT.obj
 0007:000ccbdc       _PiWalkDeviceList@4        00576bdc f   ntoswrk:PNPEVENT.obj
 0007:000ccf30       _PiInsertEventInQueue@4    00576f30 f   ntoswrk:PNPEVENT.obj
 0007:000cd0b6       _PpSetDeviceClassChange@12 005770b6 f   ntoswrk:PNPEVENT.obj
 0007:000cd18a       _PpSetCustomTargetEvent@24 0057718a f   ntoswrk:PNPEVENT.obj
 0007:000cd2b2       _PpSetTargetDeviceRemove@40 005772b2 f   ntoswrk:PNPEVENT.obj
 0007:000cd3e2       _PpSetDeviceRemovalSafe@12 005773e2 f   ntoswrk:PNPEVENT.obj
 0007:000cd4e6       _PpSetHwProfileChangeEvent@20 005774e6 f   ntoswrk:PNPEVENT.obj
 0007:000cd55e       _PpSetBlockedDriverEvent@4 0057755e f   ntoswrk:PNPEVENT.obj
 0007:000cd5cc       _PpSetInvalidIDEvent@4     005775cc f   ntoswrk:PNPEVENT.obj
 0007:000cd678       _PpSetPowerEvent@24        00577678 f   ntoswrk:PNPEVENT.obj
 0007:000cd700       _PpSetPowerVetoEvent@24    00577700 f   ntoswrk:PNPEVENT.obj
 0007:000cd846       _PpSetPlugPlayEvent@8      00577846 f   ntoswrk:PNPEVENT.obj
 0007:000cd990       _PpSynchronizeDeviceEventQueue@0 00577990 f   ntoswrk:PNPEVENT.obj
 0007:000cda1a       _PiControlCopyUserModeCallersBuffer@24 00577a1a f   ntoswrk:PPCONTROL.obj
 0007:000cdacc       _PiControlMakeUserModeCallersCopy@24 00577acc f   ntoswrk:PPCONTROL.obj
 0007:000cdb56       _PiGetInterfaceDeviceAlias@16 00577b56 f   ntoswrk:PPCONTROL.obj
 0007:000cdbc8       _PiGenerateLegacyDeviceInstance@12 00577bc8 f   ntoswrk:PPCONTROL.obj
 0007:000cdc8e       _PiQueueQueryAndRemoveEvent@20 00577c8e f   ntoswrk:PPCONTROL.obj
 0007:000cde40       _PiInitializeDevice@4      00577e40 f   ntoswrk:PPCONTROL.obj
 0007:000ce0de       _PiGetInterfaceDeviceList@20 005780de f   ntoswrk:PPCONTROL.obj
 0007:000ce16c       _PiDeviceClassAssociation@24 0057816c f   ntoswrk:PPCONTROL.obj
 0007:000ce24a       _PiGetRelatedDevice@16     0057824a f   ntoswrk:PPCONTROL.obj
 0007:000ce3e6       _PiDeviceRelationType@4    005783e6 f   ntoswrk:PPCONTROL.obj
 0007:000ce418       _PiControlGetUserFlagsFromDeviceNode@8 00578418 f   ntoswrk:PPCONTROL.obj
 0007:000ce4c0       _PiQueueDeviceRequest@16   005784c0 f   ntoswrk:PPCONTROL.obj
 0007:000ce554       _PiControlStartDevice@16   00578554 f   ntoswrk:PPCONTROL.obj
 0007:000ce5ce       _PiControlResetDevice@16   005785ce f   ntoswrk:PPCONTROL.obj
 0007:000ce64a       _PiControlInitializeDevice@16 0057864a f   ntoswrk:PPCONTROL.obj
 0007:000ce6be       _PiControlDeregisterDevice@16 005786be f   ntoswrk:PPCONTROL.obj
 0007:000ce790       _PiControlRegisterNewDevice@16 00578790 f   ntoswrk:PPCONTROL.obj
 0007:000ce808       _PiControlEnumerateDevice@16 00578808 f   ntoswrk:PPCONTROL.obj
 0007:000ce898       _PiControlQueryAndRemoveDevice@16 00578898 f   ntoswrk:PPCONTROL.obj
 0007:000ce9ba       _PiControlUserResponse@16  005789ba f   ntoswrk:PPCONTROL.obj
 0007:000cea20       _PiControlGenerateLegacyDevice@16 00578a20 f   ntoswrk:PPCONTROL.obj
 0007:000ceb26       _PiControlGetInterfaceDeviceList@16 00578b26 f   ntoswrk:PPCONTROL.obj
 0007:000cec7e       _PiControlDeviceClassAssociation@16 00578c7e f   ntoswrk:PPCONTROL.obj
 0007:000cee84       _PiControlGetRelatedDevice@16 00578e84 f   ntoswrk:PPCONTROL.obj
 0007:000cef9e       _PiControlGetInterfaceDeviceAlias@16 00578f9e f   ntoswrk:PPCONTROL.obj
 0007:000cf0d8       _PiControlGetSetDeviceStatus@16 005790d8 f   ntoswrk:PPCONTROL.obj
 0007:000cf222       _PiControlGetDeviceDepth@16 00579222 f   ntoswrk:PPCONTROL.obj
 0007:000cf2d4       _PiControlQueryTargetDeviceRelation@16 005792d4 f   ntoswrk:PPCONTROL.obj
 0007:000cf370       _PiControlQueryConflictList@16 00579370 f   ntoswrk:PPCONTROL.obj
 0007:000cf53e       _PiControlRetrieveDockData@16 0057953e f   ntoswrk:PPCONTROL.obj
 0007:000cf5ba       _PiControlGetDevicePowerData@20 005795ba f   ntoswrk:PPCONTROL.obj
 0007:000cf75c       _PiControlHaltDevice@16    0057975c f   ntoswrk:PPCONTROL.obj
 0007:000cf7da       _PiControlGetBlockedDriverData@16 005797da f   ntoswrk:PPCONTROL.obj
 0007:000cf88c       _NtPlugPlayControl@12      0057988c f   ntoswrk:PPCONTROL.obj
 0007:000cf98a       _PiQueryDeviceRelations@16 0057998a f   ntoswrk:PPCONTROL.obj
 0007:000cfbe4       _PiControlGetPropertyData@16 00579be4 f   ntoswrk:PPCONTROL.obj
 0007:000cfe84       _PiControlQueryDeviceRelations@16 00579e84 f   ntoswrk:PPCONTROL.obj
 0007:000cff9e       _PopApplyAdminPolicy@8     00579f9e f   ntoswrk:PINFO.obj
 0007:000d0064       _PopVerifySystemPowerState@8 0057a064 f   ntoswrk:PINFO.obj
 0007:000d0166       _PopConnectToPolicyDevice@8 0057a166 f   ntoswrk:PINFO.obj
 0007:000d03a6       _PopUserIsAdmin@0          0057a3a6 f   ntoswrk:PINFO.obj
 0007:000d03ee       _PopFindLoadedModule@4     0057a3ee f   ntoswrk:PINFO.obj
 0007:000d0484       _PopAdvanceSystemPowerState@16 0057a484 f   ntoswrk:PINFO.obj
 0007:000d0502       _PopNotifyPolicyDevice@8   0057a502 f   ntoswrk:PINFO.obj
 0007:000d055e       _PopFilterCapabilities@8   0057a55e f   ntoswrk:PINFO.obj
 0007:000d072c       _PopVerifyPowerActionPolicy@4 0057a72c f   ntoswrk:PINFO.obj
 0007:000d0812       _PopVerifySystemPowerPolicy@12 0057a812 f   ntoswrk:PINFO.obj
 0007:000d0a18       _PopApplyPolicy@16         0057aa18 f   ntoswrk:PINFO.obj
 0007:000d0bc4       _PopResetCurrentPolicies@0 0057abc4 f   ntoswrk:PINFO.obj
 0007:000d0dc0       _NtPowerInformation@20     0057adc0 f   ntoswrk:PINFO.obj
 0007:000d18e0       _NtSetDebugFilterState@12  0057b8e0 f   ntoswrk:KDQUERY.obj
 0007:000d1968       _NtSystemDebugControl@24   0057b968 f   ntoswrk:DBGCTRLEX.obj
 0007:000d1bc8       _VdmSwapContexts@12        0057bbc8 f   ntoswrk:STRTEXEC.obj
 0007:000d1dba       _VdmpStartExecution@0      0057bdba f   ntoswrk:STRTEXEC.obj
 0007:000d1fae       _VdmEndExecution@8         0057bfae f   ntoswrk:STRTEXEC.obj
 0007:000d20ac       _VdmpLeaveIcaLock@4        0057c0ac f   ntoswrk:VDMINTS.obj
 0007:000d2114       _VdmpIcaScan@8             0057c114 f   ntoswrk:VDMINTS.obj
 0007:000d218a       _VdmpIcaAccept@8           0057c18a f   ntoswrk:VDMINTS.obj
 0007:000d21ec       _GetIretHookAddress@12     0057c1ec f   ntoswrk:VDMINTS.obj
 0007:000d223a       _PushRmInterrupt@16        0057c23a f   ntoswrk:VDMINTS.obj
 0007:000d23a2       _PushPmInterrupt@16        0057c3a2 f   ntoswrk:VDMINTS.obj
 0007:000d26b6       _VdmpDispatchableIntPending@4 0057c6b6 f   ntoswrk:VDMINTS.obj
 0007:000d2728       _VdmpIsThreadTerminating@4 0057c728 f   ntoswrk:VDMINTS.obj
 0007:000d2782       _VdmpQueueIntNormalRoutine@12 0057c782 f   ntoswrk:VDMINTS.obj
 0007:000d27fa       _VdmpEnterIcaLock@8        0057c7fa f   ntoswrk:VDMINTS.obj
 0007:000d28c2       _VdmpRestartDelayedInterrupts@4 0057c8c2 f   ntoswrk:VDMINTS.obj
 0007:000d295e       _VdmDispatchInterrupts@8   0057c95e f   ntoswrk:VDMINTS.obj
 0007:000d2b84       _VdmpRundownRoutine@4      0057cb84 f   ntoswrk:VDMINTS.obj
 0007:000d2b9e       _PiPagePathSetState@8      0057cb9e f   ntoswrk:PPPAGEPATH.obj
 0007:000d2c7a       _PpPagePathAssign@4        0057cc7a f   ntoswrk:PPPAGEPATH.obj
 0007:000d2c90       _ChkSum@12                 0057cc90 f   ntoswrk:CHECKSUM.obj
 0007:000d2cd0       _LdrVerifyMappedImageMatchesChecksum@12 0057ccd0 f   ntoswrk:CHECKSUM.obj
 0007:000d2d40       _RtlComputeCrc32@12        0057cd40 f   ntoswrk:CHECKSUM.obj
 0007:000d2d7a       _MmLockAndCopyMemory@8     0057cd7a f   ntoswrk:MMPATCH.obj
 0007:000d2eb6       _MiPerformHotPatch@12      0057ceb6 f   ntoswrk:MMPATCH.obj
 0007:000d304c       _MmHotPatchRoutine@4       0057d04c f   ntoswrk:MMPATCH.obj
 0007:000d3112       _MiRundownHotpatchList@4   0057d112 f   ntoswrk:MMPATCH.obj
 0007:000d3150       _PopInitSIdle@0            0057d150 f   ntoswrk:SIDLE.obj
 0007:000d3282       _PopSqrt@4                 0057d282 f   ntoswrk:SIDLE.obj
 0007:000d32b4       _PoSystemIdleWorker@4      0057d2b4 f   ntoswrk:SIDLE.obj
 0007:000d3560       _PopPolicySystemIdle@0     0057d560 f   ntoswrk:SIDLE.obj
 0007:000d35e8       _FstubTranslateResource@28 0057d5e8 f   ntoswrk:TRANSLATE.obj
 0007:000d36a4       _FstubTranslateRequirement@20 0057d6a4 f   ntoswrk:TRANSLATE.obj
 0007:000d372a       _xHalGetInterruptTranslator@28 0057d72a f   ntoswrk:TRANSLATE.obj
 0007:000d3794       _PpHotSwapInitRemovalPolicy@4 0057d794 f   ntoswrk:PPHOTSWAP.obj
 0007:000d37fa       _PiHotSwapGetDefaultBusRemovalPolicy@8 0057d7fa f   ntoswrk:PPHOTSWAP.obj
 0007:000d38fc       _PiHotSwapGetDetachableNode@8 0057d8fc f   ntoswrk:PPHOTSWAP.obj
 0007:000d393a       _PpHotSwapUpdateRemovalPolicy@4 0057d93a f   ntoswrk:PPHOTSWAP.obj
 0007:000d3a14       _PpHotSwapGetDevnodeRemovalPolicy@12 0057da14 f   ntoswrk:PPHOTSWAP.obj
 0007:000d3a94       _IopSynchronousCall@12     0057da94 f   ntoswrk:PNPIRP.obj
 0007:000d3b82       _IopStartDevice@4          0057db82 f   ntoswrk:PNPIRP.obj
 0007:000d3be0       _IopCancelPendingEject@4   0057dbe0 f   ntoswrk:PNPIRP.obj
 0007:000d3c20       _IopFindMountableDevice@4  0057dc20 f   ntoswrk:PNPIRP.obj
 0007:000d3c44       _IopQueryResourceHandlerInterface@16 0057dc44 f   ntoswrk:PNPIRP.obj
 0007:000d3d88       _IopQueryReconfiguration@8 0057dd88 f   ntoswrk:PNPIRP.obj
 0007:000d3e94       _IopQueryLegacyBusInformation@16 0057de94 f   ntoswrk:PNPIRP.obj
 0007:000d3f64       _IopQueryDeviceState@8     0057df64 f   ntoswrk:PNPIRP.obj
 0007:000d3fb6       _IopIncDisableableDepends@4 0057dfb6 f   ntoswrk:PNPIRP.obj
 0007:000d3fe2       _IopDecDisableableDepends@4 0057dfe2 f   ntoswrk:PNPIRP.obj
 0007:000d400e       _IopFilterResourceRequirementsCall@12 0057e00e f   ntoswrk:PNPIRP.obj
 0007:000d4108       _IopQueryDockRemovalInterface@8 0057e108 f   ntoswrk:PNPIRP.obj
 0007:000d41be       _PpIrpQueryDeviceText@16   0057e1be f   ntoswrk:PNPIRP.obj
 0007:000d4226       _PpIrpQueryResourceRequirements@8 0057e226 f   ntoswrk:PNPIRP.obj
 0007:000d4282       _PpIrpQueryID@12           0057e282 f   ntoswrk:PNPIRP.obj
 0007:000d42e4       _PpIrpQueryCapabilities@8  0057e2e4 f   ntoswrk:PNPIRP.obj
 0007:000d4348       _PpIrpQueryBusInformation@8 0057e348 f   ntoswrk:PNPIRP.obj
 0007:000d4398       _PiAsynchronousCall@16     0057e398 f   ntoswrk:PNPIRP.obj
 0007:000d4424       _PiIrpQueryRemoveDevice@8  0057e424 f   ntoswrk:PNPIRP.obj
 0007:000d44fe       _IopEjectDevice@8          0057e4fe f   ntoswrk:PNPIRP.obj
 0007:000d463c       _IopRemoveDevice@8         0057e63c f   ntoswrk:PNPIRP.obj
 0007:000d4798       _IopQueryDeviceResources@16 0057e798 f   ntoswrk:PNPIRP.obj
 0007:000d4b28       _IopAssignResourcesToDevices@16 0057eb28 f   ntoswrk:PNPSTART.obj
 0007:000d4c3a       _IopProcessAssignResourcesWorker@8 0057ec3a f   ntoswrk:PNPSTART.obj
 0007:000d4cda       _IopWriteAllocatedResourcesToRegistry@12 0057ecda f   ntoswrk:PNPSTART.obj
 0007:000d4dcc       _IopProcessAssignResources@12 0057edcc f   ntoswrk:PNPSTART.obj
 0007:000d4f8a       _PiForEachDriverQueryRoutine@24 0057ef8a f   ntoswrk:DEVICES.obj
 0007:000d4fd4       _PiFindDevInstMatch@20     0057efd4 f   ntoswrk:DEVICES.obj
 0007:000d525e       _PpForEachDeviceInstanceDriver@12 0057f25e f   ntoswrk:DEVICES.obj
 0007:000d5484       _PiRearrangeDeviceInstances@12 0057f484 f   ntoswrk:DEVICES.obj
 0007:000d5724       _PiProcessDriverInstance@16 0057f724 f   ntoswrk:DEVICES.obj
 0007:000d58f4       _PiDeviceRegistration@12   0057f8f4 f   ntoswrk:DEVICES.obj
 0007:000d5a78       _PpDeviceRegistration@12   0057fa78 f   ntoswrk:DEVICES.obj
 0007:000d5adc       _VdmpGetVdmTib@4           0057fadc f   ntoswrk:VDMTIB.obj
 0007:000d5b70       _VdmQueryDirectoryFile@4   0057fb70 f   ntoswrk:VDM.obj
 0007:000d5f06       _PopCalculatePerfDecreaseLevel@8 0057ff06 f   ntoswrk:THROTTLE.obj
 0007:000d5f6a       _PopCalculatePerfIncreaseDecreaseTime@12 0057ff6a f   ntoswrk:THROTTLE.obj
 0007:000d602e       _PopCalculatePerfIncreaseLevel@8 0058002e f   ntoswrk:THROTTLE.obj
 0007:000d608c       _PopCalculatePerfMinCapacity@8 0058008c f   ntoswrk:THROTTLE.obj
 0007:000d6134       _PopAllocateDevState@0     00580134 f   ntoswrk:SYSDEV.obj
 0007:000d623e       _IopWarmEjectDevice@8      0058023e f   ntoswrk:PNPPOWER.obj
 0007:000d62d6       _PopAcquirePolicyLock@0    005802d6 f   ntoswrk:PWORK.obj
 0007:000d62fe       _PopPolicyTimeChange@0     005802fe f   ntoswrk:PWORK.obj
 0007:000d6310       _PopPolicyWorkerNotify@0   00580310 f   ntoswrk:PWORK.obj
 0007:000d6366       _PopDispatchCallout@4      00580366 f   ntoswrk:PWORK.obj
 0007:000d637c       _PopDispatchCallback@4     0058037c f   ntoswrk:PWORK.obj
 0007:000d6398       _PopDispatchDisplayRequired@4 00580398 f   ntoswrk:PWORK.obj
 0007:000d6446       _PopDispatchAcDcCallback@4 00580446 f   ntoswrk:PWORK.obj
 0007:000d646c       _PopDispatchPolicyCallout@4 0058046c f   ntoswrk:PWORK.obj
 0007:000d6486       _PopReleasePolicyLock@4    00580486 f   ntoswrk:PWORK.obj
 0007:000d64e0       _PopPolicyWorkerMain@0     005804e0 f   ntoswrk:PWORK.obj
 0007:000d6528       _PopDispatchFullWake@4     00580528 f   ntoswrk:PWORK.obj
 0007:000d65fe       _PopDispatchEventCodes@4   005805fe f   ntoswrk:PWORK.obj
 0007:000d6648       _PopDispatchSetStateFailure@4 00580648 f   ntoswrk:PWORK.obj
 0007:000d66ba       _PopTriggerSwitch@12       005806ba f   ntoswrk:SWITCH.obj
 0007:000d6756       _PopResetSwitchTriggers@0  00580756 f   ntoswrk:SWITCH.obj
 0007:000d6772       _PopSystemButtonHandler@12 00580772 f   ntoswrk:SWITCH.obj
 0007:000d6904       _RtlDecompressBufferLZNT1@20 00580904 f   ntoswrk:LZNT1.obj
 0007:000d6a56       _RtlDecompressFragmentLZNT1@28 00580a56 f   ntoswrk:LZNT1.obj
 0007:000d6c48       _RtlDescribeChunkLZNT1@16  00580c48 f   ntoswrk:LZNT1.obj
 0007:000d6d0c       _RtlReserveChunkLZNT1@16   00580d0c f   ntoswrk:LZNT1.obj
 0007:000d6e5a       _LZNT1FindMatchMaximum@8   00580e5a f   ntoswrk:LZNT1.obj
 0007:000d6f8c       _RtlGetNtProductType@4     00580f8c f   ntoswrk:PRODTYPE.obj
 0007:000d710e       _CcPfParametersVerify@4    0058110e f   ntoswrk:PREFPARM.obj
 0007:000d721e       _CcPfParametersSetChangedEvent@4 0058121e f   ntoswrk:PREFPARM.obj
 0007:000d72f6       _CcPfGetParameter@20       005812f6 f   ntoswrk:PREFPARM.obj
 0007:000d73c0       _CcPfSetParameter@20       005813c0 f   ntoswrk:PREFPARM.obj
 0007:000d73fe       _CcPfDetermineEnablePrefetcher@0 005813fe f   ntoswrk:PREFPARM.obj
 0007:000d7496       _CcPfIsHostingApplication@4 00581496 f   ntoswrk:PREFPARM.obj
 0007:000d764c       _CcPfParametersRead@4      0058164c f   ntoswrk:PREFPARM.obj
 0007:000d7b24       _CcPfParametersSave@4      00581b24 f   ntoswrk:PREFPARM.obj
 0007:000d7e84       _CcPfParametersWatcher@4   00581e84 f   ntoswrk:PREFPARM.obj
 0007:000d8038       _ArbStartArbiter@8         00582038 f   ntoswrk:ARBITER.obj
 0007:000d8038       _ArbPreprocessEntry@8      00582038 f   ntoswrk:ARBITER.obj
 0007:000d8038       _IopPnPAddDevice@8         00582038 f   ntoswrk:PNPDD.obj
 0007:000d8042       _IopTranslatorHandlerCm@28 00582042 f   ntoswrk:PNPDD.obj
 0007:000d805e       _IopTranslatorHandlerIo@20 0058205e f   ntoswrk:PNPDD.obj
 0007:000d80cc       _IopIsFirmwareDisabled@4   005820cc f   ntoswrk:PNPDD.obj
 0007:000d81ea       _IopGetServiceType@8       005821ea f   ntoswrk:PNPDD.obj
 0007:000d82ac       _PipIsFirmwareMapperDevicePresent@4 005822ac f   ntoswrk:PNPDD.obj
 0007:000d8370       _IopSystemControlDispatch@8 00582370 f   ntoswrk:PNPDD.obj
 0007:000d8412       _IopInitializeDeviceInstanceKey@12 00582412 f   ntoswrk:PNPDD.obj
 0007:000d8972       _IopInitializeDeviceKey@12 00582972 f   ntoswrk:PNPDD.obj
 0007:000d89da       _IopGetRootDevices@4       005829da f   ntoswrk:PNPDD.obj
 0007:000d8bf4       _IopPnPDispatch@8          00582bf4 f   ntoswrk:PNPDD.obj
 0007:000d9072       _PnPBiosGetBiosHandleFromDeviceKey@8 00583072 f   ntoswrk:PBIOSC.obj
 0007:000d9104       _PnPBiosExtractInfo@28     00583104 f   ntoswrk:PBIOSC.obj
 0007:000d9198       _PnPBiosInitializePnPBios@0 00583198 f   ntoswrk:PBIOSC.obj
 0007:000d92a4       _PnPBiosExamineBiosDeviceInstanceKey@12 005832a4 f   ntoswrk:PBIOSC.obj
 0007:000d9566       _PnPBiosExamineBiosDeviceKey@12 00583566 f   ntoswrk:PBIOSC.obj
 0007:000d95d4       _PnPBiosCollectLegacyDeviceResources@4 005835d4 f   ntoswrk:PBIOSC.obj
 0007:000d96a2       _PnPBiosExamineDeviceKeys@12 005836a2 f   ntoswrk:PBIOSC.obj
 0007:000d9844       _PnPBiosGetBiosInfo@8      00583844 f   ntoswrk:PNPMAP.obj
 0007:000d9a6c       _PpProfileBeginHardwareProfileTransition@4 00583a6c f   ntoswrk:PPPROFILE.obj
 0007:000d9a8e       _PpProfileIncludeInHardwareProfileTransition@8 00583a8e f   ntoswrk:PPPROFILE.obj
 0007:000d9b8c       _PpProfileQueryHardwareProfileChange@16 00583b8c f   ntoswrk:PPPROFILE.obj
 0007:000d9c6e       _PpProfileMarkAllTransitioningDocksEjected@0 00583c6e f   ntoswrk:PPPROFILE.obj
 0007:000d9d18       _PiProfileSendHardwareProfileCommit@0 00583d18 f   ntoswrk:PPPROFILE.obj
 0007:000d9d2e       _PiProfileSendHardwareProfileCancel@0 00583d2e f   ntoswrk:PPPROFILE.obj
 0007:000d9d44       _PiProfileConvertFakeDockToRealDock@4 00583d44 f   ntoswrk:PPPROFILE.obj
 0007:000d9e06       _PiProfileRetrievePreferredCallback@8 00583e06 f   ntoswrk:PPPROFILE.obj
 0007:000d9f14       _PiProfileUpdateDeviceTreeCallback@8 00583f14 f   ntoswrk:PPPROFILE.obj
 0007:000d9fa8       _PpProfileCancelHardwareProfileTransition@0 00583fa8 f   ntoswrk:PPPROFILE.obj
 0007:000da078       _PpProfileRetrievePreferredDockToEject@0 00584078 f   ntoswrk:PPPROFILE.obj
 0007:000da09a       _PiProfileUpdateDeviceTreeWorker@4 0058409a f   ntoswrk:PPPROFILE.obj
 0007:000da0ca       _PiProfileUpdateDeviceTree@0 005840ca f   ntoswrk:PPPROFILE.obj
 0007:000da100       _PpProfileCommitTransitioningDock@8 00584100 f   ntoswrk:PPPROFILE.obj
 0007:000da264       _PpProfileCancelTransitioningDock@8 00584264 f   ntoswrk:PPPROFILE.obj
 0007:000da340       _PpProfileProcessDockDeviceCapability@8 00584340 f   ntoswrk:PPPROFILE.obj
 0007:000da37c       _IopBusNumberUnpackRequirement@20 0058437c f   ntoswrk:PNPBUSNO.obj
 0007:000da3b6       _IopBusNumberScoreRequirement@4 005843b6 f   ntoswrk:PNPBUSNO.obj
 0007:000da3d0       _IopBusNumberPackResource@16 005843d0 f   ntoswrk:PNPBUSNO.obj
 0007:000da402       _IopBusNumberUnpackResource@12 00584402 f   ntoswrk:PNPBUSNO.obj
 0007:000da44a       _IopBusNumberInitialize@0  0058444a f   ntoswrk:PNPBUSNO.obj
 0007:000da4b8       _IopIrqTranslateOrdering@8 005844b8 f   ntoswrk:PNPIRQ.obj
 0007:000da52c       _IopIrqUnpackRequirement@20 0058452c f   ntoswrk:PNPIRQ.obj
 0007:000da52c       _IopDmaUnpackRequirement@20 0058452c f   ntoswrk:PNPDMA.obj
 0007:000da562       _IopIrqScoreRequirement@4  00584562 f   ntoswrk:PNPIRQ.obj
 0007:000da578       _IopIrqPackResource@16     00584578 f   ntoswrk:PNPIRQ.obj
 0007:000da5aa       _IopIrqUnpackResource@12   005845aa f   ntoswrk:PNPIRQ.obj
 0007:000da5e8       _IopIrqInitialize@0        005845e8 f   ntoswrk:PNPIRQ.obj
 0007:000da634       _IopDmaScoreRequirement@4  00584634 f   ntoswrk:PNPDMA.obj
 0007:000da64a       _IopDmaPackResource@16     0058464a f   ntoswrk:PNPDMA.obj
 0007:000da67a       _IopDmaUnpackResource@12   0058467a f   ntoswrk:PNPDMA.obj
 0007:000da6a0       _IopDmaOverrideConflict@8  005846a0 f   ntoswrk:PNPDMA.obj
 0007:000da6c2       _IopDmaInitialize@0        005846c2 f   ntoswrk:PNPDMA.obj
 0007:000da714       _IopTranslateBusAddress@20 00584714 f   ntoswrk:PNPMEMIO.obj
 0007:000da790       _IopGenericTranslateOrdering@8 00584790 f   ntoswrk:PNPMEMIO.obj
 0007:000da806       _IopGenericUnpackRequirement@20 00584806 f   ntoswrk:PNPMEMIO.obj
 0007:000da874       _IopGenericScoreRequirement@4 00584874 f   ntoswrk:PNPMEMIO.obj
 0007:000da8fc       _IopGenericPackResource@16 005848fc f   ntoswrk:PNPMEMIO.obj
 0007:000da936       _IopGenericUnpackResource@12 00584936 f   ntoswrk:PNPMEMIO.obj
 0007:000da95e       _IopPortGetNextAlias@16    0058495e f   ntoswrk:PNPMEMIO.obj
 0007:000da9aa       _IopPortAddAllocation@8    005849aa f   ntoswrk:PNPMEMIO.obj
 0007:000daa62       _IopMemFindSuitableRange@8 00584a62 f   ntoswrk:PNPMEMIO.obj
 0007:000daaa4       _IopMemInitialize@0        00584aa4 f   ntoswrk:PNPMEMIO.obj
 0007:000dab18       _IopPortBacktrackAllocation@8 00584b18 f   ntoswrk:PNPMEMIO.obj
 0007:000dab98       _IopPortFindSuitableRange@8 00584b98 f   ntoswrk:PNPMEMIO.obj
 0007:000dac78       _IopPortInitialize@0       00584c78 f   ntoswrk:PNPMEMIO.obj
 0007:000dace2       _PiCompareDDBCacheEntries@12 00584ce2 f   ntoswrk:PPDRVDB.obj
 0007:000dad2e       _PiLookupInDDBCache@16     00584d2e f   ntoswrk:PPDRVDB.obj
 0007:000dae10       _PiUpdateDriverDBCache@20  00584e10 f   ntoswrk:PPDRVDB.obj
 0007:000daf58       _PpGetBlockedDriverList@12 00584f58 f   ntoswrk:PPDRVDB.obj
 0007:000db058       _PiIsDriverBlocked@20      00585058 f   ntoswrk:PPDRVDB.obj
 0007:000db27c       _PiLookupInDDB@16          0058527c f   ntoswrk:PPDRVDB.obj
 0007:000db452       _PpCheckInDriverDatabase@24 00585452 f   ntoswrk:PPDRVDB.obj
 0007:000db55e       _PiCriticalOpenFirstMatchingSubKey@20 0058555e f   ntoswrk:PPCDDB.obj
 0007:000db610       _PiCriticalCallbackVerifyCriticalEntry@4 00585610 f   ntoswrk:PPCDDB.obj
 0007:000db6b8       _PiQueryInterface@20       005856b8 f   ntoswrk:PPCDDB.obj
 0007:000db76a       _PiCopyKeyRecursive@20     0058576a f   ntoswrk:PPCDDB.obj
 0007:000dbab2       _PiCriticalQueryRegistryValueCallback@24 00585ab2 f   ntoswrk:PPCDDB.obj
 0007:000dbbc8       _PiCriticalOpenCriticalDeviceKey@12 00585bc8 f   ntoswrk:PPCDDB.obj
 0007:000dbee8       _PiCriticalCopyCriticalDeviceProperties@8 00585ee8 f   ntoswrk:PPCDDB.obj
 0007:000dc3ae       _PpCriticalGetDeviceLocationStrings@8 005863ae f   ntoswrk:PPCDDB.obj
 0007:000dc832       _PiCriticalOpenDevicePreInstallKey@12 00586832 f   ntoswrk:PPCDDB.obj
 0007:000dc99c       _PiCriticalPreInstallDevice@8 0058699c f   ntoswrk:PPCDDB.obj
 0007:000dcb62       _PpCriticalProcessCriticalDevice@4 00586b62 f   ntoswrk:PPCDDB.obj
 0007:000dcc84       _IopAddRelationToList@16   00586c84 f   ntoswrk:PNPRLIST.obj
 0007:000dcd88       _IopAllocateRelationList@4 00586d88 f   ntoswrk:PNPRLIST.obj
 0007:000dcdd6       _IopCompressRelationList@4 00586dd6 f   ntoswrk:PNPRLIST.obj
 0007:000dcf16       _IopEnumerateRelations@24  00586f16 f   ntoswrk:PNPRLIST.obj
 0007:000dd01a       _IopFreeRelationList@4     0058701a f   ntoswrk:PNPRLIST.obj
 0007:000dd08a       _IopGetRelationsCount@4    0058708a f   ntoswrk:PNPRLIST.obj
 0007:000dd09c       _IopIsRelationInList@8     0058709c f   ntoswrk:PNPRLIST.obj
 0007:000dd0fa       _IopRemoveIndirectRelationsFromList@4 005870fa f   ntoswrk:PNPRLIST.obj
 0007:000dd1aa       _IopRemoveRelationFromList@8 005871aa f   ntoswrk:PNPRLIST.obj
 0007:000dd25a       _IopSetAllRelationsTags@8  0058725a f   ntoswrk:PNPRLIST.obj
 0007:000dd2b4       _IopSetRelationsTag@12     005872b4 f   ntoswrk:PNPRLIST.obj
 0007:000dd332       _IopMergeRelationLists@12  00587332 f   ntoswrk:PNPRLIST.obj
 0007:000dd3dc       _PiHandleProcessWalkWorker@12 005873dc f   ntoswrk:PPHANDLE.obj
 0007:000dd426       _PiHandleEnumerateHandlesAgainstDeviceObject@12 00587426 f   ntoswrk:PPHANDLE.obj
 0007:000dd492       _PopThermalDeviceHandler@12 00587492 f   ntoswrk:THERMAL.obj
 0007:000dd682       _PopRecalculateCBTriggerLevels@4 00587682 f   ntoswrk:PBATT.obj
 0007:000dd714       _PopResetCBTriggers@4      00587714 f   ntoswrk:PBATT.obj
 0007:000dd744       _PopCurrentPowerState@4    00587744 f   ntoswrk:PBATT.obj
 0007:000dd858       _PopCompositeBatteryDeviceHandler@12 00587858 f   ntoswrk:PBATT.obj
 0007:000ddd18       _VdmTraceEvent@16          00587d18 f   ntoswrk:VDMTRACE.obj
 0007:000ddd20       _RtlpAllocateHotpatchMemory@8 00587d20 f   ntoswrk:RTLPATCH.obj
 0007:000ddd42       _RtlpFreeHotpatchMemory@4  00587d42 f   ntoswrk:RTLPATCH.obj
 0007:000ddd5c       _RtlpFindSectionHeader@8   00587d5c f   ntoswrk:RTLPATCH.obj
 0007:000ddda8       _RtlGetHotpatchHeader@4    00587da8 f   ntoswrk:RTLPATCH.obj
 0007:000dddf0       _RtlFindRtlPatchHeader@8   00587df0 f   ntoswrk:RTLPATCH.obj
 0007:000dde14       _RtlFreeHotPatchData@4     00587e14 f   ntoswrk:RTLPATCH.obj
 0007:000ddf34       _RtlpApplyRelocationFixups@8 00587f34 f   ntoswrk:RTLPATCH.obj
 0007:000de2c6       _RtlpSingleRangeValidate@8 005882c6 f   ntoswrk:RTLPATCH.obj
 0007:000de418       _RtlpValidateTargetRanges@8 00588418 f   ntoswrk:RTLPATCH.obj
 0007:000de524       _RtlReadSingleHookValidation@28 00588524 f   ntoswrk:RTLPATCH.obj
 0007:000de8e8       _RtlpReadSingleHookInformation@20 005888e8 f   ntoswrk:RTLPATCH.obj
 0007:000dec94       _RtlReadHookInformation@4  00588c94 f   ntoswrk:RTLPATCH.obj
 0007:000deeb2       _RtlInitializeHotPatch@8   00588eb2 f   ntoswrk:RTLPATCH.obj
 0007:000deee4       _RtlpIsSameImage@8         00588ee4 f   ntoswrk:RTLPATCH.obj
 0007:000def38       _RtlCreateHotPatch@16      00588f38 f   ntoswrk:RTLPATCH.obj
 0007:000defc2       _ArbpBuildAlternative@12   00588fc2 f   ntoswrk:ARBITER.obj
 0007:000df048       _ArbpBuildAllocationStack@12 00589048 f   ntoswrk:ARBITER.obj
 0007:000df146       _ArbSortArbitrationList@4  00589146 f   ntoswrk:ARBITER.obj
 0007:000df194       _ArbCommitAllocation@4     00589194 f   ntoswrk:ARBITER.obj
 0007:000df1bc       _ArbRollbackAllocation@4   005891bc f   ntoswrk:ARBITER.obj
 0007:000df1d6       _ArbRetestAllocation@8     005891d6 f   ntoswrk:ARBITER.obj
 0007:000df2b8       _ArbBootAllocation@8       005892b8 f   ntoswrk:ARBITER.obj
 0007:000df3d4       _ArbArbiterHandler@12      005893d4 f   ntoswrk:ARBITER.obj
 0007:000df4b2       _ArbAddAllocation@8        005894b2 f   ntoswrk:ARBITER.obj
 0007:000df4f4       _ArbBacktrackAllocation@8  005894f4 f   ntoswrk:ARBITER.obj
 0007:000df520       _ArbAllocateEntry@8        00589520 f   ntoswrk:ARBITER.obj
 0007:000df620       _ArbpGetRegistryValue@12   00589620 f   ntoswrk:ARBITER.obj
 0007:000df6ae       _ArbInitializeOrderingList@4 005896ae f   ntoswrk:ARBITER.obj
 0007:000df6ee       _ArbAddOrdering@20         005896ee f   ntoswrk:ARBITER.obj
 0007:000df7b0       _ArbPruneOrdering@20       005897b0 f   ntoswrk:ARBITER.obj
 0007:000df988       _ArbFreeOrderingList@4     00589988 f   ntoswrk:ARBITER.obj
 0007:000df9b6       _ArbOverrideConflict@8     005899b6 f   ntoswrk:ARBITER.obj
 0007:000dfa88       _ArbpUpdatePriority@8      00589a88 f   ntoswrk:ARBITER.obj
 0007:000dfbd6       _ArbAddReserved@12         00589bd6 f   ntoswrk:ARBITER.obj
 0007:000dfbe4       _ArbpQueryConflictCallback@8 00589be4 f   ntoswrk:ARBITER.obj
 0007:000dfbfa       _ArbQueryConflict@20       00589bfa f   ntoswrk:ARBITER.obj
 0007:000dff82       _ArbShareDriverExclusive@8 00589f82 f   ntoswrk:ARBITER.obj
 0007:000e0120       _ArbTestAllocation@8       0058a120 f   ntoswrk:ARBITER.obj
 0007:000e02a6       _ArbBuildAssignmentOrdering@16 0058a2a6 f   ntoswrk:ARBITER.obj
 0007:000e06d0       _ArbFindSuitableRange@8    0058a6d0 f   ntoswrk:ARBITER.obj
 0007:000e07ac       _ArbGetNextAllocationRange@8 0058a7ac f   ntoswrk:ARBITER.obj
 0007:000e097e       _ArbInitializeArbiterInstance@24 0058a97e f   ntoswrk:ARBITER.obj
 0007:000e0b54       _PpBiosResourcesSetToDisabled@8 0058ab54 f   ntoswrk:PNPCVRT.obj
 0007:000e0bce       _PbAddDependentResourcesToList@12 0058abce f   ntoswrk:PNPCVRT.obj
 0007:000e0c36       _PbBiosIrqToIoDescriptor@8 0058ac36 f   ntoswrk:PNPCVRT.obj
 0007:000e0cfe       _PbBiosDmaToIoDescriptor@8 0058acfe f   ntoswrk:PNPCVRT.obj
 0007:000e0d94       _PbBiosPortFixedToIoDescriptor@12 0058ad94 f   ntoswrk:PNPCVRT.obj
 0007:000e0e20       _PbBiosPortToIoDescriptor@8 0058ae20 f   ntoswrk:PNPCVRT.obj
 0007:000e0eac       _PbBiosMemoryToIoDescriptor@8 0058aeac f   ntoswrk:PNPCVRT.obj
 0007:000e0f8a       _PbCmIrqToBiosDescriptor@16 0058af8a f   ntoswrk:PNPCVRT.obj
 0007:000e1034       _PbCmDmaToBiosDescriptor@16 0058b034 f   ntoswrk:PNPCVRT.obj
 0007:000e110e       _PbCmPortToBiosDescriptor@16 0058b10e f   ntoswrk:PNPCVRT.obj
 0007:000e12a0       _PbCmMemoryToBiosDescriptor@16 0058b2a0 f   ntoswrk:PNPCVRT.obj
 0007:000e13be       _PpBiosResourcesToNtResources@24 0058b3be f   ntoswrk:PNPCVRT.obj
 0007:000e191c       _PpCmResourcesToBiosResources@16 0058b91c f   ntoswrk:PNPCVRT.obj
 0007:000e1ae8       _IopExecuteHwpDefaultSelect@12 0058bae8 f   ntoswrk:DOCKHWP.obj
 0007:000e1afc       _IopExecuteHardwareProfileChange@20 0058bafc f   ntoswrk:DOCKHWP.obj
 0007:000e1c74       _ApphelpDuplicateUnicodeString@8 0058bc74 f   sdbapint:ahcache.obj
 0007:000e1cf7       _ApphelpFreeUnicodeString@4 0058bcf7 f   sdbapint:ahcache.obj
 0007:000e1d3c       _ApphelpCacheQueryFileInformation@12 0058bd3c f   sdbapint:ahcache.obj
 0007:000e1d9d       _ApphelpCacheCompareEntries@12 0058bd9d f   sdbapint:ahcache.obj
 0007:000e1dd2       _ApphelpAVLTableAllocate@8 0058bdd2 f   sdbapint:ahcache.obj
 0007:000e1de8       _ApphelpAVLTableFree@8     0058bde8 f   sdbapint:ahcache.obj
 0007:000e1e04       _ApphelpCacheVerifyContext@0 0058be04 f   sdbapint:ahcache.obj
 0007:000e1e37       _ApphelpCacheCreateBuffer@8 0058be37 f   sdbapint:ahcache.obj
 0007:000e1f15       _ApphelpCacheWrite@0       0058bf15 f   sdbapint:ahcache.obj
 0007:000e1f93       _ApphelpCacheShutdown@4    0058bf93 f   sdbapint:ahcache.obj
 0007:000e1faa       _ApphelpCacheLockExclusiveNoWait@0 0058bfaa f   sdbapint:ahcache.obj
 0007:000e1fd5       _ApphelpCacheLockExclusive@0 0058bfd5 f   sdbapint:ahcache.obj
 0007:000e1fee       _ApphelpCacheReleaseLock@0 0058bfee f   sdbapint:ahcache.obj
 0007:000e2005       _ApphelpCacheFlush@0       0058c005 f   sdbapint:ahcache.obj
 0007:000e2077       _ApphelpCacheControlValidateParameters@12 0058c077 f   sdbapint:ahcache.obj
 0007:000e215f       __ApphelpCacheFreeEntry@4  0058c15f f   sdbapint:ahcache.obj
 0007:000e21bc       __ApphelpCacheDeleteEntry@4 0058c1bc f   sdbapint:ahcache.obj
 0007:000e21fa       _ApphelpCacheRemoveEntry@4 0058c1fa f   sdbapint:ahcache.obj
 0007:000e2224       _ApphelpCacheInsertEntry@8 0058c224 f   sdbapint:ahcache.obj
 0007:000e2390       _ApphelpCacheLookupEntry@8 0058c390 f   sdbapint:ahcache.obj
 0007:000e244b       _ApphelpCacheParseBuffer@8 0058c44b f   sdbapint:ahcache.obj
 0007:000e2560       _ApphelpCacheRead@0        0058c560 f   sdbapint:ahcache.obj
 0007:000e2634       _ApphelpCacheInitialize@8  0058c634 f   sdbapint:ahcache.obj
 0007:000e26b3       _NtApphelpCacheControl@8   0058c6b3 f   sdbapint:ahcache.obj
 0007:000e2791       _SdbGetDatabaseID@8        0058c791 f   sdbapint:dbaccess.obj
 0007:000e27ff       _SdbpReadMappedData@16     0058c7ff f   sdbapint:dbaccess.obj
 0007:000e283f       _SdbpGetMappedData@8       0058c83f f   sdbapint:dbaccess.obj
 0007:000e2861       _SdbpOpenDatabaseInMemory@8 0058c861 f   sdbapint:dbaccess.obj
 0007:000e28c8       _SdbpUnmapAndCloseDB@4     0058c8c8 f   sdbapint:dbaccess.obj
 0007:000e2923       _SdbGetTagFromTagID@8      0058c923 f   sdbapint:dbaccess.obj
 0007:000e294e       _SdbpGetNextTagId@8        0058c94e f   sdbapint:dbaccess.obj
 0007:000e29b4       _SdbGetFirstChild@8        0058c9b4 f   sdbapint:dbaccess.obj
 0007:000e29fd       _SdbGetNextChild@12        0058c9fd f   sdbapint:dbaccess.obj
 0007:000e2a4e       _SdbpCreateSearchPathPartsFromPath@8 0058ca4e f   sdbapint:dbaccess.obj
 0007:000e2b09       _SdbCloseDatabaseRead@4    0058cb09 f   sdbapint:dbaccess.obj
 0007:000e2b2e       _SdbReleaseDatabase@4      0058cb2e f   sdbapint:dbaccess.obj
 0007:000e2b8d       _ShimExceptionHandler@12   0058cb8d f   sdbapint:sdbapi.obj
 0007:000e2b98       _SdbpInitializeSearchDBContext@4 0058cb98 f   sdbapint:sdbapi.obj
 0007:000e2c3e       _SdbpReleaseSearchDBContext@4 0058cc3e f   sdbapint:sdbapi.obj
 0007:000e2ca9       _SdbpCheckForMatch@28      0058cca9 f   sdbapint:sdbapi.obj
 0007:000e2f84       _SdbReadEntryInformation@12 0058cf84 f   sdbapint:sdbapi.obj
 0007:000e304a       _SdbpSearchDB@32           0058d04a f   sdbapint:sdbapi.obj
 0007:000e32ac       _SdbQueryDataEx@28         0058d2ac f   sdbapint:sdbapi.obj
 0007:000e3327       _SdbpCreateSearchDBContext@16 0058d327 f   sdbapint:sdbapi.obj
 0007:000e3475       _SdbGetDatabaseMatch@20    0058d475 f   sdbapint:sdbapi.obj
 0007:000e3533       _SdbQueryData@24           0058d533 f   sdbapint:sdbapi.obj
 0007:000e355a       _SdbTagIDToTagRef@16       0058d55a f   sdbapint:ntkmode.obj
 0007:000e3573       _SdbTagRefToTagID@16       0058d573 f   sdbapint:ntkmode.obj
 0007:000e35bf       _SdbInitDatabaseInMemory@8 0058d5bf f   sdbapint:ntkmode.obj
 0007:000e35fd       _SdbpOpenAndMapFile@12     0058d5fd f   sdbapint:ntkmode.obj
 0007:000e376c       _SdbpUnmapAndCloseFile@4   0058d76c f   sdbapint:ntkmode.obj
 0007:000e37e1       _SdbpUpcaseUnicodeStringToMultiByteN@12 0058d7e1 f   sdbapint:ntkmode.obj
 0007:000e3889       _SdbpQueryFileDirectoryAttributesNT@8 0058d889 f   sdbapint:ntkmode.obj
 0007:000e38af       _SdbpDoesFileExists_U@4    0058d8af f   sdbapint:ntkmode.obj
 0007:000e3922       _SdbGetFileInfo@24         0058d922 f   sdbapint:ntkmode.obj
 0007:000e3992       _SdbpGetFileDirectoryAttributesNT@8 0058d992 f   sdbapint:ntkmode.obj
 0007:000e39fd       _SdbAlloc@4                0058d9fd f   sdbapint:ntbase.obj
 0007:000e3a3b       _SdbFree@4                 0058da3b f   sdbapint:ntbase.obj
 0007:000e3a5c       _SdbpQueryAppCompatFlagsByExeID@12 0058da5c f   sdbapint:ntbase.obj
 0007:000e3af8       _SdbGetEntryFlags@8        0058daf8 f   sdbapint:ntbase.obj
 0007:000e3b48       _SdbpGetTagHeadSize@8      0058db48 f   sdbapint:read.obj
 0007:000e3b80       _SdbGetTagDataSize@8       0058db80 f   sdbapint:read.obj
 0007:000e3bfa       _SdbpReadTagData@16        0058dbfa f   sdbapint:read.obj
 0007:000e3c41       _SdbpGetMappedTagData@8    0058dc41 f   sdbapint:read.obj
 0007:000e3c66       _SdbpReadStringRef@8       0058dc66 f   sdbapint:read.obj
 0007:000e3caa       _SdbpGetMappedStringFromTable@8 0058dcaa f   sdbapint:read.obj
 0007:000e3d17       _SdbReadBinaryTag@16       0058dd17 f   sdbapint:read.obj
 0007:000e3d55       _SdbReadWORDTag@12         0058dd55 f   sdbapint:read.obj
 0007:000e3da1       _SdbReadDWORDTag@12        0058dda1 f   sdbapint:read.obj
 0007:000e3dea       _SdbReadQWORDTag@16        0058ddea f   sdbapint:read.obj
 0007:000e3e40       _SdbGetStringTagPtr@8      0058de40 f   sdbapint:read.obj
 0007:000e3e94       _SdbFindFirstTag@12        0058de94 f   sdbapint:findtag.obj
 0007:000e3edc       _SdbFindNextTag@12         0058dedc f   sdbapint:findtag.obj
 0007:000e3f35       _SdbFindFirstNamedTag@20   0058df35 f   sdbapint:findtag.obj
 0007:000e3fa4       _SdbpFindNextNamedTag@20   0058dfa4 f   sdbapint:findtag.obj
 0007:000e4025       _SdbpFindMatchingName@12   0058e025 f   sdbapint:findtag.obj
 0007:000e409d       _TagToIndex@4              0058e09d f   sdbapint:attributes.obj
 0007:000e40c4       _SdbpSetAttribute@12       0058e0c4 f   sdbapint:attributes.obj
 0007:000e4142       _SdbpQueryBinVersionInformation@12 0058e142 f   sdbapint:attributes.obj
 0007:000e41ec       _SdbpGetVersionAttributesNT@12 0058e1ec f   sdbapint:attributes.obj
 0007:000e42a5       _FindFileInfo@8            0058e2a5 f   sdbapint:attributes.obj
 0007:000e42de       _CreateFileInfo@28         0058e2de f   sdbapint:attributes.obj
 0007:000e4376       _SdbFreeFileInfo@4         0058e376 f   sdbapint:attributes.obj
 0007:000e43ba       _SdbpCleanupAttributeMgr@4 0058e3ba f   sdbapint:attributes.obj
 0007:000e43ef       _SdbpGetModuleType@8       0058e3ef f   sdbapint:attributes.obj
 0007:000e4493       _SdbpGetImageNTHeader@8    0058e493 f   sdbapint:attributes.obj
 0007:000e450e       _SdbpGetModulePECheckSum@16 0058e50e f   sdbapint:attributes.obj
 0007:000e45d6       _SdbpGetFileChecksum@8     0058e5d6 f   sdbapint:attributes.obj
 0007:000e468a       _SdbpCheckVersion@16       0058e68a f   sdbapint:attributes.obj
 0007:000e46d3       _SdbpCheckUptoVersion@16   0058e6d3 f   sdbapint:attributes.obj
 0007:000e4725       _SdbpGetHeaderAttributes@8 0058e725 f   sdbapint:attributes.obj
 0007:000e48aa       _SdbpGetAttribute@12       0058e8aa f   sdbapint:attributes.obj
 0007:000e4943       _SdbpCheckAttribute@16     0058e943 f   sdbapint:attributes.obj
 0007:000e4a48       _SdbpCheckAllAttributes@16 0058ea48 f   sdbapint:attributes.obj
 0007:000e4b09       _SdbpBinarySearchUnique@20 0058eb09 f   sdbapint:index.obj
 0007:000e4b78       _SdbpBinarySearchFirst@20  0058eb78 f   sdbapint:index.obj
 0007:000e4bfa       _SdbpGetFirstIndexedRecord@20 0058ebfa f   sdbapint:index.obj
 0007:000e4ca3       _SdbpGetNextIndexedRecord@12 0058eca3 f   sdbapint:index.obj
 0007:000e4d81       _SdbpPatternMatch@8        0058ed81 f   sdbapint:index.obj
 0007:000e4e1b       _SdbpPatternMatchAnsi@8    0058ee1b f   sdbapint:index.obj
 0007:000e4ea7       _SdbpKeyToAnsiString@12    0058eea7 f   sdbapint:index.obj
 0007:000e4ed1       _SdbpScanIndexes@4         0058eed1 f   sdbapint:index.obj
 0007:000e5008       _SdbpGetIndex@12           0058f008 f   sdbapint:index.obj
 0007:000e504d       _SdbMakeIndexKeyFromString@4 0058f04d f   sdbapint:index.obj
 0007:000e5119       _SdbFindNextStringIndexedTag@8 0058f119 f   sdbapint:index.obj
 0007:000e5145       _SdbpFindNextIndexedWildCardTag@8 0058f145 f   sdbapint:index.obj
 0007:000e5250       _SdbGetIndex@16            0058f250 f   sdbapint:index.obj
 0007:000e52b8       _SdbFindFirstStringIndexedTag@20 0058f2b8 f   sdbapint:index.obj
 0007:000e5326       _SdbpFindFirstIndexedWildCardTag@20 0058f326 f   sdbapint:index.obj
 0007:000e546e       _SdbpFreeUnicodeString@4   0058f46e f   sdbapint:guid.obj
 0007:000e5492       _SdbpGUIDToUnicodeString@8 0058f492 f   sdbapint:guid.obj
 0007:000e551e       _SdbpGetFileVersionInformation@12 0058f51e f   sdbapint:ntver.obj
 0007:000e5611       _SdbpVerQueryValue@16      0058f611 f   sdbapint:ntver.obj
 0007:000e58c6       _CmpFreeAllMemory@0        0058f8c6 f   config:cmdown.obj
 0007:000e5a8e       _CmShutdownSystem@0        0058fa8e f   config:cmdown.obj
 0007:000e5bc4       _DbgkpMarkProcessPeb@4     0058fbc4 f   dbgk:dbgkobj.obj
 0007:000e5c7e       _DbgkCopyProcessDebugPort@8 0058fc7e f   dbgk:dbgkobj.obj
 0007:000e5cf4       _DbgkOpenProcessDebugPort@12 0058fcf4 f   dbgk:dbgkobj.obj
 0007:000e5d6a       _NtCreateDebugObject@16    0058fd6a f   dbgk:dbgkobj.obj
 0007:000e5e86       _DbgkpFreeDebugEvent@4     0058fe86 f   dbgk:dbgkobj.obj
 0007:000e5ed0       _DbgkpQueueMessage@20      0058fed0 f   dbgk:dbgkobj.obj
 0007:000e6084       _DbgkpPostFakeThreadMessages@20 00590084 f   dbgk:dbgkobj.obj
 0007:000e62d6       _DbgkpPostFakeModuleMessages@12 005902d6 f   dbgk:dbgkobj.obj
 0007:000e646e       _DbgkpPostFakeProcessCreateMessages@12 0059046e f   dbgk:dbgkobj.obj
 0007:000e64e2       _DbgkpOpenHandles@12       005904e2 f   dbgk:dbgkobj.obj
 0007:000e65ac       _DbgkpConvertKernelToUserStateChange@8 005905ac f   dbgk:dbgkobj.obj
 0007:000e667c       _NtWaitForDebugEvent@16    0059067c f   dbgk:dbgkobj.obj
 0007:000e6912       _NtSetInformationDebugObject@20 00590912 f   dbgk:dbgkobj.obj
 0007:000e6a32       _DbgkpWakeTarget@4         00590a32 f   dbgk:dbgkobj.obj
 0007:000e6a94       _DbgkpCloseObject@20       00590a94 f   dbgk:dbgkobj.obj
 0007:000e6b6e       _DbgkClearProcessDebugObject@8 00590b6e f   dbgk:dbgkobj.obj
 0007:000e6c48       _DbgkpSetProcessDebugObject@16 00590c48 f   dbgk:dbgkobj.obj
 0007:000e6e98       _NtDebugActiveProcess@8    00590e98 f   dbgk:dbgkobj.obj
 0007:000e6f9c       _NtRemoveProcessDebug@8    00590f9c f   dbgk:dbgkobj.obj
 0007:000e701a       _NtDebugContinue@12        0059101a f   dbgk:dbgkobj.obj
 0007:000e7160       _DbgkpSendApiMessage@8     00591160 f   dbgk:dbgkport.obj
 0007:000e71c6       _DbgkpSendApiMessageLpc@12 005911c6 f   dbgk:dbgkport.obj
 0007:000e7246       _DbgkForwardException@12   00591246 f   dbgk:dbgkport.obj
 0007:000e72fc       _DbgkpSuspendProcess@0     005912fc f   dbgk:dbgkproc.obj
 0007:000e731e       _DbgkpResumeProcess@0      0059131e f   dbgk:dbgkproc.obj
 0007:000e7328       _DbgkpSectionToFileHandle@4 00591328 f   dbgk:dbgkproc.obj
 0007:000e73ea       _DbgkCreateThread@8        005913ea f   dbgk:dbgkproc.obj
 0007:000e779e       _DbgkExitThread@4          0059179e f   dbgk:dbgkproc.obj
 0007:000e7816       _DbgkExitProcess@4         00591816 f   dbgk:dbgkproc.obj
 0007:000e788a       _DbgkMapViewOfSection@16   0059188a f   dbgk:dbgkproc.obj
 0007:000e7974       _DbgkUnMapViewOfSection@4  00591974 f   dbgk:dbgkproc.obj
 0007:000e79da       _NtDelayExecution@8        005919da f   ex:delay.obj
 0007:000e7a6c       _ExInitializeNBQueueHead@4 00591a6c f   ex:nbqueue.obj
 0007:000e7ac4       _NtLoadDriver@4            00591ac4 f   iomgr:loadunld.obj
 0007:000e7c4a       _IopUnloadDriver@8         00591c4a f   iomgr:loadunld.obj
 0007:000e7ee8       _NtUnloadDriver@4          00591ee8 f   iomgr:loadunld.obj
 0007:000e7efe       _PerfInfoProfileInit@0     00591efe f   perf:perfsup.obj
 0007:000e7f50       _PerfInfoProfileUninit@0   00591f50 f   perf:perfsup.obj
 0007:000e7f6e       _PerfInfoStartLog@8        00591f6e f   perf:perfsup.obj
 0007:000e80f6       _PerfInfoStopLog@0         005920f6 f   perf:perfsup.obj
 0007:000e8172       _RawShutdown@8             00592172 f   raw:RawInit.obj
 0007:000e81d0       _RawUnload@4               005921d0 f   raw:RawInit.obj
 0007:000e81fa       _RawDispatch@8             005921fa f   raw:RawDisp.obj
 0007:000e8372       _RawMountVolume@4          00592372 f   raw:FsCtrl.obj
 0007:000e8492       _RawUserFsCtrl@8           00592492 f   raw:FsCtrl.obj
 0007:000e8594       _RawFileSystemControl@12   00592594 f   raw:FsCtrl.obj
 0007:000e85e8       _RawReadWriteDeviceControl@12 005925e8 f   raw:ReadWrit.obj
 0007:000e8652       _RawCleanup@12             00592652 f   raw:Cleanup.obj
 0007:000e86a8       _RawQueryFsVolumeInfo@12   005926a8 f   raw:VolInfo.obj
 0007:000e86de       _RawQueryFsSizeInfo@12     005926de f   raw:VolInfo.obj
 0007:000e8894       _RawQueryFsDeviceInfo@12   00592894 f   raw:VolInfo.obj
 0007:000e88d4       _RawQueryFsAttributeInfo@12 005928d4 f   raw:VolInfo.obj
 0007:000e8914       _RawQueryVolumeInformation@12 00592914 f   raw:VolInfo.obj
 0007:000e89a0       _RawCreate@12              005929a0 f   raw:Create.obj
 0007:000e8ad0       _RawClose@12               00592ad0 f   raw:Close.obj
 0007:000e8b36       _RawQueryInformation@12    00592b36 f   raw:FileInfo.obj
 0007:000e8b94       _RawSetInformation@12      00592b94 f   raw:FileInfo.obj
 0007:000e8bee       _RawInitializeVcb@12       00592bee f   raw:StrucSup.obj
 0007:000e8c50       ??_C@_17OMAOINJK@?$AAS?$AAA?$AAM?$AA?$AA@ 00592c50     config:cmdat.obj
 0007:000e8c58       ??_C@_1BM@ODCHAJMJ@?$AAU?$AAS?$AAE?$AAR?$AA?2?$AA?4?$AAD?$AAE?$AAF?$AAA?$AAU?$AAL?$AAT?$AA?$AA@ 00592c58     config:cmdat.obj
 0007:000e8c74       ??_C@_1BA@KDAEEGIF@?$AAD?$AAE?$AAF?$AAA?$AAU?$AAL?$AAT?$AA?$AA@ 00592c74     config:cmdat.obj
 0007:000e8c84       ??_C@_1BC@JDKNNDON@?$AAS?$AAO?$AAF?$AAT?$AAW?$AAA?$AAR?$AAE?$AA?$AA@ 00592c84     config:cmdat.obj
 0007:000e8c98       ??_C@_1BC@IBECJAAI@?$AAS?$AAE?$AAC?$AAU?$AAR?$AAI?$AAT?$AAY?$AA?$AA@ 00592c98     config:cmdat.obj
 0007:000e8cac       ??_C@_1BC@NKJFCMAG@?$AAM?$AAA?$AAC?$AAH?$AAI?$AAN?$AAE?$AA?2?$AA?$AA@ 00592cac     config:cmdat.obj
 0007:000e8cc0       ??_C@_1BC@BDFNFELL@?$AAH?$AAA?$AAR?$AAD?$AAW?$AAA?$AAR?$AAE?$AA?$AA@ 00592cc0     config:cmdat.obj
 0007:000e8cd8       _CmTypeString              00592cd8     config:cmdat.obj
 0007:000e8d80       _nullclass                 00592d80     config:cmdat.obj
 0007:000e8d88       _CmpRegistryRootString     00592d88     config:cmdat.obj
 0007:000e8d8c       _CmpRegistryMachineString  00592d8c     config:cmdat.obj
 0007:000e8d90       _CmpRegistryMachineHardwareString 00592d90     config:cmdat.obj
 0007:000e8d94       _CmpRegistryMachineHardwareDescriptionString 00592d94     config:cmdat.obj
 0007:000e8d98       _CmpRegistryMachineHardwareDescriptionSystemString 00592d98     config:cmdat.obj
 0007:000e8d9c       _CmpRegistryMachineHardwareDeviceMapString 00592d9c     config:cmdat.obj
 0007:000e8da0       _CmpRegistryMachineHardwareResourceMapString 00592da0     config:cmdat.obj
 0007:000e8da4       _CmpRegistryMachineHardwareOwnerMapString 00592da4     config:cmdat.obj
 0007:000e8da8       _CmpRegistryMachineSystemString 00592da8     config:cmdat.obj
 0007:000e8dac       _CmpRegistryMachineSystemCurrentControlSetString 00592dac     config:cmdat.obj
 0007:000e8db0       _CmpRegistryMachineSystemCurrentControlSetEnumString 00592db0     config:cmdat.obj
 0007:000e8db4       _CmpRegistryMachineSystemCurrentControlSetEnumRootString 00592db4     config:cmdat.obj
 0007:000e8db8       _CmpRegistryMachineSystemCurrentControlSetServicesString 00592db8     config:cmdat.obj
 0007:000e8dbc       _CmpRegistryMachineSystemCurrentControlSetHardwareProfilesCurrentString 00592dbc     config:cmdat.obj
 0007:000e8dc0       _CmpRegistryMachineSystemCurrentControlSetControlClassString 00592dc0     config:cmdat.obj
 0007:000e8dc4       _CmpRegistryMachineSystemCurrentControlSetControlSafeBootString 00592dc4     config:cmdat.obj
 0007:000e8dc8       _CmpRegistryMachineSystemCurrentControlSetControlSessionManagerMemoryManagementString 00592dc8     config:cmdat.obj
 0007:000e8dcc       _CmpRegistryMachineSystemCurrentControlSetControlBootLogString 00592dcc     config:cmdat.obj
 0007:000e8dd0       _CmpRegistryMachineSystemCurrentControlSetServicesEventLogString 00592dd0     config:cmdat.obj
 0007:000e8dd4       _CmpRegistryUserString     00592dd4     config:cmdat.obj
 0007:000e8dd8       _CmpRegistrySystemCloneString 00592dd8     config:cmdat.obj
 0007:000e8ddc       _CmpRegistrySystemFileNameString 00592ddc     config:cmdat.obj
 0007:000e8de0       _CmpRegistryPerflibString  00592de0     config:cmdat.obj
 0007:000e8de4       _CmpProcessorControl       00592de4     config:cmdat.obj
 0007:000e8de8       _CmpControlSessionManager  00592de8     config:cmdat.obj
 0007:000e8dec       _CmpSymbolicLinkValueName  00592dec     config:cmdat.obj
 0007:000e8df0       _CmpRegistryMachineSystemCurrentControlSetControlBiosInfoString 00592df0     config:cmdat.obj
 0007:000e8df8       ??_C@_1HI@PABICKOJ@?$AA?2?$AAR?$AAE?$AAG?$AAI?$AAS?$AAT?$AAR?$AAY?$AA?2?$AAM?$AAA?$AAC?$AAH?$AAI?$AAN?$AAE?$AA?2?$AAS?$AAY@ 00592df8     config:cmdat.obj
 0007:000e8e70       ??_C@_1CE@CFOIKICP@?$AAS?$AAy?$AAm?$AAb?$AAo?$AAl?$AAi?$AAc?$AAL?$AAi?$AAn?$AAk?$AAV?$AAa?$AAl?$AAu?$AAe?$AA?$AA@ 00592e70     config:cmdat.obj
 0007:000e8e94       ??_C@_1DA@DDOGAFBM@?$AAC?$AAo?$AAn?$AAt?$AAr?$AAo?$AAl?$AA?2?$AAS?$AAe?$AAs?$AAs?$AAi?$AAo?$AAn?$AA?5?$AAM?$AAa?$AAn?$AAa@ 00592e94     config:cmdat.obj
 0007:000e8ec4       ??_C@_1CC@PLGBKPMK@?$AAP?$AAr?$AAo?$AAc?$AAe?$AAs?$AAs?$AAo?$AAr?$AAC?$AAo?$AAn?$AAt?$AAr?$AAo?$AAl?$AA?$AA@ 00592ec4     config:cmdat.obj
 0007:000e8ee8       ??_C@_1IO@GJAPCHJE@?$AA?2?$AAR?$AAE?$AAG?$AAI?$AAS?$AAT?$AAR?$AAY?$AA?2?$AAM?$AAA?$AAC?$AAH?$AAI?$AAN?$AAE?$AA?2?$AAS?$AAO@ 00592ee8     config:cmdat.obj
 0007:000e8f78       ??_C@_1O@GBFINDKL@?$AAS?$AAY?$AAS?$AAT?$AAE?$AAM?$AA?$AA@ 00592f78     config:cmdat.obj
 0007:000e8f88       ??_C@_1DA@PDIAJFPN@?$AA?2?$AAR?$AAE?$AAG?$AAI?$AAS?$AAT?$AAR?$AAY?$AA?2?$AAM?$AAA?$AAC?$AAH?$AAI?$AAN?$AAE?$AA?2?$AAC?$AAL@ 00592f88     config:cmdat.obj
 0007:000e8fb8       ??_C@_1BO@PBBLJICK@?$AA?2?$AAR?$AAE?$AAG?$AAI?$AAS?$AAT?$AAR?$AAY?$AA?2?$AAU?$AAS?$AAE?$AAR?$AA?$AA@ 00592fb8     config:cmdat.obj
 0007:000e8fd8       ??_C@_1HK@IDPKCGLJ@?$AA?2?$AAR?$AAE?$AAG?$AAI?$AAS?$AAT?$AAR?$AAY?$AA?2?$AAM?$AAA?$AAC?$AAH?$AAI?$AAN?$AAE?$AA?2?$AAS?$AAY@ 00592fd8     config:cmdat.obj
 0007:000e9058       ??_C@_1HG@FIOMGKDP@?$AA?2?$AAR?$AAE?$AAG?$AAI?$AAS?$AAT?$AAR?$AAY?$AA?2?$AAM?$AAA?$AAC?$AAH?$AAI?$AAN?$AAE?$AA?2?$AAS?$AAY@ 00593058     config:cmdat.obj
 0007:000e90d0       ??_C@_1KK@OBGIGMAN@?$AA?2?$AAR?$AAE?$AAG?$AAI?$AAS?$AAT?$AAR?$AAY?$AA?2?$AAM?$AAA?$AAC?$AAH?$AAI?$AAN?$AAE?$AA?2?$AAS?$AAY@ 005930d0     config:cmdat.obj
 0007:000e9180       ??_C@_1HI@JLNEJCDM@?$AA?2?$AAR?$AAE?$AAG?$AAI?$AAS?$AAT?$AAR?$AAY?$AA?2?$AAM?$AAA?$AAC?$AAH?$AAI?$AAN?$AAE?$AA?2?$AAS?$AAY@ 00593180     config:cmdat.obj
 0007:000e91f8       ??_C@_1HC@HJNLJPFC@?$AA?2?$AAR?$AAE?$AAG?$AAI?$AAS?$AAT?$AAR?$AAY?$AA?2?$AAM?$AAA?$AAC?$AAH?$AAI?$AAN?$AAE?$AA?2?$AAS?$AAY@ 005931f8     config:cmdat.obj
 0007:000e9270       ??_C@_1IK@HBJLIGFJ@?$AA?2?$AAR?$AAE?$AAG?$AAI?$AAS?$AAT?$AAR?$AAY?$AA?2?$AAM?$AAA?$AAC?$AAH?$AAI?$AAN?$AAE?$AA?2?$AAS?$AAY@ 00593270     config:cmdat.obj
 0007:000e9300       ??_C@_1GI@KDCMPEIG@?$AA?2?$AAR?$AAE?$AAG?$AAI?$AAS?$AAT?$AAR?$AAY?$AA?2?$AAM?$AAA?$AAC?$AAH?$AAI?$AAN?$AAE?$AA?2?$AAS?$AAY@ 00593300     config:cmdat.obj
 0007:000e9368       ??_C@_1GK@GHCECGGJ@?$AA?2?$AAR?$AAE?$AAG?$AAI?$AAS?$AAT?$AAR?$AAY?$AA?2?$AAM?$AAA?$AAC?$AAH?$AAI?$AAN?$AAE?$AA?2?$AAS?$AAY@ 00593368     config:cmdat.obj
 0007:000e93d8       ??_C@_1GA@LDINLKCH@?$AA?2?$AAR?$AAE?$AAG?$AAI?$AAS?$AAT?$AAR?$AAY?$AA?2?$AAM?$AAA?$AAC?$AAH?$AAI?$AAN?$AAE?$AA?2?$AAS?$AAY@ 005933d8     config:cmdat.obj
 0007:000e9438       ??_C@_1FG@FGBKPELI@?$AA?2?$AAR?$AAE?$AAG?$AAI?$AAS?$AAT?$AAR?$AAY?$AA?2?$AAM?$AAA?$AAC?$AAH?$AAI?$AAN?$AAE?$AA?2?$AAS?$AAY@ 00593438     config:cmdat.obj
 0007:000e9490       ??_C@_1DC@GKOJGBFO@?$AA?2?$AAR?$AAE?$AAG?$AAI?$AAS?$AAT?$AAR?$AAY?$AA?2?$AAM?$AAA?$AAC?$AAH?$AAI?$AAN?$AAE?$AA?2?$AAS?$AAY@ 00593490     config:cmdat.obj
 0007:000e94c8       ??_C@_1EI@GLMAMPDA@?$AA?2?$AAR?$AAE?$AAG?$AAI?$AAS?$AAT?$AAR?$AAY?$AA?2?$AAM?$AAA?$AAC?$AAH?$AAI?$AAN?$AAE?$AA?2?$AAH?$AAA@ 005934c8     config:cmdat.obj
 0007:000e9510       ??_C@_1EO@IGPCEENG@?$AA?2?$AAR?$AAE?$AAG?$AAI?$AAS?$AAT?$AAR?$AAY?$AA?2?$AAM?$AAA?$AAC?$AAH?$AAI?$AAN?$AAE?$AA?2?$AAH?$AAA@ 00593510     config:cmdat.obj
 0007:000e9560       ??_C@_1EK@KCBLDELJ@?$AA?2?$AAR?$AAE?$AAG?$AAI?$AAS?$AAT?$AAR?$AAY?$AA?2?$AAM?$AAA?$AAC?$AAH?$AAI?$AAN?$AAE?$AA?2?$AAH?$AAA@ 00593560     config:cmdat.obj
 0007:000e95b0       ??_C@_1FM@PPGHCFAK@?$AA?2?$AAR?$AAE?$AAG?$AAI?$AAS?$AAT?$AAR?$AAY?$AA?2?$AAM?$AAA?$AAC?$AAH?$AAI?$AAN?$AAE?$AA?2?$AAH?$AAA@ 005935b0     config:cmdat.obj
 0007:000e9610       ??_C@_1EO@DMECHFLJ@?$AA?2?$AAR?$AAE?$AAG?$AAI?$AAS?$AAT?$AAR?$AAY?$AA?2?$AAM?$AAA?$AAC?$AAH?$AAI?$AAN?$AAE?$AA?2?$AAH?$AAA@ 00593610     config:cmdat.obj
 0007:000e9660       ??_C@_1DG@ODDNOCB@?$AA?2?$AAR?$AAE?$AAG?$AAI?$AAS?$AAT?$AAR?$AAY?$AA?2?$AAM?$AAA?$AAC?$AAH?$AAI?$AAN?$AAE?$AA?2?$AAH?$AAA@ 00593660     config:cmdat.obj
 0007:000e9698       ??_C@_1CE@BGEMHEPM@?$AA?2?$AAR?$AAE?$AAG?$AAI?$AAS?$AAT?$AAR?$AAY?$AA?2?$AAM?$AAA?$AAC?$AAH?$AAI?$AAN?$AAE?$AA?$AA@ 00593698     config:cmdat.obj
 0007:000e96bc       ??_C@_1BE@MOENMHEO@?$AA?2?$AAR?$AAE?$AAG?$AAI?$AAS?$AAT?$AAR?$AAY?$AA?$AA@ 005936bc     config:cmdat.obj
 0007:000e96d0       ??_C@_1CO@LCDGCCNJ@?$AAR?$AAe?$AAa?$AAl?$AAM?$AAo?$AAd?$AAe?$AAP?$AAC?$AAI?$AAE?$AAn?$AAu?$AAm?$AAe?$AAr?$AAa?$AAt?$AAi@ 005936d0     config:cmdat.obj
 0007:000e9700       ??_C@_1DA@JIDFBLKA@?$AAR?$AAe?$AAa?$AAl?$AAM?$AAo?$AAd?$AAe?$AAI?$AAr?$AAq?$AAR?$AAo?$AAu?$AAt?$AAi?$AAn?$AAg?$AAT?$AAa@ 00593700     config:cmdat.obj
 0007:000e9730       ??_C@_1CG@ONFLCPHN@?$AAD?$AAo?$AAc?$AAk?$AAi?$AAn?$AAg?$AAI?$AAn?$AAf?$AAo?$AAr?$AAm?$AAa?$AAt?$AAi?$AAo?$AAn?$AA?$AA@ 00593730     config:cmdat.obj
 0007:000e9758       ??_C@_1BK@GDHDNALB@?$AAS?$AAy?$AAs?$AAt?$AAe?$AAm?$AAM?$AAe?$AAm?$AAo?$AAr?$AAy?$AA?$AA@ 00593758     config:cmdat.obj
 0007:000e9774       ??_C@_1CE@HPCJDPFD@?$AAN?$AAe?$AAt?$AAw?$AAo?$AAr?$AAk?$AAP?$AAe?$AAr?$AAi?$AAp?$AAh?$AAe?$AAr?$AAa?$AAl?$AA?$AA@ 00593774     config:cmdat.obj
 0007:000e9798       ??_C@_1BO@IIKHNNCH@?$AAL?$AAi?$AAn?$AAe?$AAP?$AAe?$AAr?$AAi?$AAp?$AAh?$AAe?$AAr?$AAa?$AAl?$AA?$AA@ 00593798     config:cmdat.obj
 0007:000e97b8       ??_C@_1CA@POLHAEEO@?$AAO?$AAt?$AAh?$AAe?$AAr?$AAP?$AAe?$AAr?$AAi?$AAp?$AAh?$AAe?$AAr?$AAa?$AAl?$AA?$AA@ 005937b8     config:cmdat.obj
 0007:000e97d8       ??_C@_1CG@KJFBDCKC@?$AAT?$AAe?$AAr?$AAm?$AAi?$AAn?$AAa?$AAl?$AAP?$AAe?$AAr?$AAi?$AAp?$AAh?$AAe?$AAr?$AAa?$AAl?$AA?$AA@ 005937d8     config:cmdat.obj
 0007:000e9800       ??_C@_1CG@HOFCEHKK@?$AAK?$AAe?$AAy?$AAb?$AAo?$AAa?$AAr?$AAd?$AAP?$AAe?$AAr?$AAi?$AAp?$AAh?$AAe?$AAr?$AAa?$AAl?$AA?$AA@ 00593800     config:cmdat.obj
 0007:000e9828       ??_C@_1CE@NBHEIKJD@?$AAP?$AAo?$AAi?$AAn?$AAt?$AAe?$AAr?$AAP?$AAe?$AAr?$AAi?$AAp?$AAh?$AAe?$AAr?$AAa?$AAl?$AA?$AA@ 00593828     config:cmdat.obj
 0007:000e984c       ??_C@_1CE@LNCKAJCP@?$AAP?$AAr?$AAi?$AAn?$AAt?$AAe?$AAr?$AAP?$AAe?$AAr?$AAi?$AAp?$AAh?$AAe?$AAr?$AAa?$AAl?$AA?$AA@ 0059384c     config:cmdat.obj
 0007:000e9870       ??_C@_1CE@KAGBAIJN@?$AAM?$AAo?$AAn?$AAi?$AAt?$AAo?$AAr?$AAP?$AAe?$AAr?$AAi?$AAp?$AAh?$AAe?$AAr?$AAa?$AAl?$AA?$AA@ 00593870     config:cmdat.obj
 0007:000e9894       ??_C@_1CA@FNEPGGCI@?$AAM?$AAo?$AAd?$AAe?$AAm?$AAP?$AAe?$AAr?$AAi?$AAp?$AAh?$AAe?$AAr?$AAa?$AAl?$AA?$AA@ 00593894     config:cmdat.obj
 0007:000e98b4       ??_C@_1BO@NDHLMLJ@?$AAT?$AAa?$AAp?$AAe?$AAP?$AAe?$AAr?$AAi?$AAp?$AAh?$AAe?$AAr?$AAa?$AAl?$AA?$AA@ 005938b4     config:cmdat.obj
 0007:000e98d4       ??_C@_1CK@BMIHPOLL@?$AAF?$AAl?$AAo?$AAp?$AAp?$AAy?$AAD?$AAi?$AAs?$AAk?$AAP?$AAe?$AAr?$AAi?$AAp?$AAh?$AAe?$AAr?$AAa?$AAl@ 005938d4     config:cmdat.obj
 0007:000e9900       ??_C@_1BO@OABDOLEF@?$AAD?$AAi?$AAs?$AAk?$AAP?$AAe?$AAr?$AAi?$AAp?$AAh?$AAe?$AAr?$AAa?$AAl?$AA?$AA@ 00593900     config:cmdat.obj
 0007:000e9920       ??_C@_1CA@MPJPFNOP@?$AAO?$AAt?$AAh?$AAe?$AAr?$AAC?$AAo?$AAn?$AAt?$AAr?$AAo?$AAl?$AAl?$AAe?$AAr?$AA?$AA@ 00593920     config:cmdat.obj
 0007:000e9940       ??_C@_1CA@GICEICIJ@?$AAA?$AAu?$AAd?$AAi?$AAo?$AAC?$AAo?$AAn?$AAt?$AAr?$AAo?$AAl?$AAl?$AAe?$AAr?$AA?$AA@ 00593940     config:cmdat.obj
 0007:000e9960       ??_C@_1CG@EPHKBOAL@?$AAK?$AAe?$AAy?$AAb?$AAo?$AAa?$AAr?$AAd?$AAC?$AAo?$AAn?$AAt?$AAr?$AAo?$AAl?$AAl?$AAe?$AAr?$AA?$AA@ 00593960     config:cmdat.obj
 0007:000e9988       ??_C@_1CE@OAFMNDDC@?$AAP?$AAo?$AAi?$AAn?$AAt?$AAe?$AAr?$AAC?$AAo?$AAn?$AAt?$AAr?$AAo?$AAl?$AAl?$AAe?$AAr?$AA?$AA@ 00593988     config:cmdat.obj
 0007:000e99ac       ??_C@_1CG@INBLODGN@?$AAP?$AAa?$AAr?$AAa?$AAl?$AAl?$AAe?$AAl?$AAC?$AAo?$AAn?$AAt?$AAr?$AAo?$AAl?$AAl?$AAe?$AAr?$AA?$AA@ 005939ac     config:cmdat.obj
 0007:000e99d4       ??_C@_1CE@FDGHAKKG@?$AAD?$AAi?$AAs?$AAp?$AAl?$AAa?$AAy?$AAC?$AAo?$AAn?$AAt?$AAr?$AAo?$AAl?$AAl?$AAe?$AAr?$AA?$AA@ 005939d4     config:cmdat.obj
 0007:000e99f8       ??_C@_1CE@EOABGGPC@?$AAN?$AAe?$AAt?$AAw?$AAo?$AAr?$AAk?$AAC?$AAo?$AAn?$AAt?$AAr?$AAo?$AAl?$AAl?$AAe?$AAr?$AA?$AA@ 005939f8     config:cmdat.obj
 0007:000e9a1c       ??_C@_1CC@BHFHDMKO@?$AAS?$AAe?$AAr?$AAi?$AAa?$AAl?$AAC?$AAo?$AAn?$AAt?$AAr?$AAo?$AAl?$AAl?$AAe?$AAr?$AA?$AA@ 00593a1c     config:cmdat.obj
 0007:000e9a40       ??_C@_1BO@LHOKFBHH@?$AAW?$AAo?$AAr?$AAm?$AAC?$AAo?$AAn?$AAt?$AAr?$AAo?$AAl?$AAl?$AAe?$AAr?$AA?$AA@ 00593a40     config:cmdat.obj
 0007:000e9a60       ??_C@_1CA@NCNEDNBG@?$AAC?$AAd?$AAR?$AAo?$AAm?$AAC?$AAo?$AAn?$AAt?$AAr?$AAo?$AAl?$AAl?$AAe?$AAr?$AA?$AA@ 00593a60     config:cmdat.obj
 0007:000e9a80       ??_C@_1BO@DMBPOFBI@?$AAT?$AAa?$AAp?$AAe?$AAC?$AAo?$AAn?$AAt?$AAr?$AAo?$AAl?$AAl?$AAe?$AAr?$AA?$AA@ 00593a80     config:cmdat.obj
 0007:000e9aa0       ??_C@_1BO@NBDLLCOE@?$AAD?$AAi?$AAs?$AAk?$AAC?$AAo?$AAn?$AAt?$AAr?$AAo?$AAl?$AAl?$AAe?$AAr?$AA?$AA@ 00593aa0     config:cmdat.obj
 0007:000e9ac0       ??_C@_1CK@BONJKOHP@?$AAM?$AAu?$AAl?$AAt?$AAi?$AAf?$AAu?$AAn?$AAc?$AAt?$AAi?$AAo?$AAn?$AAA?$AAd?$AAa?$AAp?$AAt?$AAe?$AAr@ 00593ac0     config:cmdat.obj
 0007:000e9aec       ??_C@_1BG@LOBCDFDG@?$AAD?$AAt?$AAi?$AAA?$AAd?$AAa?$AAp?$AAt?$AAe?$AAr?$AA?$AA@ 00593aec     config:cmdat.obj
 0007:000e9b04       ??_C@_1BI@LIFBGIEG@?$AAS?$AAc?$AAs?$AAi?$AAA?$AAd?$AAa?$AAp?$AAt?$AAe?$AAr?$AA?$AA@ 00593b04     config:cmdat.obj
 0007:000e9b1c       ??_C@_1BE@IHHIDKBI@?$AAT?$AAc?$AAA?$AAd?$AAa?$AAp?$AAt?$AAe?$AAr?$AA?$AA@ 00593b1c     config:cmdat.obj
 0007:000e9b30       ??_C@_1BI@PHEFAEKH@?$AAE?$AAi?$AAs?$AAa?$AAA?$AAd?$AAa?$AAp?$AAt?$AAe?$AAr?$AA?$AA@ 00593b30     config:cmdat.obj
 0007:000e9b48       ??_C@_1BO@DOJNKDOC@?$AAS?$AAe?$AAc?$AAo?$AAn?$AAd?$AAa?$AAr?$AAy?$AAC?$AAa?$AAc?$AAh?$AAe?$AA?$AA@ 00593b48     config:cmdat.obj
 0007:000e9b68       ??_C@_1CA@FLKJGKIC@?$AAS?$AAe?$AAc?$AAo?$AAn?$AAd?$AAa?$AAr?$AAy?$AAD?$AAC?$AAa?$AAc?$AAh?$AAe?$AA?$AA@ 00593b68     config:cmdat.obj
 0007:000e9b88       ??_C@_1CA@OMFDBKNJ@?$AAS?$AAe?$AAc?$AAo?$AAn?$AAd?$AAa?$AAr?$AAy?$AAI?$AAC?$AAa?$AAc?$AAh?$AAe?$AA?$AA@ 00593b88     config:cmdat.obj
 0007:000e9ba8       ??_C@_1BM@NFLFDCDM@?$AAP?$AAr?$AAi?$AAm?$AAa?$AAr?$AAy?$AAD?$AAC?$AAa?$AAc?$AAh?$AAe?$AA?$AA@ 00593ba8     config:cmdat.obj
 0007:000e9bc4       ??_C@_1BM@GCEPECGH@?$AAP?$AAr?$AAi?$AAm?$AAa?$AAr?$AAy?$AAI?$AAC?$AAa?$AAc?$AAh?$AAe?$AA?$AA@ 00593bc4     config:cmdat.obj
 0007:000e9be0       ??_C@_1CO@KLKKJNCD@?$AAF?$AAl?$AAo?$AAa?$AAt?$AAi?$AAn?$AAg?$AAP?$AAo?$AAi?$AAn?$AAt?$AAP?$AAr?$AAo?$AAc?$AAe?$AAs?$AAs@ 00593be0     config:cmdat.obj
 0007:000e9c10       ??_C@_1CC@GHGIBEHL@?$AAC?$AAe?$AAn?$AAt?$AAr?$AAa?$AAl?$AAP?$AAr?$AAo?$AAc?$AAe?$AAs?$AAs?$AAo?$AAr?$AA?$AA@ 00593c10     config:cmdat.obj
 0007:000e9c34       _CmpCacheOnFlag            00593c34     config:cmparse.obj
 0007:000e9c38       _RtlAllocateStringRoutine  00593c38     ex:pool.obj
 0007:000e9c3c       _RtlFreeStringRoutine      00593c3c     ex:pool.obj
 0007:000e9c40       _ExpWorkerApcDisabledMessage 00593c40     ex:worker.obj
 0007:000e9c94       _ExpCurrentProfileUsage    00593c94     ex:profile.obj
 0007:000e9c98       _IopQueryOperationLength   00593c98     iomgr:iodata.obj
 0007:000e9cc4       _IopSetOperationLength     00593cc4     iomgr:iodata.obj
 0007:000e9cf0       _IopQuerySetAlignmentRequirement 00593cf0     iomgr:iodata.obj
 0007:000e9d20       _IopQueryOperationAccess   00593d20     iomgr:iodata.obj
 0007:000e9dc8       _IopSetOperationAccess     00593dc8     iomgr:iodata.obj
 0007:000e9e70       _IopQueryFsOperationLength 00593e70     iomgr:iodata.obj
 0007:000e9e7c       _IopSetFsOperationLength   00593e7c     iomgr:iodata.obj
 0007:000e9e88       _IopQueryFsOperationAccess 00593e88     iomgr:iodata.obj
 0007:000e9eb4       _IopSetFsOperationAccess   00593eb4     iomgr:iodata.obj
 0007:000e9ee0       _IopQuerySetFsAlignmentRequirement 00593ee0     iomgr:iodata.obj
 0007:000e9eec       _IopWstrRaw                00593eec     iomgr:iodata.obj
 0007:000e9ef8       _IopWstrTranslated         00593ef8     iomgr:iodata.obj
 0007:000e9f10       _IopWstrBusRaw             00593f10     iomgr:iodata.obj
 0007:000e9f24       _IopWstrBusTranslated      00593f24     iomgr:iodata.obj
 0007:000e9f44       _IopWstrOtherDrivers       00593f44     iomgr:iodata.obj
 0007:000e9f60       _IopWstrAssignedResources  00593f60     iomgr:iodata.obj
 0007:000e9f90       _IopWstrRequestedResources 00593f90     iomgr:iodata.obj
 0007:000e9fc4       _IopWstrSystemResources    00593fc4     iomgr:iodata.obj
 0007:000e9ff4       _IopWstrReservedResources  00593ff4     iomgr:iodata.obj
 0007:000ea018       _IopWstrAssignmentOrdering 00594018     iomgr:iodata.obj
 0007:000ea040       _IopWstrBusValues          00594040     iomgr:iodata.obj
 0007:000ea054       _IopCacheHitIncrement      00594054     iomgr:read.obj
 0007:000ea058       _IopFileMapping            00594058     iomgr:ioinit.obj
 0007:000ea068       _NlsLeadByteInfo           00594068     ntosrtl:nlsxlat.obj
 0007:000ea06c       _NlsOemLeadByteInfo        0059406c     ntosrtl:nlsxlat.obj
 0007:000ea070       _RtlBaseAceType            00594070     ntosrtl:sertl.obj
 0007:000ea07c       _RtlIsSystemAceType        0059407c     ntosrtl:sertl.obj
 0007:000ea088       _RtlpIntegerChars          00594088     ntosrtl:cnvint.obj
 0007:000ea098       _RtlpIntegerWChars         00594098     ntosrtl:cnvint.obj
 0007:000ea0b8       _RtlpRegistryQueryInitialBuffersize 005940b8     ntosrtl:regutil.obj
 0007:000ea0c0       _RtlpRegistryPaths         005940c0     ntosrtl:rtldata.obj
 0007:000ea0d8       _szBias                    005940d8     ntosrtl:rtldata.obj
 0007:000ea0e4       _szStandardName            005940e4     ntosrtl:rtldata.obj
 0007:000ea100       _szStandardBias            00594100     ntosrtl:rtldata.obj
 0007:000ea11c       _szStandardStart           0059411c     ntosrtl:rtldata.obj
 0007:000ea138       _szDaylightName            00594138     ntosrtl:rtldata.obj
 0007:000ea154       _szDaylightBias            00594154     ntosrtl:rtldata.obj
 0007:000ea170       _szDaylightStart           00594170     ntosrtl:rtldata.obj
 0007:000ea190       _GuidFormat                00594190     ntosrtl:rtldata.obj
 0007:000ea1f8       ??_C@_1DA@PDHFOJA@?$AA?2?$AAR?$AAe?$AAg?$AAi?$AAs?$AAt?$AAr?$AAy?$AA?2?$AAU?$AAs?$AAe?$AAr?$AA?2?$AA?4?$AAD?$AAe?$AAf?$AAa@ 005941f8     ntosrtl:rtldata.obj
 0007:000ea228       ??_C@_1EK@KPCANCBO@?$AA?2?$AAR?$AAe?$AAg?$AAi?$AAs?$AAt?$AAr?$AAy?$AA?2?$AAM?$AAa?$AAc?$AAh?$AAi?$AAn?$AAe?$AA?2?$AAH?$AAa@ 00594228     ntosrtl:rtldata.obj
 0007:000ea278       ??_C@_1HO@PKFMCJEM@?$AA?2?$AAR?$AAe?$AAg?$AAi?$AAs?$AAt?$AAr?$AAy?$AA?2?$AAM?$AAa?$AAc?$AAh?$AAi?$AAn?$AAe?$AA?2?$AAS?$AAo@ 00594278     ntosrtl:rtldata.obj
 0007:000ea2f8       ??_C@_1GG@KMAKALDL@?$AA?2?$AAR?$AAe?$AAg?$AAi?$AAs?$AAt?$AAr?$AAy?$AA?2?$AAM?$AAa?$AAc?$AAh?$AAi?$AAn?$AAe?$AA?2?$AAS?$AAy@ 005942f8     ntosrtl:rtldata.obj
 0007:000ea360       ??_C@_1GI@HGIHOLK@?$AA?2?$AAR?$AAe?$AAg?$AAi?$AAs?$AAt?$AAr?$AAy?$AA?2?$AAM?$AAa?$AAc?$AAh?$AAi?$AAn?$AAe?$AA?2?$AAS?$AAy@ 00594360     ntosrtl:rtldata.obj
 0007:000ea3c8       _SepFilterPrivilegesLong   005943c8     ntosse:seaudit.obj
 0007:000ea3e8       _SepFilterPrivilegesShort  005943e8     ntosse:seaudit.obj
 0007:000ea400       _SepServicesFilterPrivileges 00594400     ntosse:seaudit.obj
 0007:000ea408       _SeSystemTokenSource       00594408     ntosse:seglobal.obj
 0007:000ea418       _SeSystemAuthenticationId  00594418     ntosse:seglobal.obj
 0007:000ea420       _SeAnonymousAuthenticationId 00594420     ntosse:seglobal.obj
 0007:000ea450       _SeSubsystemName           00594450     ntosse:seglobal.obj
 0007:000ea458       ??_C@_1BC@FCJNIDNL@?$AAS?$AAe?$AAc?$AAu?$AAr?$AAi?$AAt?$AAy?$AA?$AA@ 00594458     ntosse:seglobal.obj
 0007:000ea46c       _SepRmCommandDispatch      0059446c     ntosse:rmmain.obj
 0007:000ea480       _ObpDosDevicesShortNamePrefix 00594480     ob:obinit.obj
 0007:000ea488       _ObpDosDevicesShortNameRoot 00594488     ob:obinit.obj
 0007:000ea490       _ObpDosDevicesShortName    00594490     ob:obinit.obj
 0007:000ea498       _PspPriorityTable          00594498     ps:psquery.obj
 0007:000ea4b4       _PsNtDllPathName           005944b4     ps:psinit.obj
 0007:000ea4bc       _PspFixedQuantums          005944bc     ps:psinit.obj
 0007:000ea4c4       _PspVariableQuantums       005944c4     ps:psinit.obj
 0007:000ea4cc       _PspJobSchedulingClasses   005944cc     ps:psinit.obj
 0007:000ea4d8       ??_C@_1DO@PDFEEOKF@?$AA?2?$AAS?$AAy?$AAs?$AAt?$AAe?$AAm?$AAR?$AAo?$AAo?$AAt?$AA?2?$AAS?$AAy?$AAs?$AAt?$AAe?$AAm?$AA3?$AA2@ 005944d8     ps:psinit.obj
 0007:000ea518       _PspJobInfoLengths         00594518     ps:psjob.obj
 0007:000ea544       _PspJobInfoAlign           00594544     ps:psjob.obj
 0007:000ea570       _WmipGenericMapping        00594570     wmi:secure.obj
 0007:000ea580       _TraceErrorGuid            00594580     wmi:wmidata.obj
 0007:000ea590       _WmiEventLoggerGuid        00594590     wmi:wmidata.obj
 0007:000ea5a0       _GlobalLoggerGuid          005945a0     wmi:wmidata.obj
 0007:000ea5b0       _DesiredAccessForFunction  005945b0     wmi:consumer.obj
 0007:000ea5e0       _WmipGuidList              005945e0     wmi:dataprov.obj
 0007:000ea6e8       _WmipWmiLibInfo            005946e8     wmi:dataprov.obj
 0007:000ea710       _WmipBinaryMofGuid         00594710     wmi:ds.obj
 0007:000ea720       _RegChangeNotificationGuid 00594720     wmi:ds.obj
 0007:000ea794       ??_C@_1BO@FKKKPMOJ@?$AAC?$AAo?$AAm?$AAp?$AAu?$AAt?$AAe?$AA?5?$AAS?$AAe?$AAr?$AAv?$AAe?$AAr?$AA?$AA@ 00594794     ntoswrk:EXSCAN.obj
 0007:000ea7b4       ??_C@_1BO@EICAEGDK@?$AAS?$AAt?$AAo?$AAr?$AAa?$AAg?$AAe?$AA?5?$AAS?$AAe?$AAr?$AAv?$AAe?$AAr?$AA?$AA@ 005947b4     ntoswrk:EXSCAN.obj
 0007:000ea7d4       ??_C@_1CG@PMLDFGPP@?$AAS?$AAe?$AAc?$AAu?$AAr?$AAi?$AAt?$AAy?$AA?5?$AAA?$AAp?$AAp?$AAl?$AAi?$AAa?$AAn?$AAc?$AAe?$AA?$AA@ 005947d4     ntoswrk:EXSCAN.obj
 0007:000ea7fc       ??_C@_1CK@OEJDIJIK@?$AAE?$AAm?$AAb?$AAe?$AAd?$AAd?$AAe?$AAd?$AA?$CI?$AAR?$AAe?$AAs?$AAt?$AAr?$AAi?$AAc?$AAt?$AAe?$AAd?$AA?$CJ@ 005947fc     ntoswrk:EXSCAN.obj
 0007:000ea828       ??_C@_1M@BAHFBOFJ@?$AAB?$AAl?$AAa?$AAd?$AAe?$AA?$AA@ 00594828     ntoswrk:EXSCAN.obj
 0007:000ea834       ??_C@_1BC@EANCBBIH@?$AAP?$AAe?$AAr?$AAs?$AAo?$AAn?$AAa?$AAl?$AA?$AA@ 00594834     ntoswrk:EXSCAN.obj
 0007:000ea848       ??_C@_1BG@CNKBPOLO@?$AAD?$AAa?$AAt?$AAa?$AAC?$AAe?$AAn?$AAt?$AAe?$AAr?$AA?$AA@ 00594848     ntoswrk:EXSCAN.obj
 0007:000ea860       ??_C@_1BG@ECDEFKDD@?$AAE?$AAm?$AAb?$AAe?$AAd?$AAd?$AAe?$AAd?$AAN?$AAT?$AA?$AA@ 00594860     ntoswrk:EXSCAN.obj
 0007:000ea878       ??_C@_1CA@BFNKNOIB@?$AAT?$AAe?$AAr?$AAm?$AAi?$AAn?$AAa?$AAl?$AA?5?$AAS?$AAe?$AAr?$AAv?$AAe?$AAr?$AA?$AA@ 00594878     ntoswrk:EXSCAN.obj
 0007:000ea898       ??_C@_1DG@DFNPOBGK@?$AAS?$AAm?$AAa?$AAl?$AAl?$AA?5?$AAB?$AAu?$AAs?$AAi?$AAn?$AAe?$AAs?$AAs?$AA?$CI?$AAR?$AAe?$AAs?$AAt?$AAr@ 00594898     ntoswrk:EXSCAN.obj
 0007:000ea8d0       ??_C@_1BG@NGPLODIG@?$AAB?$AAa?$AAc?$AAk?$AAO?$AAf?$AAf?$AAi?$AAc?$AAe?$AA?$AA@ 005948d0     ntoswrk:EXSCAN.obj
 0007:000ea8e8       ??_C@_1CI@DPGNCPEG@?$AAC?$AAo?$AAm?$AAm?$AAu?$AAn?$AAi?$AAc?$AAa?$AAt?$AAi?$AAo?$AAn?$AAS?$AAe?$AAr?$AAv?$AAe?$AAr?$AA?$AA@ 005948e8     ntoswrk:EXSCAN.obj
 0007:000ea910       ??_C@_1BG@PCCIFCMK@?$AAE?$AAn?$AAt?$AAe?$AAr?$AAp?$AAr?$AAi?$AAs?$AAe?$AA?$AA@ 00594910     ntoswrk:EXSCAN.obj
 0007:000ea928       ??_C@_1BO@GKCMPHLG@?$AAS?$AAm?$AAa?$AAl?$AAl?$AA?5?$AAB?$AAu?$AAs?$AAi?$AAn?$AAe?$AAs?$AAs?$AA?$AA@ 00594928     ntoswrk:EXSCAN.obj
 0007:000ea948       ??_C@_1CA@DKJDGANH@?$AAC?$AAo?$AAn?$AAc?$AAu?$AAr?$AAr?$AAe?$AAn?$AAt?$AAL?$AAi?$AAm?$AAi?$AAt?$AA?$AA@ 00594948     ntoswrk:EXSCAN.obj
 0007:000ea968       ??_C@_1IM@BMOFCHBC@?$AA?2?$AAR?$AAe?$AAg?$AAi?$AAs?$AAt?$AAr?$AAy?$AA?2?$AAM?$AAa?$AAc?$AAh?$AAi?$AAn?$AAe?$AA?2?$AAS?$AAy@ 00594968     ntoswrk:EXSCAN.obj
 0007:000ea9f4       ??_C@_1BK@HJNBLNLJ@?$AAP?$AAr?$AAo?$AAd?$AAu?$AAc?$AAt?$AAS?$AAu?$AAi?$AAt?$AAe?$AA?$AA@ 005949f4     ntoswrk:EXSCAN.obj
 0007:000eaa10       ??_C@_1M@FFGHOEMJ@?$AAW?$AAi?$AAn?$AAN?$AAT?$AA?$AA@ 00594a10     ntoswrk:EXSCAN.obj
 0007:000eaa1c       ??_C@_1BC@MNKEGIPF@?$AAS?$AAe?$AAr?$AAv?$AAe?$AAr?$AAN?$AAT?$AA?$AA@ 00594a1c     ntoswrk:EXSCAN.obj
 0007:000eaa30       ??_C@_1BC@NCHLLMKP@?$AAL?$AAa?$AAn?$AAm?$AAa?$AAn?$AAN?$AAT?$AA?$AA@ 00594a30     ntoswrk:EXSCAN.obj
 0007:000eaa44       ??_C@_1BI@JPCMFPH@?$AAP?$AAr?$AAo?$AAd?$AAu?$AAc?$AAt?$AAT?$AAy?$AAp?$AAe?$AA?$AA@ 00594a44     ntoswrk:EXSCAN.obj
 0007:000eaa60       ??_C@_1IE@CPEFALAA@?$AA?2?$AAR?$AAe?$AAg?$AAi?$AAs?$AAt?$AAr?$AAy?$AA?2?$AAM?$AAa?$AAc?$AAh?$AAi?$AAn?$AAe?$AA?2?$AAS?$AAy@ 00594a60     ntoswrk:EXSCAN.obj
 0007:000eaae4       ??_C@_1BK@BHIOFGBH@?$AAS?$AAy?$AAs?$AAt?$AAe?$AAm?$AAP?$AAr?$AAe?$AAf?$AAi?$AAx?$AA?$AA@ 00594ae4     ntoswrk:EXSCAN.obj
 0007:000eab00       ??_C@_1BE@MMGHIOAH@?$AAS?$AAe?$AAt?$AAu?$AAp?$AAT?$AAy?$AAp?$AAe?$AA?$AA@ 00594b00     ntoswrk:EXSCAN.obj
 0007:000eab14       ??_C@_1DO@PGOAJPNE@?$AA?2?$AAR?$AAe?$AAg?$AAi?$AAs?$AAt?$AAr?$AAy?$AA?2?$AAM?$AAa?$AAc?$AAh?$AAi?$AAn?$AAe?$AA?2?$AAS?$AAy@ 00594b14     ntoswrk:EXSCAN.obj
 0007:000eab54       _CheckHeapFillPattern      00594b54     ntoswrk:HEAP.obj
 0007:000eab5c       _RtlDecompressBufferProcs  00594b5c     ntoswrk:COMPRESS.obj
 0007:000eab7c       _RtlDecompressFragmentProcs 00594b7c     ntoswrk:COMPRESS.obj
 0007:000eab9c       _RtlDescribeChunkProcs     00594b9c     ntoswrk:COMPRESS.obj
 0007:000eabbc       _RtlReserveChunkProcs      00594bbc     ntoswrk:COMPRESS.obj
 0007:000eabdc       _RtlFatIllegalTable        00594bdc     ntoswrk:GEN8DOT3.obj
 0007:000eabf0       _PopNotifyWork             00594bf0     ntoswrk:PODATA.obj
 0007:000eac50       _PopRegKey                 00594c50     ntoswrk:PODATA.obj
 0007:000eac8c       _PopAcRegName              00594c8c     ntoswrk:PODATA.obj
 0007:000eaca0       _PopDcRegName              00594ca0     ntoswrk:PODATA.obj
 0007:000eacb4       _PopUndockPolicyRegName    00594cb4     ntoswrk:PODATA.obj
 0007:000eacd8       _PopAdminRegName           00594cd8     ntoswrk:PODATA.obj
 0007:000eacf8       _PopHeuristicsRegName      00594cf8     ntoswrk:PODATA.obj
 0007:000ead10       _PopCompositeBatteryName   00594d10     ntoswrk:PODATA.obj
 0007:000ead44       _PopSimulateRegKey         00594d44     ntoswrk:PODATA.obj
 0007:000ead74       _PopSimulateRegName        00594d74     ntoswrk:PODATA.obj
 0007:000ead9c       _PopHiberFileName          00594d9c     ntoswrk:PODATA.obj
 0007:000eadb8       _PopDebugHiberFileName     00594db8     ntoswrk:PODATA.obj
 0007:000eadd4       _PopDumpStackPrefix        00594dd4     ntoswrk:PODATA.obj
 0007:000eade8       _PopApmActiveFlag          00594de8     ntoswrk:PODATA.obj
 0007:000eae64       _PopApmFlag                00594e64     ntoswrk:PODATA.obj
 0007:000eae74       _PopAcProcessorRegName     00594e74     ntoswrk:PODATA.obj
 0007:000eae98       _PopDcProcessorRegName     00594e98     ntoswrk:PODATA.obj
 0007:000eaec0       _PopShutdownPowerOffPolicyRegKey 00594ec0     ntoswrk:PODATA.obj
 0007:000eaf34       _PopShutdownPowerOffPolicyRegName 00594f34     ntoswrk:PODATA.obj
 0007:000eaf68       _PopWorkerTypes            00594f68     ntoswrk:PODATA.obj
 0007:000eaf80       _GUID_CLASS_INPUT          00594f80     ntoswrk:PODATA.obj
 0007:000eaf90       _GUID_DEVICE_THERMAL_ZONE  00594f90     ntoswrk:PODATA.obj
 0007:000eafa0       _GUID_DEVICE_SYS_BUTTON    00594fa0     ntoswrk:PODATA.obj
 0007:000eafb0       _GUID_DEVICE_BATTERY       00594fb0     ntoswrk:PODATA.obj
 0007:000eafc8       _VdmUserCr0MapIn           00594fc8     ntoswrk:VDMNPX.obj
 0007:000eafcc       _VdmUserCr0MapOut          00594fcc     ntoswrk:VDMNPX.obj
 0007:000eafd4       _CmpCyrixID                00594fd4     ntoswrk:INITDAT.obj
 0007:000eafe4       _CmpIntelID                00594fe4     ntoswrk:INITDAT.obj
 0007:000eaff4       _CmpAmdID                  00594ff4     ntoswrk:INITDAT.obj
 0007:000eb004       _CmpTransmetaID            00595004     ntoswrk:INITDAT.obj
 0007:000eb014       _CmpCentaurID              00595014     ntoswrk:INITDAT.obj
 0007:000eb024       _CmpRiseID                 00595024     ntoswrk:INITDAT.obj
 0007:000eb038       _RtlCrc32Table             00595038     ntoswrk:CHECKSUM.obj
 0007:000eb438       _PiSetupDDBPath            00595438     ntoswrk:PPDRVDB.obj
 0007:000eb43c       _PiNormalDDBPath           0059543c     ntoswrk:PPDRVDB.obj
 0007:000eb440       ??_C@_1EC@CMHHICB@?$AA?2?$AAS?$AAy?$AAs?$AAt?$AAe?$AAm?$AAR?$AAo?$AAo?$AAt?$AA?2?$AAA?$AAp?$AAp?$AAP?$AAa?$AAt?$AAc?$AAh@ 00595440     ntoswrk:PPDRVDB.obj
 0007:000eb484       ??_C@_1DE@EGJMLPDE@?$AA?2?$AA$?$AAW?$AAI?$AAN?$AA_?$AAN?$AAT?$AA$?$AA?4?$AA?$HO?$AAB?$AAT?$AA?2?$AAd?$AAr?$AAv?$AAm?$AAa?$AAi@ 00595484     ntoswrk:PPDRVDB.obj
 0007:000eb4c0       OpcodeESPrefix             005954c0 f   ke:instemul.obj
 0007:000eb4cc       OpcodeCSPrefix             005954cc f   ke:instemul.obj
 0007:000eb4d8       OpcodeSSPrefix             005954d8 f   ke:instemul.obj
 0007:000eb4e4       OpcodeDSPrefix             005954e4 f   ke:instemul.obj
 0007:000eb4f0       OpcodeFSPrefix             005954f0 f   ke:instemul.obj
 0007:000eb4fc       OpcodeGSPrefix             005954fc f   ke:instemul.obj
 0007:000eb508       OpcodeOPER32Prefix         00595508 f   ke:instemul.obj
 0007:000eb514       OpcodeADDR32Prefix         00595514 f   ke:instemul.obj
 0007:000eb520       OpcodeLOCKPrefix           00595520 f   ke:instemul.obj
 0007:000eb52c       OpcodeREPNEPrefix          0059552c f   ke:instemul.obj
 0007:000eb538       OpcodeREPPrefix            00595538 f   ke:instemul.obj
 0007:000eb544       _Ki386DispatchOpcode@4     00595544 f   ke:instemul.obj
 0007:000eb5d6       OpcodeInvalid              005955d6 f   ke:instemul.obj
 0007:000eb5d9       OpcodeGenericPrefix        005955d9 f   ke:instemul.obj
 0007:000eb60f       Opcode0F                   0059560f f   ke:instemul.obj
 0007:000eb639       OpcodeINSB                 00595639 f   ke:instemul.obj
 0007:000eb670       OpcodeINSW                 00595670 f   ke:instemul.obj
 0007:000eb6a7       OpcodeOUTSB                005956a7 f   ke:instemul.obj
 0007:000eb6de       OpcodeOUTSW                005956de f   ke:instemul.obj
 0007:000eb715       OpcodeINTnn                00595715 f   ke:instemul.obj
 0007:000eb7c0       OpcodeINTO                 005957c0 f   ke:instemul.obj
 0007:000eb7c3       OpcodeINBimm               005957c3 f   ke:instemul.obj
 0007:000eb7ea       OpcodeINWimm               005957ea f   ke:instemul.obj
 0007:000eb811       OpcodeOUTBimm              00595811 f   ke:instemul.obj
 0007:000eb838       OpcodeOUTWimm              00595838 f   ke:instemul.obj
 0007:000eb85f       OpcodeINB                  0059585f f   ke:instemul.obj
 0007:000eb899       OpcodeINW                  00595899 f   ke:instemul.obj
 0007:000eb8aa       OpcodeOUTB                 005958aa f   ke:instemul.obj
 0007:000eb8e4       OpcodeOUTW                 005958e4 f   ke:instemul.obj
 0007:000eb8f5       OpcodeCLI                  005958f5 f   ke:instemul.obj
 0007:000eb92a       OpcodeSTI                  0059592a f   ke:instemul.obj
 0007:000eb98d       GetVirtualBits             0059598d f   ke:instemul.obj
 0007:000eba80       _Ki386VdmReflectException@4 00595a80 f   ke:instemul.obj
 0007:000ebc84       _Ki386VdmSegmentNotPresent@0 00595c84 f   ke:instemul.obj
 0007:000ebe2c       _VdmDispatchException@28   00595e2c f   ke:instemul.obj
 0007:000ebe5a       PushInt                    00595e5a f   ke:instemul.obj
 0007:000ebfb1       CsToLinear                 00595fb1 f   ke:instemul.obj
 0007:000ec012       CheckEip                   00596012 f   ke:instemul.obj
 0007:000ec035       SsToLinear                 00596035 f   ke:instemul.obj
 0007:000ec09a       CheckEsp                   0059609a f   ke:instemul.obj
 0007:000ec0e2       SwitchToHandlerStack       005960e2 f   ke:instemul.obj
 0007:000ec177       GetHandlerAddress          00596177 f   ke:instemul.obj
 0007:000ec1e5       PushException              005961e5 f   ke:instemul.obj
 0007:000ec53c       OpcodeESPrefixV86          0059653c f   ke:emv86.obj
 0007:000ec547       OpcodeCSPrefixV86          00596547 f   ke:emv86.obj
 0007:000ec552       OpcodeSSPrefixV86          00596552 f   ke:emv86.obj
 0007:000ec55d       OpcodeDSPrefixV86          0059655d f   ke:emv86.obj
 0007:000ec568       OpcodeFSPrefixV86          00596568 f   ke:emv86.obj
 0007:000ec570       OpcodeGSPrefixV86          00596570 f   ke:emv86.obj
 0007:000ec578       OpcodeOPER32PrefixV86      00596578 f   ke:emv86.obj
 0007:000ec580       OpcodeADDR32PrefixV86      00596580 f   ke:emv86.obj
 0007:000ec588       OpcodeLOCKPrefixV86        00596588 f   ke:emv86.obj
 0007:000ec590       OpcodeREPNEPrefixV86       00596590 f   ke:emv86.obj
 0007:000ec598       OpcodeREPPrefixV86         00596598 f   ke:emv86.obj
 0007:000ec5a0       _Ki386DispatchOpcodeV86@4  005965a0 f   ke:emv86.obj
 0007:000ec5e4       OpcodeInvalidV86           005965e4 f   ke:emv86.obj
 0007:000ec5e7       OpcodeGenericPrefixV86     005965e7 f   ke:emv86.obj
 0007:000ec602       OpcodeINSBV86              00596602 f   ke:emv86.obj
 0007:000ec63b       OpcodeINSWV86              0059663b f   ke:emv86.obj
 0007:000ec674       OpcodeOUTSBV86             00596674 f   ke:emv86.obj
 0007:000ec6b0       OpcodeOUTSWV86             005966b0 f   ke:emv86.obj
 0007:000ec6ec       OpcodePUSHFV86             005966ec f   ke:emv86.obj
 0007:000ec781       OpcodePOPFV86              00596781 f   ke:emv86.obj
 0007:000ec83d       OpcodeINTnnV86             0059683d f   ke:emv86.obj
 0007:000ec97d       OpcodeINTOV86              0059697d f   ke:emv86.obj
 0007:000ec980       OpcodeIRETV86              00596980 f   ke:emv86.obj
 0007:000eca72       OpcodeINBimmV86            00596a72 f   ke:emv86.obj
 0007:000eca84       OpcodeINWimmV86            00596a84 f   ke:emv86.obj
 0007:000eca96       OpcodeOUTBimmV86           00596a96 f   ke:emv86.obj
 0007:000ecaa8       OpcodeOUTWimmV86           00596aa8 f   ke:emv86.obj
 0007:000ecaba       OpcodeINBV86               00596aba f   ke:emv86.obj
 0007:000ecaf0       OpcodeINWV86               00596af0 f   ke:emv86.obj
 0007:000ecb01       OpcodeOUTBV86              00596b01 f   ke:emv86.obj
 0007:000ecb37       OpcodeOUTWV86              00596b37 f   ke:emv86.obj
 0007:000ecb48       OpcodeCLIV86               00596b48 f   ke:emv86.obj
 0007:000ecb95       OpcodeSTIV86               00596b95 f   ke:emv86.obj
 0007:000ecbcc       Opcode0FV86                00596bcc f   ke:emv86.obj
 0007:000ecc5a       VdmDispatchIntAck          00596c5a f   ke:emv86.obj
 0007:000eccf6       vdmDebugPoint              00596cf6 f   ke:emv86.obj
 0007:000eccf7       OpcodeHLTV86               00596cf7 f   ke:emv86.obj
 0007:000ecd08       _LpcpMoveMessage@20        00596d08 f   lpc:lpcmove.obj
 0007:000ecd70       VdmOpcode0f                00596d70 f   ntoswrk:VDMOP0F.obj
 0007:000ecdbe       VdmOpcodeLmsw              00596dbe f   ntoswrk:VDMOP0F.obj
 0007:000ece10       VdmOpcodeClts              00596e10 f   ntoswrk:VDMOP0F.obj
 0007:000ece19       VdmOpcodeGetCrx            00596e19 f   ntoswrk:VDMOP0F.obj
 0007:000ece99       VdmOpcodeSetCrx            00596e99 f   ntoswrk:VDMOP0F.obj
 0007:000ecef5       VdmOpcodeGetDrx            00596ef5 f   ntoswrk:VDMOP0F.obj
 0007:000ecf89       VdmOpcodeSetDrx            00596f89 f   ntoswrk:VDMOP0F.obj
 0007:000ed074       VdmDecodeOperand           00597074 f   ntoswrk:VDMOPRND.obj
 0007:000ed39a       VdmSegParams               0059739a f   ntoswrk:VDMOPRND.obj
 0007:000ed3e0       _LZNT1DecompressChunk@20   005973e0 f   ntoswrk:LZNTX86.obj
 0008:00000006       _ExQuerySystemLockInformation@12 00598006 f   ex:resource.obj
 0008:000000d2       _ExpGetProcessorPowerInformation@12 005980d2 f   ex:sysinfo.obj
 0008:000002ea       _ExpGetProcessorIdleInformation@12 005982ea f   ex:sysinfo.obj
 0008:00000498       _ExpGetLockInformation@12  00598498 f   ex:sysinfo.obj
 0008:00000520       _ExpSetSwappingKernelApc@20 00598520 f   ex:worker.obj
 0008:00000558       _ExpCheckQueueShutdown@8   00598558 f   ex:worker.obj
 0008:000005ae       _ExpShutdownWorker@4       005985ae f   ex:worker.obj
 0008:00000642       _ExpShutdownWorkerThreads@0 00598642 f   ex:worker.obj
 0008:00000736       _ExpSystemErrorHandler@20  00598736 f   ex:harderr.obj
 0008:00000c72       _ExGetNextWakeTime@12      00598c72 f   ex:timer.obj
 0008:00000d6a       _IoUnregisterShutdownNotification@4 00598d6a f   iomgr:iosubs.obj
 0008:00000e20       _IoShutdownSystem@4        00598e20 f   iomgr:iosubs.obj
 0008:00000f8a       _KiCalibrateTimeAdjustment@4 00598f8a f   ke:miscc.obj
 0008:00001184       _KeI386SetGdtSelector@8    00599184 f   ke:gdtsup.obj
 0008:000011ee       _KiLoadPAT@4               005991ee f   ke:pat.obj
 0008:0000126c       _KiLoadPATTarget@16        0059926c f   ke:pat.obj
 0008:0000128e       _KiInitializePAT@0         0059928e f   ke:pat.obj
 0008:000013a6       _KiAddRange@24             005993a6 f   ke:mtrr.obj
 0008:000014a2       _KiStartEffectiveRangeChange@4 005994a2 f   ke:mtrr.obj
 0008:00001534       _KiRangeWeight@4           00599534 f   ke:mtrr.obj
 0008:00001572       _KiFindFirstSetRightBit@8  00599572 f   ke:mtrr.obj
 0008:000015b4       _KiFindFirstSetLeftBit@8   005995b4 f   ke:mtrr.obj
 0008:000015f8       _KiLockStepExecution@4     005995f8 f   ke:mtrr.obj
 0008:00001658       _KiRemoveRange@24          00599658 f   ke:mtrr.obj
 0008:000017da       _KiMaskToLength@8          005997da f   ke:mtrr.obj
 0008:0000180e       _KiLengthToMask@8          0059980e f   ke:mtrr.obj
 0008:00001860       _KiLoadMTRR@4              00599860 f   ke:mtrr.obj
 0008:00001984       _KiLoadMTRRTarget@16       00599984 f   ke:mtrr.obj
 0008:000019a6       _KiCompleteEffectiveRangeChange@4 005999a6 f   ke:mtrr.obj
 0008:00002094       _KiAmdK6FindFreeRegion@4   0059a094 f   ke:mtrramd.obj
 0008:00002112       _KiAmdK6MtrrCommitChanges@0 0059a112 f   ke:mtrramd.obj
 0008:000021f8       _KiAmdK6AddRegion@16       0059a1f8 f   ke:mtrramd.obj
 0008:0000222e       _KiAmdK6MTRRAddRegionFromHW@4 0059a22e f   ke:mtrramd.obj
 0008:0000227a       _KiAmdK6HandleWcRegionRequest@8 0059a27a f   ke:mtrramd.obj
 0008:0000236c       _KiAmdK6MtrrSetMemoryType@12 0059a36c f   ke:mtrramd.obj
 0008:000023ea       _MiSessionInitializeWorkingSetList@0 0059a3ea f   mm:wslist.obj
 0008:000028f4       _MmAdjustWorkingSetSizeEx@24 0059a8f4 f   mm:wslist.obj
 0008:00002cbc       _MmAdjustWorkingSetSize@16 0059acbc f   mm:wslist.obj
 0008:00002ce0       _MiZeroInParallel@4        0059ace0 f   mm:iosup.obj
 0008:00002e4c       _MmReleaseDumpAddresses@4  0059ae4c f   mm:iosup.obj
 0008:00002e8a       _MmGatherMemoryForHibernate@8 0059ae8a f   mm:iosup.obj
 0008:00002fd4       _MmReturnMemoryForHibernate@4 0059afd4 f   mm:iosup.obj
 0008:00003026       _MmEnablePAT@0             0059b026 f   mm:iosup.obj
 0008:0000305a       _MiUnmapLockedPagesInUserSpace@8 0059b05a f   mm:iosup.obj
 0008:00003484       _MiAllocatePagesForMdl@36  0059b484 f   mm:iosup.obj
 0008:00003d36       _MmFreePagesFromMdl@4      0059bd36 f   mm:iosup.obj
 0008:00003ecc       _MmMapUserAddressesToPage@12 0059becc f   mm:iosup.obj
 0008:00004122       _MiResetVirtualMemory@16   0059c122 f   mm:allocvm.obj
 0008:000046be       _MiModifiedPageWriter@4    0059c6be f   mm:modwrite.obj
 0008:00004856       _MiFreeInitializationCode@8 0059c856 f   mm:mminit.obj
 0008:000048f4       _MiSessionCreateInternal@4 0059c8f4 f   mm:session.obj
 0008:00005190       _MiDereferenceSessionFinal@0 0059d190 f   mm:session.obj
 0008:000056b2       _MiFindContiguousMemoryInPool@20 0059d6b2 f   mm:allocpag.obj
 0008:00005a60       _MiFindLargePageMemory@16  0059da60 f   mm:allocpag.obj
 0008:00005ea4       _MiAllocateLargeZeroPages@8 0059dea4 f   mm:physical.obj
 0008:00006042       _MiZeroPageFile@4          0059e042 f   mm:shutdown.obj
 0008:00006252       _MiZeroAllPageFiles@0      0059e252 f   mm:shutdown.obj
 0008:00006438       _MiShutdownSystem@0        0059e438 f   mm:shutdown.obj
 0008:00006a24       _MiReleaseAllMemory@0      0059ea24 f   mm:shutdown.obj
 0008:00006c02       _MmShutdownSystem@4        0059ec02 f   mm:shutdown.obj
 0008:00006c84       _PspQueryWorkingSetWatch@24 0059ec84 f   ps:psquery.obj
 0008:00006dd4       _ExUpdateSystemTimeFromCmos@8 0059edd4 f   ntoswrk:SYSTIME.obj
 0008:00006e82       _ExpTimeRefreshWork@4      0059ee82 f   ntoswrk:SYSTIME.obj
 0008:00007008       _ExpSetSystemTime@20       0059f008 f   ntoswrk:SYSTIME.obj
 0008:0000709a       _xHalSetWakeEnable@4       0059f09a f   ntoswrk:HALFNC.obj
 0008:000070a2       _xHalSetWakeAlarm@12       0059f0a2 f   ntoswrk:HALFNC.obj
 0008:000070aa       _MmAddPhysicalMemoryEx@12  0059f0aa f   ntoswrk:DYNMEM.obj
 0008:0000769a       _MmMarkPhysicalMemoryAsGood@8 0059f69a f   ntoswrk:DYNMEM.obj
 0008:000078d8       _MmGetPhysicalMemoryRanges@0 0059f8d8 f   ntoswrk:DYNMEM.obj
 0008:00007a18       _MiRemovePhysicalPages@8   0059fa18 f   ntoswrk:DYNMEM.obj
 0008:00007c38       _MmAddPhysicalMemory@8     0059fc38 f   ntoswrk:DYNMEM.obj
 0008:00007c52       _MiRemovePhysicalMemory@16 0059fc52 f   ntoswrk:DYNMEM.obj
 0008:0000852e       _MmCreateMirror@0          005a052e f   ntoswrk:MIRROR.obj
 0008:0000853a       _PopSystemIrpDispatchWorker@4 005a053a f   ntoswrk:POCALL.obj
 0008:000085b6       _PopGracefulShutdown@4     005a05b6 f   ntoswrk:POSHTDWN.obj
 0008:00008798       _PopReturnMemoryForHibernate@12 005a0798 f   ntoswrk:HIBER.obj
 0008:000087ea       _PopDiscardRange@16        005a07ea f   ntoswrk:HIBER.obj
 0008:00008820       _PopCloneRange@16          005a0820 f   ntoswrk:HIBER.obj
 0008:000088cc       _PopCreateDumpMdl@12       005a08cc f   ntoswrk:HIBER.obj
 0008:00008984       _PopHiberComplete@8        005a0984 f   ntoswrk:HIBER.obj
 0008:00008b5c       _PopDumpStatistics@4       005a0b5c f   ntoswrk:HIBER.obj
 0008:00008d08       _PopUpdateHiberComplete@8  005a0d08 f   ntoswrk:HIBER.obj
 0008:00008d6a       _PopIORegionMove@12        005a0d6a f   ntoswrk:HIBER.obj
 0008:00008db4       _PopIOResume@8             005a0db4 f   ntoswrk:HIBER.obj
 0008:00008f02       _PopIOWrite@16             005a0f02 f   ntoswrk:HIBER.obj
 0008:00008ffc       _PopWriteHiberPages@20     005a0ffc f   ntoswrk:HIBER.obj
 0008:00009500       _PopFreeHiberContext@4     005a1500 f   ntoswrk:HIBER.obj
 0008:000095fa       _PopGatherMemoryForHibernate@16 005a15fa f   ntoswrk:HIBER.obj
 0008:000096ea       _PopPreserveRange@16       005a16ea f   ntoswrk:HIBER.obj
 0008:00009722       _PopAllocatePages@8        005a1722 f   ntoswrk:HIBER.obj
 0008:000097e6       _PopIOCallback@8           005a17e6 f   ntoswrk:HIBER.obj
 0008:00009816       _PoSetHiberRange@20        005a1816 f   ntoswrk:HIBER.obj
 0008:00009918       _PopClonePcr@4             005a1918 f   ntoswrk:HIBER.obj
 0008:00009976       _PopBuildMemoryImageHeader@8 005a1976 f   ntoswrk:HIBER.obj
 0008:00009bc0       _PopAddPagesToCompressedPageSet@24 005a1bc0 f   ntoswrk:HIBER.obj
 0008:00009f28       _PopAllocateOwnMemory@12   005a1f28 f   ntoswrk:HIBER.obj
 0008:00009f74       _PopEndCompressedPageSet@12 005a1f74 f   ntoswrk:HIBER.obj
 0008:0000a084       _PopWriteHiberImage@12     005a2084 f   ntoswrk:HIBER.obj
 0008:0000a5aa       _PopSaveHiberContext@4     005a25aa f   ntoswrk:HIBER.obj
 0008:0000a804       _RtlGetCompressionWorkSpaceSize@12 005a2804 f   ntoswrk:COMPRESS.obj
 0008:0000a84e       _RtlCompressBuffer@32      005a284e f   ntoswrk:COMPRESS.obj
 0008:0000a8ac       _NtSetSystemPowerState@12  005a28ac f   ntoswrk:NTAPI.obj
 0008:0000b108       _PopSystemStateString@4    005a3108 f   ntoswrk:MISC.obj
 0008:0000b164       _Ke386ConfigureCyrixProcessor@0 005a3164 f   ntoswrk:CYRIX.obj
 0008:0000b29c       _PpShutdownSystem@12       005a329c f   ntoswrk:PPCONTROL.obj
 0008:0000b2d0       _PopCleanupDevState@0      005a32d0 f   ntoswrk:SYSDEV.obj
 0008:0000b2f2       _PopResetChildCount@4      005a32f2 f   ntoswrk:SYSDEV.obj
 0008:0000b318       _PopSetupListForWake@8     005a3318 f   ntoswrk:SYSDEV.obj
 0008:0000b376       _PopCheckSystemPowerIrpStatus@12 005a3376 f   ntoswrk:SYSDEV.obj
 0008:0000b3c6       _PopRestartSetSystemState@0 005a33c6 f   ntoswrk:SYSDEV.obj
 0008:0000b470       _PopDumpSystemIrp@8        005a3470 f   ntoswrk:SYSDEV.obj
 0008:0000b51e       _PopWakeSystemTimeout@16   005a351e f   ntoswrk:SYSDEV.obj
 0008:0000b554       _PopReportDevState@4       005a3554 f   ntoswrk:SYSDEV.obj
 0008:0000b668       _PopWaitForSystemPowerIrp@8 005a3668 f   ntoswrk:SYSDEV.obj
 0008:0000ba2c       _PopCompleteSystemPowerIrp@12 005a3a2c f   ntoswrk:SYSDEV.obj
 0008:0000bbc8       _PopNotifyDevice@8         005a3bc8 f   ntoswrk:SYSDEV.obj
 0008:0000bd7e       _PopSleepDeviceList@8      005a3d7e f   ntoswrk:SYSDEV.obj
 0008:0000be6e       _PopWakeDeviceList@8       005a3e6e f   ntoswrk:SYSDEV.obj
 0008:0000bf8c       _PopSetDevicesSystemState@4 005a3f8c f   ntoswrk:SYSDEV.obj
 0008:0000c34e       _PopShutdownHandler@20     005a434e f   ntoswrk:SYS.obj
 0008:0000c41a       _PopHandleNextState@8      005a441a f   ntoswrk:SYS.obj
 0008:0000c510       _PopInvokeStateHandlerTargetProcessor@16 005a4510 f   ntoswrk:SYS.obj
 0008:0000c540       _PopIssueNextState@12      005a4540 f   ntoswrk:SYS.obj
 0008:0000c57a       _PopInvokeSystemStateHandler@8 005a457a f   ntoswrk:SYS.obj
 0008:0000c910       _PopShutdownSystem@4       005a4910 f   ntoswrk:SYS.obj
 0008:0000c992       _PopSleepSystem@8          005a4992 f   ntoswrk:SYS.obj
 0008:0000c9d8       _IoGetPoNotifyParent@4     005a49d8 f   ntoswrk:PNPPOWER.obj
 0008:0000c9fc       _IoMovePoNotifyChildren@8  005a49fc f   ntoswrk:PNPPOWER.obj
 0008:0000ca4e       _IopFreePoDeviceNotifyListHead@4 005a4a4e f   ntoswrk:PNPPOWER.obj
 0008:0000cab0       _IoFreePoDeviceNotifyList@4 005a4ab0 f   ntoswrk:PNPPOWER.obj
 0008:0000cb10       _IopCaptureObjectName@4    005a4b10 f   ntoswrk:PNPPOWER.obj
 0008:0000cbaa       _IoBuildPoDeviceNotifyList@4 005a4baa f   ntoswrk:PNPPOWER.obj
 0008:0000dbe0       _XpressEncode@32           005a5be0 f   ntoswrk:XENCODE.obj
 0008:0000de30       _XpressEncodeCreate@16     005a5e30 f   ntoswrk:XENCODE.obj
 0008:0000deea       _RtlCompressWorkSpaceSizeLZNT1@12 005a5eea f   ntoswrk:LZNT1.obj
 0008:0000df2c       _LZNT1CompressChunk@28     005a5f2c f   ntoswrk:LZNT1.obj
 0008:0000e1cc       _LZNT1FindMatchStandard@8  005a61cc f   ntoswrk:LZNT1.obj
 0008:0000e2e0       _RtlCompressBufferLZNT1@32 005a62e0 f   ntoswrk:LZNT1.obj
 0008:0000e396       _PbAddress32ToAddress16@12 005a6396 f   ntoswrk:PBIOSC.obj
 0008:0000e404       _PbHardwareService@4       005a6404 f   ntoswrk:PBIOSC.obj
 0008:0000e504       _PnPBiosSetDeviceNodes@4   005a6504 f   ntoswrk:PBIOSC.obj
 0008:0000e544       _PnPBiosReserveLegacyDeviceResources@4 005a6544 f   ntoswrk:PBIOSC.obj
 0008:0000e568       _PnPBiosShutdownSystem@8   005a6568 f   ntoswrk:PBIOSC.obj
 0008:0000e7ac       _PbCallPnpBiosWorker@16    005a67ac f   ntoswrk:PBIOSA.obj
 0008:0000e7d8       _RtlWorkSpaceProcs         005a67d8     ntoswrk:COMPRESS.obj
 0008:0000e7f8       _RtlCompressBufferProcs    005a67f8     ntoswrk:COMPRESS.obj
 0008:0000e818       _FormatMaxLength           005a6818     ntoswrk:LZNT1.obj
 0008:0000e83c       _FormatMaxDisplacement     005a683c     ntoswrk:LZNT1.obj
 0009:00000006       _ExAllocatePoolSanityChecks@8 005a7006 f   ex:pool.obj
 0009:0000006a       _ExFreePoolSanityChecks@4  005a706a f   ex:pool.obj
 0009:000001ea       _MmIsSystemAddressLocked@4 005a71ea f   mm:iosup.obj
 0009:000002cc       _MmAreMdlPagesLocked@4     005a72cc f   mm:iosup.obj
 0009:000003e2       _ViTrackIrqlLog@8          005a73e2 f   ntoswrk:VERIFIER.obj
 0009:00000458       _ViFaultTracesLog@0        005a7458 f   ntoswrk:VERIFIER.obj
 0009:000004a2       _ViCheckMdlPages@8         005a74a2 f   ntoswrk:VERIFIER.obj
 0009:000005cc       _VerifierMmMapLockedPages@8 005a75cc f   ntoswrk:VERIFIER.obj
 0009:0000069c       _VerifierMmUnlockPages@4   005a769c f   ntoswrk:VERIFIER.obj
 0009:000006f2       _VerifierMmUnmapLockedPages@8 005a76f2 f   ntoswrk:VERIFIER.obj
 0009:00000740       _VerifierMmUnmapIoSpace@8  005a7740 f   ntoswrk:VERIFIER.obj
 0009:0000076e       _ViInjectResourceFailure@0 005a776e f   ntoswrk:VERIFIER.obj
 0009:00000820       _ViGrowPoolAllocation@4    005a7820 f   ntoswrk:VERIFIER.obj
 0009:000008a6       _ViPostPoolAllocation@8    005a78a6 f   ntoswrk:VERIFIER.obj
 0009:00000a34       _ViFreeTrackedPool@16      005a7a34 f   ntoswrk:VERIFIER.obj
 0009:00000bf6       _VerifierExFreePoolWithTag@8 005a7bf6 f   ntoswrk:VERIFIER.obj
 0009:00000c1c       _VerifierKeSetEvent@12     005a7c1c f   ntoswrk:VERIFIER.obj
 0009:00000c4c       _VerifierExAcquireResourceExclusiveLite@8 005a7c4c f   ntoswrk:VERIFIER.obj
 0009:00000cc6       @VerifierExReleaseResourceLite@4 005a7cc6 f   ntoswrk:VERIFIER.obj
 0009:00000d2a       _KfSanityCheckRaiseIrql@4  005a7d2a f   ntoswrk:VERIFIER.obj
 0009:00000da4       _KfSanityCheckLowerIrql@4  005a7da4 f   ntoswrk:VERIFIER.obj
 0009:00000e52       _ViTrimAllSystemPageableMemory@4 005a7e52 f   ntoswrk:VERIFIER.obj
 0009:00000eea       _VerifierKeAcquireSpinLock@8 005a7eea f   ntoswrk:VERIFIER.obj
 0009:00000f5a       _VerifierKeReleaseSpinLock@8 005a7f5a f   ntoswrk:VERIFIER.obj
 0009:00000fc4       @VerifierKeAcquireSpinLockAtDpcLevel@4 005a7fc4 f   ntoswrk:VERIFIER.obj
 0009:00001010       @VerifierKeReleaseSpinLockFromDpcLevel@4 005a8010 f   ntoswrk:VERIFIER.obj
 0009:00001054       @VerifierKfAcquireSpinLock@4 005a8054 f   ntoswrk:VERIFIER.obj
 0009:000010bc       @VerifierKfReleaseSpinLock@8 005a80bc f   ntoswrk:VERIFIER.obj
 0009:00001122       @VerifierKeAcquireQueuedSpinLock@4 005a8122 f   ntoswrk:VERIFIER.obj
 0009:0000116a       @VerifierKeReleaseQueuedSpinLock@8 005a816a f   ntoswrk:VERIFIER.obj
 0009:000011ba       @VerifierKfRaiseIrql@4     005a81ba f   ntoswrk:VERIFIER.obj
 0009:0000120e       _VerifierKeRaiseIrqlToDpcLevel@0 005a820e f   ntoswrk:VERIFIER.obj
 0009:00001250       @VerifierKfLowerIrql@4     005a8250 f   ntoswrk:VERIFIER.obj
 0009:00001272       @VerifierExTryToAcquireFastMutex@4 005a8272 f   ntoswrk:VERIFIER.obj
 0009:000012c2       @VerifierExAcquireFastMutex@4 005a82c2 f   ntoswrk:VERIFIER.obj
 0009:00001308       @VerifierExAcquireFastMutexUnsafe@4 005a8308 f   ntoswrk:VERIFIER.obj
 0009:00001394       @VerifierExReleaseFastMutex@4 005a8394 f   ntoswrk:VERIFIER.obj
 0009:000013fc       @VerifierExReleaseFastMutexUnsafe@4 005a83fc f   ntoswrk:VERIFIER.obj
 0009:00001486       _VerifierKeRaiseIrql@8     005a8486 f   ntoswrk:VERIFIER.obj
 0009:000014e4       _VerifierKeLowerIrql@4     005a84e4 f   ntoswrk:VERIFIER.obj
 0009:0000150e       _VerifierKeSynchronizeExecution@12 005a850e f   ntoswrk:VERIFIER.obj
 0009:00001562       _VerifierKeInitializeTimerEx@8 005a8562 f   ntoswrk:VERIFIER.obj
 0009:0000157a       _VerifierKeInitializeTimer@4 005a857a f   ntoswrk:VERIFIER.obj
 0009:00001590       _VerifierKeWaitForSingleObject@20 005a8590 f   ntoswrk:VERIFIER.obj
 0009:00001624       _VerifierKeReleaseMutex@8  005a8624 f   ntoswrk:VERIFIER.obj
 0009:00001646       _VerifierKeInitializeMutex@8 005a8646 f   ntoswrk:VERIFIER.obj
 0009:0000166c       _VerifierKeReleaseMutant@16 005a866c f   ntoswrk:VERIFIER.obj
 0009:00001696       _VerifierKeInitializeMutant@8 005a8696 f   ntoswrk:VERIFIER.obj
 0009:000016da       _VerifierKeInitializeSpinLock@4 005a86da f   ntoswrk:VERIFIER.obj
 0009:000016fa       _VerifierReferenceObjectByHandle@24 005a86fa f   ntoswrk:VERIFIER.obj
 0009:00001770       @VerifierObfReferenceObject@4 005a8770 f   ntoswrk:VERIFIER.obj
 0009:00001794       _VerifierObDereferenceObject@4 005a8794 f   ntoswrk:VERIFIER.obj
 0009:000017c0       _VerifierKeLeaveCriticalRegion@0 005a87c0 f   ntoswrk:VERIFIER.obj
 0009:0000180e       _ViInitializeEntry@8       005a880e f   ntoswrk:VERIFIER.obj
 0009:0000187e       _ViInsertVerifierEntry@4   005a887e f   ntoswrk:VERIFIER.obj
 0009:000018c0       _ViLocateVerifierEntry@4   005a88c0 f   ntoswrk:VERIFIER.obj
 0009:0000190c       _MiVerifyingDriverUnloading@4 005a890c f   ntoswrk:VERIFIER.obj
 0009:00001a06       _VerifierMmProbeAndLockPages@12 005a8a06 f   ntoswrk:VERIFIER.obj
 0009:00001a4a       _VerifierMmProbeAndLockProcessPages@16 005a8a4a f   ntoswrk:VERIFIER.obj
 0009:00001a8c       _VerifierMmMapLockedPagesSpecifyCache@24 005a8a8c f   ntoswrk:VERIFIER.obj
 0009:00001b78       _VeAllocatePoolWithTagPriority@20 005a8b78 f   ntoswrk:VERIFIER.obj
 0009:00001d9a       _VerifierExFreePool@4      005a8d9a f   ntoswrk:VERIFIER.obj
 0009:00001dc0       _VerifierExAllocatePool@8  005a8dc0 f   ntoswrk:VERIFIER.obj
 0009:00001e2e       _VerifierExAllocatePoolWithTag@12 005a8e2e f   ntoswrk:VERIFIER.obj
 0009:00001e92       _VerifierExAllocatePoolWithQuotaTag@12 005a8e92 f   ntoswrk:VERIFIER.obj
 0009:00001f1a       _VerifierExAllocatePoolWithTagPriority@16 005a8f1a f   ntoswrk:VERIFIER.obj
 0009:00001f82       _VerifierExInitializePagedLookasideList@28 005a8f82 f   ntoswrk:VERIFIER.obj
 0009:00001fdc       _VerifierExInitializeNPagedLookasideList@28 005a8fdc f   ntoswrk:VERIFIER.obj
 0009:00002036       _ViDdiThrowException@28    005a9036 f   ntoswrk:VFDDI.obj
 0009:000020ce       _ViDdiBuildWmiRegInfoData@8 005a90ce f   ntoswrk:VFDDI.obj
 0009:000021b6       _ViDdiDispatchWmiQueryAllData@8 005a91b6 f   ntoswrk:VFDDI.obj
 0009:00002300       _ViDdiDispatchWmiRegInfoEx@8 005a9300 f   ntoswrk:VFDDI.obj
 0009:00002370       _ViDdiDispatchWmi@8        005a9370 f   ntoswrk:VFDDI.obj
 0009:000023c2       _ViDdiDriverEntry@8        005a93c2 f   ntoswrk:VFDDI.obj
 0009:000024a4       _VfDdiExposeWmiObjects@0   005a94a4 f   ntoswrk:VFDDI.obj
 0009:000024ea       _ViDeadlockDetectionLock@4 005a94ea f   ntoswrk:VFDEADLOCK.obj
 0009:00002512       _ViDeadlockDetectionUnlock@4 005a9512 f   ntoswrk:VFDEADLOCK.obj
 0009:00002534       _ViDeadlockDetectionIsLockedAlready@0 005a9534 f   ntoswrk:VFDEADLOCK.obj
 0009:00002556       _ViDeadlockDatabaseHash@8  005a9556 f   ntoswrk:VFDEADLOCK.obj
 0009:00002578       _ViDeadlockCertify@0       005a9578 f   ntoswrk:VFDEADLOCK.obj
 0009:0000263a       _ViDeadlockSimilarNode@12  005a963a f   ntoswrk:VFDEADLOCK.obj
 0009:00002666       _ViDeadlockSearchThread@4  005a9666 f   ntoswrk:VFDEADLOCK.obj
 0009:0000269a       _ViDeadlockAddThread@8     005a969a f   ntoswrk:VFDEADLOCK.obj
 0009:000026de       _ViDeadlockAllocateFromPoolCache@16 005a96de f   ntoswrk:VFDEADLOCK.obj
 0009:00002708       _ViDeadlockFreeIntoPoolCache@16 005a9708 f   ntoswrk:VFDEADLOCK.obj
 0009:00002730       _ViDeadlockAllocate@4      005a9730 f   ntoswrk:VFDEADLOCK.obj
 0009:00002860       _ViDeadlockFree@8          005a9860 f   ntoswrk:VFDEADLOCK.obj
 0009:000028e8       _ViDeadlockTrimPoolCache@0 005a98e8 f   ntoswrk:VFDEADLOCK.obj
 0009:0000295c       _ViDeadlockTrimPoolCacheWorker@4 005a995c f   ntoswrk:VFDEADLOCK.obj
 0009:00002afc       _ViDeadlockReportIssue@16  005a9afc f   ntoswrk:VFDEADLOCK.obj
 0009:00002b58       _ViDeadlockAddParticipant@4 005a9b58 f   ntoswrk:VFDEADLOCK.obj
 0009:00002b92       _ViDeadlockDeleteNode@8    005a9b92 f   ntoswrk:VFDEADLOCK.obj
 0009:00002c4c       _ViDeadlockSimilarNodes@8  005a9c4c f   ntoswrk:VFDEADLOCK.obj
 0009:00002c78       _ViDeadlockMergeNodes@8    005a9c78 f   ntoswrk:VFDEADLOCK.obj
 0009:00002d2a       _VfDeadlockBeforeCallDriver@8 005a9d2a f   ntoswrk:VFDEADLOCK.obj
 0009:00002db0       _VfDeadlockAfterCallDriver@12 005a9db0 f   ntoswrk:VFDEADLOCK.obj
 0009:00002e04       _ViIsThreadInsidePagingCodePaths@0 005a9e04 f   ntoswrk:VFDEADLOCK.obj
 0009:00002e78       _ViDeadlockCheckStackLimits@0 005a9e78 f   ntoswrk:VFDEADLOCK.obj
 0009:00002ece       _VfDeadlockDetectionInitialize@8 005a9ece f   ntoswrk:VFDEADLOCK.obj
 0009:00003196       _ViDeadlockCanProceed@12   005aa196 f   ntoswrk:VFDEADLOCK.obj
 0009:000033a4       _ViDeadlockAnalyze@16      005aa3a4 f   ntoswrk:VFDEADLOCK.obj
 0009:00003560       _ViDeadlockDeleteThread@8  005aa560 f   ntoswrk:VFDEADLOCK.obj
 0009:000035a8       _ViDeadlockDeleteResource@8 005aa5a8 f   ntoswrk:VFDEADLOCK.obj
 0009:00003606       _ViDeadlockForgetResourceHistory@12 005aa606 f   ntoswrk:VFDEADLOCK.obj
 0009:000036ce       _ViDeadlockCheckDuplicatesAmongChildren@8 005aa6ce f   ntoswrk:VFDEADLOCK.obj
 0009:00003720       _ViDeadlockCheckDuplicatesAmongRoots@4 005aa720 f   ntoswrk:VFDEADLOCK.obj
 0009:0000377a       _VfDeadlockDeleteMemoryRange@8 005aa77a f   ntoswrk:VFDEADLOCK.obj
 0009:00003870       _ViDeadlockTrimResources@4 005aa870 f   ntoswrk:VFDEADLOCK.obj
 0009:000038b6       _VerifierDeadlockFreePool@8 005aa8b6 f   ntoswrk:VFDEADLOCK.obj
 0009:000038c4       _ViDeadlockSearchResource@4 005aa8c4 f   ntoswrk:VFDEADLOCK.obj
 0009:00003906       _ViDeadlockAddResource@16  005aa906 f   ntoswrk:VFDEADLOCK.obj
 0009:000039d8       _VfDeadlockAcquireResource@20 005aa9d8 f   ntoswrk:VFDEADLOCK.obj
 0009:00003dfe       _VfDeadlockReleaseResource@16 005aadfe f   ntoswrk:VFDEADLOCK.obj
 0009:00003ff4       _VfDeadlockInitializeResource@16 005aaff4 f   ntoswrk:VFDEADLOCK.obj
 0009:00004044       _IovpValidateDeviceObject@4 005ab044 f   ntoswrk:IOVERIFIER.obj
 0009:0000406c       _IovFreeIrpPrivate@4       005ab06c f   ntoswrk:IOVERIFIER.obj
 0009:000040c2       @IovCallDriver@12          005ab0c2 f   ntoswrk:IOVERIFIER.obj
 0009:00004228       _IovAllocateIrp@8          005ab228 f   ntoswrk:IOVERIFIER.obj
 0009:00004352       _IovBuildAsynchronousFsdRequest@24 005ab352 f   ntoswrk:IOVERIFIER.obj
 0009:000043b4       _IovBuildDeviceIoControlRequest@36 005ab3b4 f   ntoswrk:IOVERIFIER.obj
 0009:00004420       _IovInitializeTimer@12     005ab420 f   ntoswrk:IOVERIFIER.obj
 0009:00004452       _IovpCompleteRequest@12    005ab452 f   ntoswrk:IOVERIFIER.obj
 0009:000044a8       _IovpLocalCompletionRoutine@12 005ab4a8 f   ntoswrk:IOVERIFIER.obj
 0009:000045f4       _IovInitializeIrp@12       005ab5f4 f   ntoswrk:IOVERIFIER.obj
 0009:0000461c       _IovAttachDeviceToDeviceStack@8 005ab61c f   ntoswrk:IOVERIFIER.obj
 0009:00004638       _IovDeleteDevice@4         005ab638 f   ntoswrk:IOVERIFIER.obj
 0009:00004664       _IovDetachDevice@4         005ab664 f   ntoswrk:IOVERIFIER.obj
 0009:00004680       _IovCancelIrp@8            005ab680 f   ntoswrk:IOVERIFIER.obj
 0009:0000469e       _IovpBuildDriverObjectList@20 005ab69e f   ntoswrk:IOVERIFIER.obj
 0009:000046fa       _IovpUnloadDriver@4        005ab6fa f   ntoswrk:IOVERIFIER.obj
 0009:000047aa       _IovUnloadDrivers@0        005ab7aa f   ntoswrk:IOVERIFIER.obj
 0009:000048a2       _IovFreeIrp@4              005ab8a2 f   ntoswrk:IOVERIFIER.obj
 0009:000048b0       @IovCompleteRequest@8      005ab8b0 f   ntoswrk:IOVERIFIER.obj
 0009:000049f2       @PpvUtilInit@0             005ab9f2 f   ntoswrk:PPVUTIL.obj
 0009:00004a00       @PpvUtilGetDevnodeRemovalOption@4 005aba00 f   ntoswrk:PPVUTIL.obj
 0009:00004a2a       @PpvUtilIsHardwareBeingVerified@4 005aba2a f   ntoswrk:PPVUTIL.obj
 0009:00004a54       _ViRefreshCallback@16      005aba54 f   ntoswrk:VFHAL.obj
 0009:00004a64       _VfInitializeTimerInformation@0 005aba64 f   ntoswrk:VFHAL.obj
 0009:00004b78       _ViRdtscX86@0              005abb78 f   ntoswrk:VFHAL.obj
 0009:00004b80       _ViFindMappedRegisterInFile@12 005abb80 f   ntoswrk:VFHAL.obj
 0009:00004bba       _VfInjectDmaFailure@0      005abbba f   ntoswrk:VFHAL.obj
 0009:00004c38       _ViTagBuffer@12            005abc38 f   ntoswrk:VFHAL.obj
 0009:00004c6e       _ViInitializePadding@16    005abc6e f   ntoswrk:VFHAL.obj
 0009:00004d12       _ViHasBufferBeenTouched@12 005abd12 f   ntoswrk:VFHAL.obj
 0009:00004dc2       _VfAssert@12               005abdc2 f   ntoswrk:VFHAL.obj
 0009:00004e64       _ViCommonBufferCalculatePadding@12 005abe64 f   ntoswrk:VFHAL.obj
 0009:00004ec0       _ViAllocateContiguousMemory@4 005abec0 f   ntoswrk:VFHAL.obj
 0009:00004f8a       _ViAllocateFromContiguousMemory@8 005abf8a f   ntoswrk:VFHAL.obj
 0009:00004fee       _ViFreeToContiguousMemory@12 005abfee f   ntoswrk:VFHAL.obj
 0009:00005082       _ViCopyBackModifiedBuffer@16 005ac082 f   ntoswrk:VFHAL.obj
 0009:000052d6       _VfQueryPerformanceCounter@4 005ac2d6 f   ntoswrk:VFHAL.obj
 0009:0000575e       _ViReleaseDmaAdapter@4     005ac75e f   ntoswrk:VFHAL.obj
 0009:00005998       _ViGetAdapterInformation@4 005ac998 f   ntoswrk:VFHAL.obj
 0009:00005b68       _ViGetRealDmaOperation@8   005acb68 f   ntoswrk:VFHAL.obj
 0009:00005ff8       _VfPutDmaAdapter@4         005acff8 f   ntoswrk:VFHAL.obj
 0009:00006280       _VfGetDmaAlignment@4       005ad280 f   ntoswrk:VFHAL.obj
 0009:000062a6       _VfReadDmaCounter@4        005ad2a6 f   ntoswrk:VFHAL.obj
 0009:00006322       _ViSpecialAllocateCommonBuffer@24 005ad322 f   ntoswrk:VFHAL.obj
 0009:000064c6       _ViAllocateMapRegisterFile@8 005ad4c6 f   ntoswrk:VFHAL.obj
 0009:000068c4       _ViAllocateMapRegistersFromFile@20 005ad8c4 f   ntoswrk:VFHAL.obj
 0009:00006b30       _VfHalDeleteDevice@4       005adb30 f   ntoswrk:VFHAL.obj
 0009:00006b64       _VfScatterGatherCallback@16 005adb64 f   ntoswrk:VFHAL.obj
 0009:00006c7e       _ViSwap@12                 005adc7e f   ntoswrk:VFHAL.obj
 0009:00006f68       _ViCheckTag@16             005adf68 f   ntoswrk:VFHAL.obj
 0009:000073ce       _ViCheckPadding@16         005ae3ce f   ntoswrk:VFHAL.obj
 0009:000075d2       _VfAllocateCrashDumpRegisters@8 005ae5d2 f   ntoswrk:VFHAL.obj
 0009:0000766c       _VfHalAllocateMapRegisters@16 005ae66c f   ntoswrk:VFHAL.obj
 0009:00007702       _ViHookDmaAdapter@12       005ae702 f   ntoswrk:VFHAL.obj
 0009:000077fa       _VfGetDmaAdapter@12        005ae7fa f   ntoswrk:VFHAL.obj
 0009:000078b2       _VfAllocateCommonBuffer@16 005ae8b2 f   ntoswrk:VFHAL.obj
 0009:00007a20       _VfLegacyGetAdapter@8      005aea20 f   ntoswrk:VFHAL.obj
 0009:00007b3a       _ViSpecialFreeCommonBuffer@16 005aeb3a f   ntoswrk:VFHAL.obj
 0009:00007c28       _ViFreeMapRegisterFile@8   005aec28 f   ntoswrk:VFHAL.obj
 0009:00008124       _ViMapDoubleBuffer@20      005af124 f   ntoswrk:VFHAL.obj
 0009:0000855e       _ViFreeMapRegistersToFile@12 005af55e f   ntoswrk:VFHAL.obj
 0009:00008600       _ViCheckAdapterBuffers@4   005af600 f   ntoswrk:VFHAL.obj
 0009:0000868e       _VfFreeCommonBuffer@24     005af68e f   ntoswrk:VFHAL.obj
 0009:000086f0       _VfFreeAdapterChannel@4    005af6f0 f   ntoswrk:VFHAL.obj
 0009:00008754       _VfFreeMapRegisters@12     005af754 f   ntoswrk:VFHAL.obj
 0009:000087cc       _VfMapTransfer@24          005af7cc f   ntoswrk:VFHAL.obj
 0009:000088cc       _VfGetScatterGatherList@32 005af8cc f   ntoswrk:VFHAL.obj
 0009:00008b54       _VfBuildScatterGatherList@40 005afb54 f   ntoswrk:VFHAL.obj
 0009:00008d8c       _VfAdapterCallback@16      005afd8c f   ntoswrk:VFHAL.obj
 0009:0000904e       _ViFlushDoubleBuffer@20    005b004e f   ntoswrk:VFHAL.obj
 0009:00009210       _VfAllocateAdapterChannel@20 005b0210 f   ntoswrk:VFHAL.obj
 0009:000093da       _VfFlushAdapterBuffers@24  005b03da f   ntoswrk:VFHAL.obj
 0009:00009556       _VfPutScatterGatherList@12 005b0556 f   ntoswrk:VFHAL.obj
 0009:00009672       _VfZwShouldCheck@4         005b0672 f   ntoswrk:VFZWAPI.obj
 0009:00009760       _VfZwReportIssue@12        005b0760 f   ntoswrk:VFZWAPI.obj
 0009:000097d4       _VfZwShouldReportIssue@4   005b07d4 f   ntoswrk:VFZWAPI.obj
 0009:0000985e       _VfZwReportUserModeVirtualSpaceOperation@4 005b085e f   ntoswrk:VFZWAPI.obj
 0009:00009888       _VfZwShouldSimulateDecommitAttack@0 005b0888 f   ntoswrk:VFZWAPI.obj
 0009:00009916       _VfZwExceptionFilter@4     005b0916 f   ntoswrk:VFZWAPI.obj
 0009:0000993a       _VfZwCheckAddress@8        005b093a f   ntoswrk:VFZWAPI.obj
 0009:00009976       _VfZwCheckHandle@8         005b0976 f   ntoswrk:VFZWAPI.obj
 0009:000099c2       _VfZwCheckUnicodeString@8  005b09c2 f   ntoswrk:VFZWAPI.obj
 0009:000099f4       _VfZwAccessCheckAndAuditAlarm@44 005b09f4 f   ntoswrk:VFZWAPI.obj
 0009:00009b3e       _VfZwAddBootEntry@8        005b0b3e f   ntoswrk:VFZWAPI.obj
 0009:00009bb6       _VfZwAddDriverEntry@8      005b0bb6 f   ntoswrk:VFZWAPI.obj
 0009:00009c2e       _VfZwAdjustPrivilegesToken@24 005b0c2e f   ntoswrk:VFZWAPI.obj
 0009:00009cfe       _VfZwAlertThread@4         005b0cfe f   ntoswrk:VFZWAPI.obj
 0009:00009d7a       _VfZwAllocateVirtualMemory@24 005b0d7a f   ntoswrk:VFZWAPI.obj
 0009:00009e52       _VfZwAssignProcessToJobObject@8 005b0e52 f   ntoswrk:VFZWAPI.obj
 0009:00009eca       _VfZwCancelIoFile@8        005b0eca f   ntoswrk:VFZWAPI.obj
 0009:00009f42       _VfZwCancelTimer@8         005b0f42 f   ntoswrk:VFZWAPI.obj
 0009:00009fba       _VfZwClearEvent@4          005b0fba f   ntoswrk:VFZWAPI.obj
 0009:0000a008       _VfZwClose@4               005b1008 f   ntoswrk:VFZWAPI.obj
 0009:0000a056       _VfZwCloseObjectAuditAlarm@12 005b1056 f   ntoswrk:VFZWAPI.obj
 0009:0000a0aa       _VfZwConnectPort@32        005b10aa f   ntoswrk:VFZWAPI.obj
 0009:0000a210       _VfZwDeleteBootEntry@4     005b1210 f   ntoswrk:VFZWAPI.obj
 0009:0000a258       _VfZwDeleteDriverEntry@4   005b1258 f   ntoswrk:VFZWAPI.obj
 0009:0000a2a0       _VfZwDeleteKey@4           005b12a0 f   ntoswrk:VFZWAPI.obj
 0009:0000a2ee       _VfZwDeleteValueKey@8      005b12ee f   ntoswrk:VFZWAPI.obj
 0009:0000a366       _VfZwDeviceIoControlFile@40 005b1366 f   ntoswrk:VFZWAPI.obj
 0009:0000a4ae       _VfZwDisplayString@4       005b14ae f   ntoswrk:VFZWAPI.obj
 0009:0000a4fc       _VfZwDuplicateObject@28    005b14fc f   ntoswrk:VFZWAPI.obj
 0009:0000a5ce       _VfZwEnumerateBootEntries@8 005b15ce f   ntoswrk:VFZWAPI.obj
 0009:0000a646       _VfZwEnumerateDriverEntries@8 005b1646 f   ntoswrk:VFZWAPI.obj
 0009:0000a6be       _VfZwEnumerateKey@24       005b16be f   ntoswrk:VFZWAPI.obj
 0009:0000a766       _VfZwEnumerateValueKey@24  005b1766 f   ntoswrk:VFZWAPI.obj
 0009:0000a80e       _VfZwFlushInstructionCache@12 005b180e f   ntoswrk:VFZWAPI.obj
 0009:0000a888       _VfZwFlushKey@4            005b1888 f   ntoswrk:VFZWAPI.obj
 0009:0000a8d6       _VfZwFlushVirtualMemory@16 005b18d6 f   ntoswrk:VFZWAPI.obj
 0009:0000a9a0       _VfZwFreeVirtualMemory@16  005b19a0 f   ntoswrk:VFZWAPI.obj
 0009:0000aa42       _VfZwFsControlFile@40      005b1a42 f   ntoswrk:VFZWAPI.obj
 0009:0000ab8a       _VfZwInitiatePowerAction@16 005b1b8a f   ntoswrk:VFZWAPI.obj
 0009:0000abda       _VfZwIsProcessInJob@8      005b1bda f   ntoswrk:VFZWAPI.obj
 0009:0000ac52       _VfZwLoadDriver@4          005b1c52 f   ntoswrk:VFZWAPI.obj
 0009:0000aca0       _VfZwMakeTemporaryObject@4 005b1ca0 f   ntoswrk:VFZWAPI.obj
 0009:0000ad1a       _VfZwMapViewOfSection@40   005b1d1a f   ntoswrk:VFZWAPI.obj
 0009:0000ae46       _VfZwModifyBootEntry@4     005b1e46 f   ntoswrk:VFZWAPI.obj
 0009:0000ae94       _VfZwModifyDriverEntry@4   005b1e94 f   ntoswrk:VFZWAPI.obj
 0009:0000aee2       _VfZwNotifyChangeKey@40    005b1ee2 f   ntoswrk:VFZWAPI.obj
 0009:0000b006       _VfZwOpenProcessToken@12   005b2006 f   ntoswrk:VFZWAPI.obj
 0009:0000b080       _VfZwOpenProcessTokenEx@16 005b2080 f   ntoswrk:VFZWAPI.obj
 0009:0000b0fe       _VfZwOpenThreadToken@16    005b20fe f   ntoswrk:VFZWAPI.obj
 0009:0000b17c       _VfZwOpenThreadTokenEx@20  005b217c f   ntoswrk:VFZWAPI.obj
 0009:0000b1fc       _VfZwPowerInformation@20   005b21fc f   ntoswrk:VFZWAPI.obj
 0009:0000b27c       _VfZwPulseEvent@8          005b227c f   ntoswrk:VFZWAPI.obj
 0009:0000b2f4       _VfZwQueryBootEntryOrder@8 005b22f4 f   ntoswrk:VFZWAPI.obj
 0009:0000b36c       _VfZwQueryBootOptions@8    005b236c f   ntoswrk:VFZWAPI.obj
 0009:0000b3e4       _VfZwQueryDefaultLocale@8  005b23e4 f   ntoswrk:VFZWAPI.obj
 0009:0000b434       _VfZwQueryDefaultUILanguage@4 005b2434 f   ntoswrk:VFZWAPI.obj
 0009:0000b482       _VfZwQueryDirectoryFile@44 005b2482 f   ntoswrk:VFZWAPI.obj
 0009:0000b5cc       _VfZwQueryDirectoryObject@28 005b25cc f   ntoswrk:VFZWAPI.obj
 0009:0000b69e       _VfZwQueryDriverEntryOrder@8 005b269e f   ntoswrk:VFZWAPI.obj
 0009:0000b716       _VfZwQueryEaFile@36        005b2716 f   ntoswrk:VFZWAPI.obj
 0009:0000b812       _VfZwQueryInformationFile@20 005b2812 f   ntoswrk:VFZWAPI.obj
 0009:0000b8b6       _VfZwQueryInformationJobObject@20 005b28b6 f   ntoswrk:VFZWAPI.obj
 0009:0000b95a       _VfZwQueryInformationProcess@20 005b295a f   ntoswrk:VFZWAPI.obj
 0009:0000b9fe       _VfZwQueryInformationThread@20 005b29fe f   ntoswrk:VFZWAPI.obj
 0009:0000baa2       _VfZwQueryInformationToken@20 005b2aa2 f   ntoswrk:VFZWAPI.obj
 0009:0000bb46       _VfZwQueryInstallUILanguage@4 005b2b46 f   ntoswrk:VFZWAPI.obj
 0009:0000bb94       _VfZwQueryKey@20           005b2b94 f   ntoswrk:VFZWAPI.obj
 0009:0000bc38       _VfZwQueryObject@20        005b2c38 f   ntoswrk:VFZWAPI.obj
 0009:0000bcdc       _VfZwQuerySection@20       005b2cdc f   ntoswrk:VFZWAPI.obj
 0009:0000bd80       _VfZwQuerySecurityObject@20 005b2d80 f   ntoswrk:VFZWAPI.obj
 0009:0000be24       _VfZwQuerySymbolicLinkObject@12 005b2e24 f   ntoswrk:VFZWAPI.obj
 0009:0000bec2       _VfZwQuerySystemInformation@16 005b2ec2 f   ntoswrk:VFZWAPI.obj
 0009:0000bf40       _VfZwQueryValueKey@24      005b2f40 f   ntoswrk:VFZWAPI.obj
 0009:0000c010       _VfZwQueryVolumeInformationFile@20 005b3010 f   ntoswrk:VFZWAPI.obj
 0009:0000c0b4       _VfZwReadFile@36           005b30b4 f   ntoswrk:VFZWAPI.obj
 0009:0000c21c       _VfZwRequestWaitReplyPort@12 005b321c f   ntoswrk:VFZWAPI.obj
 0009:0000c2ba       _VfZwResetEvent@8          005b32ba f   ntoswrk:VFZWAPI.obj
 0009:0000c332       _VfZwRestoreKey@12         005b3332 f   ntoswrk:VFZWAPI.obj
 0009:0000c3ac       _VfZwSaveKey@8             005b33ac f   ntoswrk:VFZWAPI.obj
 0009:0000c424       _VfZwSaveKeyEx@12          005b3424 f   ntoswrk:VFZWAPI.obj
 0009:0000c49e       _VfZwSetBootEntryOrder@8   005b349e f   ntoswrk:VFZWAPI.obj
 0009:0000c4ee       _VfZwSetBootOptions@8      005b34ee f   ntoswrk:VFZWAPI.obj
 0009:0000c53e       _VfZwSetDefaultLocale@8    005b353e f   ntoswrk:VFZWAPI.obj
 0009:0000c588       _VfZwSetDefaultUILanguage@4 005b3588 f   ntoswrk:VFZWAPI.obj
 0009:0000c5d0       _VfZwSetDriverEntryOrder@8 005b35d0 f   ntoswrk:VFZWAPI.obj
 0009:0000c620       _VfZwSetEaFile@16          005b3620 f   ntoswrk:VFZWAPI.obj
 0009:0000c6c2       _VfZwSetEvent@8            005b36c2 f   ntoswrk:VFZWAPI.obj
 0009:0000c73a       _VfZwSetInformationFile@20 005b373a f   ntoswrk:VFZWAPI.obj
 0009:0000c7de       _VfZwSetInformationJobObject@16 005b37de f   ntoswrk:VFZWAPI.obj
 0009:0000c85c       _VfZwSetInformationObject@16 005b385c f   ntoswrk:VFZWAPI.obj
 0009:0000c8da       _VfZwSetInformationProcess@16 005b38da f   ntoswrk:VFZWAPI.obj
 0009:0000c958       _VfZwSetInformationThread@16 005b3958 f   ntoswrk:VFZWAPI.obj
 0009:0000c9d6       _VfZwSetSecurityObject@12  005b39d6 f   ntoswrk:VFZWAPI.obj
 0009:0000ca50       _VfZwSetSystemInformation@12 005b3a50 f   ntoswrk:VFZWAPI.obj
 0009:0000caa4       _VfZwSetSystemTime@8       005b3aa4 f   ntoswrk:VFZWAPI.obj
 0009:0000cb1c       _VfZwSetTimer@28           005b3b1c f   ntoswrk:VFZWAPI.obj
 0009:0000cc12       _VfZwSetValueKey@24        005b3c12 f   ntoswrk:VFZWAPI.obj
 0009:0000ccba       _VfZwSetVolumeInformationFile@20 005b3cba f   ntoswrk:VFZWAPI.obj
 0009:0000cd5e       _VfZwTerminateJobObject@8  005b3d5e f   ntoswrk:VFZWAPI.obj
 0009:0000cdae       _VfZwTerminateProcess@8    005b3dae f   ntoswrk:VFZWAPI.obj
 0009:0000cdfe       _VfZwTranslateFilePath@16  005b3dfe f   ntoswrk:VFZWAPI.obj
 0009:0000cea0       _VfZwUnloadDriver@4        005b3ea0 f   ntoswrk:VFZWAPI.obj
 0009:0000ceee       _VfZwUnmapViewOfSection@8  005b3eee f   ntoswrk:VFZWAPI.obj
 0009:0000cf66       _VfZwWaitForMultipleObjects@20 005b3f66 f   ntoswrk:VFZWAPI.obj
 0009:0000d01e       _VfZwWaitForSingleObject@12 005b401e f   ntoswrk:VFZWAPI.obj
 0009:0000d098       _VfZwWriteFile@36          005b4098 f   ntoswrk:VFZWAPI.obj
 0009:0000d200       _VfZwYieldExecution@0      005b4200 f   ntoswrk:VFZWAPI.obj
 0009:0000d242       _VfZwCheckObjectAttributes@8 005b4242 f   ntoswrk:VFZWAPI.obj
 0009:0000d290       _VfZwCreateDirectoryObject@12 005b4290 f   ntoswrk:VFZWAPI.obj
 0009:0000d30a       _VfZwCreateEvent@20        005b430a f   ntoswrk:VFZWAPI.obj
 0009:0000d38a       _VfZwCreateFile@44         005b438a f   ntoswrk:VFZWAPI.obj
 0009:0000d48c       _VfZwCreateJobObject@12    005b448c f   ntoswrk:VFZWAPI.obj
 0009:0000d506       _VfZwCreateKey@28          005b4506 f   ntoswrk:VFZWAPI.obj
 0009:0000d5d8       _VfZwCreateSection@28      005b45d8 f   ntoswrk:VFZWAPI.obj
 0009:0000d6aa       _VfZwCreateSymbolicLinkObject@16 005b46aa f   ntoswrk:VFZWAPI.obj
 0009:0000d74c       _VfZwCreateTimer@16        005b474c f   ntoswrk:VFZWAPI.obj
 0009:0000d7ca       _VfZwDeleteFile@4          005b47ca f   ntoswrk:VFZWAPI.obj
 0009:0000d818       _VfZwDuplicateToken@24     005b4818 f   ntoswrk:VFZWAPI.obj
 0009:0000d8c0       _VfZwLoadKey@8             005b48c0 f   ntoswrk:VFZWAPI.obj
 0009:0000d938       _VfZwOpenDirectoryObject@12 005b4938 f   ntoswrk:VFZWAPI.obj
 0009:0000d9b2       _VfZwOpenEvent@12          005b49b2 f   ntoswrk:VFZWAPI.obj
 0009:0000da2c       _VfZwOpenFile@24           005b4a2c f   ntoswrk:VFZWAPI.obj
 0009:0000dad4       _VfZwOpenJobObject@12      005b4ad4 f   ntoswrk:VFZWAPI.obj
 0009:0000db4e       _VfZwOpenKey@12            005b4b4e f   ntoswrk:VFZWAPI.obj
 0009:0000dbc8       _VfZwOpenProcess@16        005b4bc8 f   ntoswrk:VFZWAPI.obj
 0009:0000dc6a       _VfZwOpenSection@12        005b4c6a f   ntoswrk:VFZWAPI.obj
 0009:0000dce4       _VfZwOpenSymbolicLinkObject@12 005b4ce4 f   ntoswrk:VFZWAPI.obj
 0009:0000dd5e       _VfZwOpenThread@16         005b4d5e f   ntoswrk:VFZWAPI.obj
 0009:0000de00       _VfZwOpenTimer@12          005b4e00 f   ntoswrk:VFZWAPI.obj
 0009:0000de7a       _VfZwQueryFullAttributesFile@8 005b4e7a f   ntoswrk:VFZWAPI.obj
 0009:0000def2       _VfZwReplaceKey@12         005b4ef2 f   ntoswrk:VFZWAPI.obj
 0009:0000df90       _VfZwUnloadKey@4           005b4f90 f   ntoswrk:VFZWAPI.obj
 0009:0000dfde       _VerifierNtCreateFile@44   005b4fde f   ntoswrk:VFFILEIO.obj
 0009:0000e020       _VerifierNtWriteFile@36    005b5020 f   ntoswrk:VFFILEIO.obj
 0009:0000e062       _VerifierNtReadFile@36     005b5062 f   ntoswrk:VFFILEIO.obj
 0009:0000e0a4       _VfVerifierRunningMode@0   005b50a4 f   ntoswrk:VFTRIAGE.obj
 0009:0000e0b0       @IovUtilInit@0             005b50b0 f   ntoswrk:IOVUTIL.obj
 0009:0000e0be       @IovUtilGetLowerDeviceObject@8 005b50be f   ntoswrk:IOVUTIL.obj
 0009:0000e0fa       @IovUtilGetBottomDeviceObject@8 005b50fa f   ntoswrk:IOVUTIL.obj
 0009:0000e140       @IovUtilGetUpperDeviceObject@8 005b5140 f   ntoswrk:IOVUTIL.obj
 0009:0000e176       @IovUtilIsVerifiedDeviceStack@4 005b5176 f   ntoswrk:IOVUTIL.obj
 0009:0000e218       @IovUtilFlushStackCache@8  005b5218 f   ntoswrk:IOVUTIL.obj
 0009:0000e270       _IovUtilIsPdo@4            005b5270 f   ntoswrk:IOVUTIL.obj
 0009:0000e2b2       _IovUtilIsWdmStack@4       005b52b2 f   ntoswrk:IOVUTIL.obj
 0009:0000e2ee       @IovUtilHasDispatchHandler@8 005b52ee f   ntoswrk:IOVUTIL.obj
 0009:0000e306       @IovUtilIsDeviceObjectMarked@8 005b5306 f   ntoswrk:IOVUTIL.obj
 0009:0000e34e       @IovUtilIsInFdoStack@4     005b534e f   ntoswrk:IOVUTIL.obj
 0009:0000e396       @IovUtilIsRawPdo@4         005b5396 f   ntoswrk:IOVUTIL.obj
 0009:0000e3a4       @IovUtilIsDesignatedFdo@4  005b53a4 f   ntoswrk:IOVUTIL.obj
 0009:0000e3b2       _ViBucheckProcessParams@24 005b53b2 f   ntoswrk:VFBUGCHECK.obj
 0009:0000e522       @ViBugcheckProcessMessageText@12 005b5522 f   ntoswrk:VFBUGCHECK.obj
 0009:0000e642       @ViBugcheckApplyControl@4  005b5642 f   ntoswrk:VFBUGCHECK.obj
 0009:0000e6f2       @ViBugcheckHalt@4          005b56f2 f   ntoswrk:VFBUGCHECK.obj
 0009:0000e924       @ViBugcheckPrintBuffer@4   005b5924 f   ntoswrk:VFBUGCHECK.obj
 0009:0000ebb8       @ViBugcheckPrintParamData@4 005b5bb8 f   ntoswrk:VFBUGCHECK.obj
 0009:0000ec3a       @ViBugcheckPrintUrl@4      005b5c3a f   ntoswrk:VFBUGCHECK.obj
 0009:0000ed58       @ViBugcheckPrompt@8        005b5d58 f   ntoswrk:VFBUGCHECK.obj
 0009:0000ee60       _VfBugcheckThrowException@16 005b5e60 f   ntoswrk:VFBUGCHECK.obj
 0009:0000ef30       _VfBugcheckThrowIoException 005b5f30 f   ntoswrk:VFBUGCHECK.obj
 0009:0000eff6       @VfSettingsGetSnapshotSize@0 005b5ff6 f   ntoswrk:VFSETTINGS.obj
 0009:0000f000       @VfSettingsIsOptionEnabled@8 005b6000 f   ntoswrk:VFSETTINGS.obj
 0009:0000f036       @VfSettingsSetOption@12    005b6036 f   ntoswrk:VFSETTINGS.obj
 0009:0000f084       @VfSettingsGetValue@12     005b6084 f   ntoswrk:VFSETTINGS.obj
 0009:0000f0ba       @VfSettingsInit@4          005b60ba f   ntoswrk:VFSETTINGS.obj
 0009:0000f1fc       @VfSettingsCreateSnapshot@4 005b61fc f   ntoswrk:VFSETTINGS.obj
 0009:0000f214       _VfIrpLogInit@0            005b6214 f   ntoswrk:VFIRPLOG.obj
 0009:0000f244       @ViIrpLogDatabaseFindPointer@8 005b6244 f   ntoswrk:VFIRPLOG.obj
 0009:0000f270       _ViIrpLogExposeWmiCallback@4 005b6270 f   ntoswrk:VFIRPLOG.obj
 0009:0000f296       _VfIrpLogRecordEvent@12    005b6296 f   ntoswrk:VFIRPLOG.obj
 0009:0000f3fa       _VfIrpLogGetIrpDatabaseSiloCount@0 005b63fa f   ntoswrk:VFIRPLOG.obj
 0009:0000f404       _VfIrpLogLockDatabase@4    005b6404 f   ntoswrk:VFIRPLOG.obj
 0009:0000f45c       _VfIrpLogRetrieveWmiData@24 005b645c f   ntoswrk:VFIRPLOG.obj
 0009:0000f702       _VfIrpLogUnlockDatabase@4  005b6702 f   ntoswrk:VFIRPLOG.obj
 0009:0000f77c       _VfIrpLogDeleteDeviceLogs@4 005b677c f   ntoswrk:VFIRPLOG.obj
 0009:0000f7e0       @VfIrpPrepareAllocaCallStackData@4 005b67e0 f   ntoswrk:VFIRP.obj
 0009:0000f7f2       @VfIrpReleaseCallStackData@4 005b67f2 f   ntoswrk:VFIRP.obj
 0009:0000f80e       @VfIrpAllocate@4           005b680e f   ntoswrk:VFIRP.obj
 0009:0000f834       @VfIrpMakeUntouchable@4    005b6834 f   ntoswrk:VFIRP.obj
 0009:0000f846       @VfIrpMakeTouchable@4      005b6846 f   ntoswrk:VFIRP.obj
 0009:0000f854       @VfIrpFree@4               005b6854 f   ntoswrk:VFIRP.obj
 0009:0000f866       @VerifierIoAllocateIrp2@4  005b6866 f   ntoswrk:VFIRP.obj
 0009:0000f8d0       @VerifierIoFreeIrp@8       005b68d0 f   ntoswrk:VFIRP.obj
 0009:0000fa04       @VerifierIoInitializeIrp@16 005b6a04 f   ntoswrk:VFIRP.obj
 0009:0000fa8e       _ViIrpSynchronousCompletionRoutine@12 005b6a8e f   ntoswrk:VFIRP.obj
 0009:0000faac       @VfIrpWatermark@8          005b6aac f   ntoswrk:VFIRP.obj
 0009:0000fada       @VfIrpReserveCallStackData@8 005b6ada f   ntoswrk:VFIRP.obj
 0009:0000fb18       @ViIrpAllocateLockedPacket@12 005b6b18 f   ntoswrk:VFIRP.obj
 0009:0000fbf0       @VerifierIoAllocateIrp1@12 005b6bf0 f   ntoswrk:VFIRP.obj
 0009:0000fc6c       _VfIrpSendSynchronousIrp@28 005b6c6c f   ntoswrk:VFIRP.obj
 0009:0000fd62       @IovpPacketFromIrp@8       005b6d62 f   ntoswrk:TRACKIRP.obj
 0009:0000fdc4       @IovpCheckIrpForCriticalTracking@4 005b6dc4 f   ntoswrk:TRACKIRP.obj
 0009:0000fe1e       @IovpCallDriver2@12        005b6e1e f   ntoswrk:TRACKIRP.obj
 0009:000101a8       @IovpCompleteRequest4@12   005b71a8 f   ntoswrk:TRACKIRP.obj
 0009:0001023a       @IovpCompleteRequest5@8    005b723a f   ntoswrk:TRACKIRP.obj
 0009:00010288       _IovpAdvanceStackDownwards@32 005b7288 f   ntoswrk:TRACKIRP.obj
 0009:00010396       _IovpInternalCompletionTrap@12 005b7396 f   ntoswrk:TRACKIRP.obj
 0009:000103b4       _IovpInternalCompleteAfterWait@4 005b73b4 f   ntoswrk:TRACKIRP.obj
 0009:00010432       _IovpSwapSurrogateIrp@12   005b7432 f   ntoswrk:TRACKIRP.obj
 0009:00010506       @IovpCancelIrp@12          005b7506 f   ntoswrk:TRACKIRP.obj
 0009:000105b2       @IovpExamineDevObjForwarding@12 005b75b2 f   ntoswrk:TRACKIRP.obj
 0009:0001063e       _IovpBuildMiniIrpSnapshot@8 005b763e f   ntoswrk:TRACKIRP.obj
 0009:00010664       @IovpCompleteRequest1@12   005b7664 f   ntoswrk:TRACKIRP.obj
 0009:000107c6       @IovpCompleteRequest2@8    005b77c6 f   ntoswrk:TRACKIRP.obj
 0009:00010a48       _IovpExamineIrpStackForwarding@36 005b7a48 f   ntoswrk:TRACKIRP.obj
 0009:00010c8c       _IovpInternalCompleteAtDPC@16 005b7c8c f   ntoswrk:TRACKIRP.obj
 0009:00010ca0       _IovpInternalDeferredCompletion@12 005b7ca0 f   ntoswrk:TRACKIRP.obj
 0009:00010e62       @IovpCallDriver1@16        005b7e62 f   ntoswrk:TRACKIRP.obj
 0009:00011280       @IovpCompleteRequest3@12   005b8280 f   ntoswrk:TRACKIRP.obj
 0009:0001139c       @VfStackSeedStack@4        005b839c f   ntoswrk:VFSTACK.obj
 0009:000113fa       _VerifierIoAttachDeviceToDeviceStack@8 005b83fa f   ntoswrk:VFDEVOBJ.obj
 0009:00011410       _VerifierIoDetachDevice@4  005b8410 f   ntoswrk:VFDEVOBJ.obj
 0009:0001146c       _VerifierIoDeleteDevice@4  005b846c f   ntoswrk:VFDEVOBJ.obj
 0009:00011506       _VfDevObjPreAddDevice@16   005b8506 f   ntoswrk:VFDEVOBJ.obj
 0009:00011540       _VfDevObjPostAddDevice@20  005b8540 f   ntoswrk:VFDEVOBJ.obj
 0009:00011752       _VfDevObjAdjustFdoForVerifierFilters@4 005b8752 f   ntoswrk:VFDEVOBJ.obj
 0009:00011776       @VfMajorRegisterHandlers@52 005b8776 f   ntoswrk:VFMAJOR.obj
 0009:000117f0       @VfMajorDumpIrpStack@4     005b87f0 f   ntoswrk:VFMAJOR.obj
 0009:0001182a       @VfMajorVerifyNewRequest@24 005b882a f   ntoswrk:VFMAJOR.obj
 0009:00011896       @VfMajorVerifyIrpStackDownward@24 005b8896 f   ntoswrk:VFMAJOR.obj
 0009:00011908       @VfMajorVerifyIrpStackUpward@20 005b8908 f   ntoswrk:VFMAJOR.obj
 0009:00011974       @VfMajorIsSystemRestrictedIrp@4 005b8974 f   ntoswrk:VFMAJOR.obj
 0009:000119c4       @VfMajorAdvanceIrpStatus@12 005b89c4 f   ntoswrk:VFMAJOR.obj
 0009:00011a28       @VfMajorIsValidIrpStatus@8 005b8a28 f   ntoswrk:VFMAJOR.obj
 0009:00011a7c       @VfMajorIsNewRequest@8     005b8a7c f   ntoswrk:VFMAJOR.obj
 0009:00011ad4       @VfMajorVerifyNewIrp@20    005b8ad4 f   ntoswrk:VFMAJOR.obj
 0009:00011b3a       @VfMajorVerifyFinalIrpStack@8 005b8b3a f   ntoswrk:VFMAJOR.obj
 0009:00011b88       @VfMajorTestStartedPdoStack@4 005b8b88 f   ntoswrk:VFMAJOR.obj
 0009:00011be0       @VfMajorBuildIrpLogEntry@16 005b8be0 f   ntoswrk:VFMAJOR.obj
 0009:00011c46       _VfMessageRetrieveInternalTable@8 005b8c46 f   ntoswrk:VFMESSAGE.obj
 0009:00011c80       _VfMessageRetrieveErrorData@28 005b8c80 f   ntoswrk:VFMESSAGE.obj
 0009:00011d70       _VfPrintDumpIrpStack@4     005b8d70 f   ntoswrk:VFPRINT.obj
 0009:00011dc4       _VfPrintDumpIrp@4          005b8dc4 f   ntoswrk:VFPRINT.obj
 0009:00011e48       @VfPacketFindAndLock@4     005b8e48 f   ntoswrk:VFPACKET.obj
 0009:00011e52       @VfPacketAcquireLock@4     005b8e52 f   ntoswrk:VFPACKET.obj
 0009:00011e5c       @VfPacketReleaseLock@4     005b8e5c f   ntoswrk:VFPACKET.obj
 0009:00011e66       @VfPacketReference@8       005b8e66 f   ntoswrk:VFPACKET.obj
 0009:00011e70       @VfPacketDereference@8     005b8e70 f   ntoswrk:VFPACKET.obj
 0009:00011e7a       _VfpPacketNotificationCallback@12 005b8e7a f   ntoswrk:VFPACKET.obj
 0009:00011ea2       @VfPacketGetCurrentSessionData@4 005b8ea2 f   ntoswrk:VFPACKET.obj
 0009:00011eb2       @VfPacketLogEntry@16       005b8eb2 f   ntoswrk:VFPACKET.obj
 0009:00011eba       @VfPacketCreateAndLock@4   005b8eba f   ntoswrk:VFPACKET.obj
 0009:00011f46       @IovpSessionDataAdvance@16 005b8f46 f   ntoswrk:SESSNIRP.obj
 0009:00011f58       @IovpSessionDataDereference@4 005b8f58 f   ntoswrk:SESSNIRP.obj
 0009:00011f8c       @IovpSessionDataReference@4 005b8f8c f   ntoswrk:SESSNIRP.obj
 0009:00011fa8       @IovpSessionDataClose@4    005b8fa8 f   ntoswrk:SESSNIRP.obj
 0009:00011fbc       _IovpSessionDataDeterminePolicy@16 005b8fbc f   ntoswrk:SESSNIRP.obj
 0009:0001202a       @IovpSessionDataBufferIO@8 005b902a f   ntoswrk:SESSNIRP.obj
 0009:000120fa       @IovpSessionDataUnbufferIO@8 005b90fa f   ntoswrk:SESSNIRP.obj
 0009:00012172       @IovpSessionDataAttachSurrogate@8 005b9172 f   ntoswrk:SESSNIRP.obj
 0009:00012306       @IovpSessionDataFinalizeSurrogate@12 005b9306 f   ntoswrk:SESSNIRP.obj
 0009:000123be       @IovpSessionDataCreate@12  005b93be f   ntoswrk:SESSNIRP.obj
 0009:0001250c       @ViIrpDatabaseFindPointer@8 005b950c f   ntoswrk:VFIRPDB.obj
 0009:00012540       @VfIrpDatabaseEntryAcquireLock@4 005b9540 f   ntoswrk:VFIRPDB.obj
 0009:0001256c       @VfIrpDatabaseEntryReference@8 005b956c f   ntoswrk:VFIRPDB.obj
 0009:00012586       @VfIrpDatabaseEntryDereference@8 005b9586 f   ntoswrk:VFIRPDB.obj
 0009:000125cc       @VfIrpDatabaseEntryAppendToChain@8 005b95cc f   ntoswrk:VFIRPDB.obj
 0009:000125f8       @VfIrpDatabaseEntryRemoveFromChain@4 005b95f8 f   ntoswrk:VFIRPDB.obj
 0009:00012616       @VfIrpDatabaseEntryGetChainPrevious@4 005b9616 f   ntoswrk:VFIRPDB.obj
 0009:0001262a       @VfIrpDatabaseEntryGetChainNext@4 005b962a f   ntoswrk:VFIRPDB.obj
 0009:00012642       @VfIrpDatabaseEntryReleaseLock@4 005b9642 f   ntoswrk:VFIRPDB.obj
 0009:00012712       @VfIrpDatabaseEntryFindAndLock@4 005b9712 f   ntoswrk:VFIRPDB.obj
 0009:00012790       @VfIrpDatabaseEntryInsertAndLock@12 005b9790 f   ntoswrk:VFIRPDB.obj
 0009:00012852       _ViFilterAddDevice@8       005b9852 f   ntoswrk:VFFILTER.obj
 0009:00012860       _ViFilterStartCompletionRoutine@12 005b9860 f   ntoswrk:VFFILTER.obj
 0009:00012892       _ViFilterDeviceUsageNotificationCompletionRoutine@12 005b9892 f   ntoswrk:VFFILTER.obj
 0009:000128c4       _ViFilterDispatchPower@8   005b98c4 f   ntoswrk:VFFILTER.obj
 0009:00012902       _ViFilterDispatchGeneric@8 005b9902 f   ntoswrk:VFFILTER.obj
 0009:00012936       _ViFilterDispatchPnp@8     005b9936 f   ntoswrk:VFFILTER.obj
 0009:00012a18       _VfFilterIsVerifierFilterObject@4 005b9a18 f   ntoswrk:VFFILTER.obj
 0009:00012a38       _ViFilterDriverEntry@8     005b9a38 f   ntoswrk:VFFILTER.obj
 0009:00012a7c       _VfFilterAttach@8          005b9a7c f   ntoswrk:VFFILTER.obj
 0009:00012b6e       _VfUtilIsMemoryRangeReadable@12 005b9b6e f   ntoswrk:VFUTIL.obj
 0009:00012bfa       _VfSetVerifierEnabled@4    005b9bfa f   ntoswrk:VFUTIL.obj
 0009:00012c30       @ViGenericDumpIrpStack@4   005b9c30 f   ntoswrk:VFGENERIC.obj
 0009:00012c70       @ViGenericVerifyNewRequest@24 005b9c70 f   ntoswrk:VFGENERIC.obj
 0009:00012ccc       @ViGenericVerifyIrpStackDownward@28 005b9ccc f   ntoswrk:VFGENERIC.obj
 0009:00012e5e       @ViGenericVerifyIrpStackUpward@24 005b9e5e f   ntoswrk:VFGENERIC.obj
 0009:00012f6e       @ViGenericIsValidIrpStatus@8 005b9f6e f   ntoswrk:VFGENERIC.obj
 0009:00012fe6       @ViGenericIsNewRequest@8   005b9fe6 f   ntoswrk:VFGENERIC.obj
 0009:00013004       @ViGenericVerifyNewIrp@20  005ba004 f   ntoswrk:VFGENERIC.obj
 0009:00013074       _VfFilterInit@0            005ba074 f   ntoswrk:VFFILTER.obj
 0009:00013074       @ViGenericVerifyFinalIrpStack@8 005ba074 f   ntoswrk:VFGENERIC.obj
 0009:0001307a       @ViGenericBuildIrpLogEntry@16 005ba07a f   ntoswrk:VFGENERIC.obj
 0009:000130e2       @VfWmiVerifyNewRequest@24  005ba0e2 f   ntoswrk:VFWMI.obj
 0009:00013124       @VfWmiVerifyIrpStackDownward@28 005ba124 f   ntoswrk:VFWMI.obj
 0009:0001319a       @VfWmiVerifyIrpStackUpward@24 005ba19a f   ntoswrk:VFWMI.obj
 0009:00013224       @VfWmiDumpIrpStack@4       005ba224 f   ntoswrk:VFWMI.obj
 0009:00013262       @VfWmiTestStartedPdoStack@4 005ba262 f   ntoswrk:VFWMI.obj
 0009:000132be       @VfPowerVerifyNewRequest@24 005ba2be f   ntoswrk:VFPOWER.obj
 0009:00013300       @VfPowerVerifyIrpStackDownward@28 005ba300 f   ntoswrk:VFPOWER.obj
 0009:000133ec       @VfPowerVerifyIrpStackUpward@24 005ba3ec f   ntoswrk:VFPOWER.obj
 0009:00013508       @VfPowerDumpIrpStack@4     005ba508 f   ntoswrk:VFPOWER.obj
 0009:000135ac       @VfPowerIsSystemRestrictedIrp@4 005ba5ac f   ntoswrk:VFPOWER.obj
 0009:000135c2       @VfPowerTestStartedPdoStack@4 005ba5c2 f   ntoswrk:VFPOWER.obj
 0009:0001361a       @VfPnpVerifyNewRequest@24  005ba61a f   ntoswrk:VFPNP.obj
 0009:0001398c       @VfPnpDumpIrpStack@4       005ba98c f   ntoswrk:VFPNP.obj
 0009:00013b28       @VfPnpIsSystemRestrictedIrp@4 005bab28 f   ntoswrk:VFPNP.obj
 0009:00013ba2       @VfPnpAdvanceIrpStatus@12  005baba2 f   ntoswrk:VFPNP.obj
 0009:00013bd0       @VfPnpTestStartedPdoStack@4 005babd0 f   ntoswrk:VFPNP.obj
 0009:00013d50       _ViPnpVerifyMinorWasProcessedProperly@24 005bad50 f   ntoswrk:VFPNP.obj
 0009:00013fc6       @VfPnpVerifyIrpStackDownward@28 005bafc6 f   ntoswrk:VFPNP.obj
 0009:0001412e       @VfPnpVerifyIrpStackUpward@24 005bb12e f   ntoswrk:VFPNP.obj
 0009:00014406       @VfRandomGetNumber@8       005bb406 f   ntoswrk:VFRANDOM.obj
 0009:0001443a       _ObvUtilStartObRefMonitoring@4 005bb43a f   ntoswrk:OBVUTIL.obj
 0009:00014446       _ObvUtilStopObRefMonitoring@8 005bb446 f   ntoswrk:OBVUTIL.obj
 0009:00014452       _KevUtilAddressToFileHeader@16 005bb452 f   ke:kevutil.obj
 000a:00000006       _ExpDebuggerWorker@4       005bc006 f   ex:worker.obj
 000a:000000d6       _KdEnterDebugger@8         005bc0d6 f   ntoswrk:KDAPI.obj
 000a:00000168       _KdExitDebugger@4          005bc168 f   ntoswrk:KDAPI.obj
 000a:000001ea       _KdpTimeSlipDpcRoutine@16  005bc1ea f   ntoswrk:KDAPI.obj
 000a:00000224       _KdpTimeSlipWork@4         005bc224 f   ntoswrk:KDAPI.obj
 000a:0000028e       _InternalBreakpointCheck@16 005bc28e f   ntoswrk:KDAPI.obj
 000a:000002e8       _KdSetInternalBreakpoint@4 005bc2e8 f   ntoswrk:KDAPI.obj
 000a:00000402       _KdGetInternalBreakpoint@4 005bc402 f   ntoswrk:KDAPI.obj
 000a:000004bc       _KdpReadVirtualMemory@12   005bc4bc f   ntoswrk:KDAPI.obj
 000a:00000526       _KdpWriteVirtualMemory@12  005bc526 f   ntoswrk:KDAPI.obj
 000a:00000574       _KdpGetContext@12          005bc574 f   ntoswrk:KDAPI.obj
 000a:000005fc       _KdpSetContext@12          005bc5fc f   ntoswrk:KDAPI.obj
 000a:00000680       _KdpWriteBreakpoint@12     005bc680 f   ntoswrk:KDAPI.obj
 000a:000006ca       _KdpRestoreBreakpoint@12   005bc6ca f   ntoswrk:KDAPI.obj
 000a:00000712       _SymNumFor@4               005bc712 f   ntoswrk:KDAPI.obj
 000a:00000748       _PotentialNewSymbol@4      005bc748 f   ntoswrk:KDAPI.obj
 000a:00000806       _DumpTraceData@4           005bc806 f   ntoswrk:KDAPI.obj
 000a:00000838       _TraceDataRecordCallInfo@12 005bc838 f   ntoswrk:KDAPI.obj
 000a:000008ec       _SkippingWhichBP@8         005bc8ec f   ntoswrk:KDAPI.obj
 000a:00000936       _KdSetSpecialCall@8        005bc936 f   ntoswrk:KDAPI.obj
 000a:0000098a       _KdpReadPhysicalMemory@12  005bc98a f   ntoswrk:KDAPI.obj
 000a:00000a0c       _KdpWritePhysicalMemory@12 005bca0c f   ntoswrk:KDAPI.obj
 000a:00000a72       _KdpReadControlSpace@12    005bca72 f   ntoswrk:KDAPI.obj
 000a:00000adc       _KdpWriteControlSpace@12   005bcadc f   ntoswrk:KDAPI.obj
 000a:00000b32       _KdpReadIoSpace@12         005bcb32 f   ntoswrk:KDAPI.obj
 000a:00000b82       _KdpWriteIoSpace@12        005bcb82 f   ntoswrk:KDAPI.obj
 000a:00000bd0       _KdpReadIoSpaceExtended@12 005bcbd0 f   ntoswrk:KDAPI.obj
 000a:00000c24       _KdpWriteIoSpaceExtended@12 005bcc24 f   ntoswrk:KDAPI.obj
 000a:00000c74       _KdpReadMachineSpecificRegister@12 005bcc74 f   ntoswrk:KDAPI.obj
 000a:00000cbe       _KdpWriteMachineSpecificRegister@12 005bccbe f   ntoswrk:KDAPI.obj
 000a:00000d08       _KdpProcessInternalBreakpoint@4 005bcd08 f   ntoswrk:KDAPI.obj
 000a:00000d64       _KdpNotSupported@4         005bcd64 f   ntoswrk:KDAPI.obj
 000a:00000d9a       _KdpCauseBugCheck@4        005bcd9a f   ntoswrk:KDAPI.obj
 000a:00000db0       _KdpWriteBreakPointEx@12   005bcdb0 f   ntoswrk:KDAPI.obj
 000a:00000ef0       _KdpRestoreBreakPointEx@12 005bcef0 f   ntoswrk:KDAPI.obj
 000a:00000f98       _KdpSearchMemory@12        005bcf98 f   ntoswrk:KDAPI.obj
 000a:00001122       _KdpSearchHammingDistance@8 005bd122 f   ntoswrk:KDAPI.obj
 000a:00001144       _KdpSearchPhysicalPage@20  005bd144 f   ntoswrk:KDAPI.obj
 000a:00001264       _KdpSearchPhysicalPageRange@4 005bd264 f   ntoswrk:KDAPI.obj
 000a:000012c4       _KdpFillMemory@12          005bd2c4 f   ntoswrk:KDAPI.obj
 000a:0000139c       _KdpQueryMemory@8          005bd39c f   ntoswrk:KDAPI.obj
 000a:0000140c       _KdpSysGetVersion@4        005bd40c f   ntoswrk:KDAPI.obj
 000a:0000142a       _KdpSysReadBusData@28      005bd42a f   ntoswrk:KDAPI.obj
 000a:00001460       _KdpSysWriteBusData@28     005bd460 f   ntoswrk:KDAPI.obj
 000a:00001496       _KdpSysCheckLowMemory@4    005bd496 f   ntoswrk:KDAPI.obj
 000a:000014ea       _KdpSendTraceData@4        005bd4ea f   ntoswrk:KDAPI.obj
 000a:0000157a       _KdReportTraceData@8       005bd57a f   ntoswrk:KDAPI.obj
 000a:000015ca       _KdpCheckTracePoint@8      005bd5ca f   ntoswrk:KDAPI.obj
 000a:000019e2       _KdpGetBusData@12          005bd9e2 f   ntoswrk:KDAPI.obj
 000a:00001a4e       _KdpSetBusData@12          005bda4e f   ntoswrk:KDAPI.obj
 000a:00001aa4       _KdpGetVersion@4           005bdaa4 f   ntoswrk:KDAPI.obj
 000a:00001ae4       _KdpCheckLowMemory@4       005bdae4 f   ntoswrk:KDAPI.obj
 000a:00001b1c       _KdpSendWaitContinue@16    005bdb1c f   ntoswrk:KDAPI.obj
 000a:00001f16       _KdpReportExceptionStateChange@12 005bdf16 f   ntoswrk:KDAPI.obj
 000a:00001fae       _KdpReportLoadSymbolsStateChange@16 005bdfae f   ntoswrk:KDAPI.obj
 000a:0000209c       _KdpReportCommandStringStateChange@12 005be09c f   ntoswrk:KDAPI.obj
 000a:00002192       _KdUpdateDataBlock@0       005be192 f   ntoswrk:KDINIT.obj
 000a:000021aa       _KdRegisterDebuggerDataBlock@12 005be1aa f   ntoswrk:KDINIT.obj
 000a:00002258       _KdInitSystem@8            005be258 f   ntoswrk:KDINIT.obj
 000a:000025fe       _KdpAddBreakpoint@4        005be5fe f   ntoswrk:KDBREAK.obj
 000a:0000270e       _KdpLowWriteContent@4      005be70e f   ntoswrk:KDBREAK.obj
 000a:00002772       _KdpDeleteBreakpoint@4     005be772 f   ntoswrk:KDBREAK.obj
 000a:000027bc       _KdpDeleteBreakpointRange@8 005be7bc f   ntoswrk:KDBREAK.obj
 000a:00002804       _KdpSuspendBreakpoint@4    005be804 f   ntoswrk:KDBREAK.obj
 000a:00002834       _KdpSuspendAllBreakpoints@0 005be834 f   ntoswrk:KDBREAK.obj
 000a:00002852       _KdpLowRestoreBreakpoint@4 005be852 f   ntoswrk:KDBREAK.obj
 000a:000028c2       _KdpRestoreAllBreakpoints@0 005be8c2 f   ntoswrk:KDBREAK.obj
 000a:000028f8       _KdpTrap@24                005be8f8 f   ntoswrk:KDTRAP.obj
 000a:00002a0e       _KdIsThisAKdTrap@12        005bea0e f   ntoswrk:KDTRAP.obj
 000a:00002a38       _KdCreateRemoteFile@32     005bea38 f   ntoswrk:FILE.obj
 000a:00002bfe       _KdReadRemoteFile@24       005bebfe f   ntoswrk:FILE.obj
 000a:00002d06       _KdCloseRemoteFile@4       005bed06 f   ntoswrk:FILE.obj
 000a:00002e28       _KdPullRemoteFile@16       005bee28 f   ntoswrk:FILE.obj
 000a:00002fb0       _KdpQueryPerformanceCounter@4 005befb0 f   ntoswrk:KDCMSUP.obj
 000a:00002fd4       _KdpQuickMoveMemory@12     005befd4 f   ntoswrk:KDMOVE.obj
 000a:00002ff8       _KdpCopyMemoryChunks@28    005beff8 f   ntoswrk:KDMOVE.obj
 000a:00003092       _regValue@8                005bf092 f   ntoswrk:KDCPUAPI.obj
 000a:00003128       _KdpIsSpecialCall@16       005bf128 f   ntoswrk:KDCPUAPI.obj
 000a:0000336e       _KdpGetReturnAddress@4     005bf36e f   ntoswrk:KDCPUAPI.obj
 000a:000033a2       _KdpAllowDisable@0         005bf3a2 f   ntoswrk:KDCPUAPI.obj
 000a:000033d2       _KdpSetContextState@8      005bf3d2 f   ntoswrk:KDCPUAPI.obj
 000a:00003466       _KdpSetStateChange@16      005bf466 f   ntoswrk:KDCPUAPI.obj
 000a:0000347e       _KdpGetStateChange@8       005bf47e f   ntoswrk:KDCPUAPI.obj
 000a:000034f0       _KdpSysReadControlSpace@24 005bf4f0 f   ntoswrk:KDCPUAPI.obj
 000a:0000355a       _KdpSysWriteControlSpace@24 005bf55a f   ntoswrk:KDCPUAPI.obj
 000a:000035ba       _KdpSysReadIoSpace@32      005bf5ba f   ntoswrk:KDCPUAPI.obj
 000a:00003670       _KdpSysWriteIoSpace@32     005bf670 f   ntoswrk:KDCPUAPI.obj
 000a:0000372c       _KdpSysReadMsr@8           005bf72c f   ntoswrk:KDCPUAPI.obj
 000a:00003778       _KdpSysWriteMsr@8          005bf778 f   ntoswrk:KDCPUAPI.obj
 000a:000037ba       _KdpGetCallNextOffset@8    005bf7ba f   ntoswrk:KDCPUAPI.obj
 000a:0000384a       _KdpLevelChange@12         005bf84a f   ntoswrk:KDCPUAPI.obj
 000a:00003978       _KdpPrintString@4          005bf978 f   ntoswrk:KDDBGIO.obj
 000a:00003a0c       _KdpPromptString@8         005bfa0c f   ntoswrk:KDDBGIO.obj
 000a:00003b02       _KdpPrint@32               005bfb02 f   ntoswrk:PRINT.obj
 000a:00003c18       _KdpPrompt@28              005bfc18 f   ntoswrk:PRINT.obj
 000a:00003d42       _KdpSymbol@28              005bfd42 f   ntoswrk:PRINT.obj
 000a:00003db4       _KdpCommandString@24       005bfdb4 f   ntoswrk:PRINT.obj
 000b:00000006       _PerfInfoReserveBytes@12   005c0006 f   perf:logging.obj
 000b:0000005a       _PerfInfoLogBytes@12       005c005a f   perf:logging.obj
 000b:000000a4       @PerfProfileInterrupt@8    005c00a4 f   perf:hooks.obj
 000b:000001b0       @PerfInfoLogInterrupt@16   005c01b0 f   perf:hooks.obj
 000b:000001e2       _PerfInfoLogBytesAndUnicodeString@16 005c01e2 f   perf:hooks.obj
 000b:0000027a       _PerfInfoLogFileName@8     005c027a f   perf:hooks.obj
 000b:000002c2       _PerfInfoCalcHashValue@8   005c02c2 f   perf:hooks.obj
 000b:000002fe       _PerfInfoAddToFileHash@8   005c02fe f   perf:hooks.obj
 000b:00000364       _PerfInfoFileNameRunDown@0 005c0364 f   perf:hooks.obj
 000b:000004ce       _PerfInfoProcessRunDown@0  005c04ce f   perf:hooks.obj
 000b:00000672       _PerfInfoSysModuleRunDown@0 005c0672 f   perf:hooks.obj
 000b:00000790       _WmiSetMark@8              005c0790 f   wmi:traceapi.obj
 000b:0000081e       @WmiTraceUserMessage@8     005c081e f   wmi:traceapi.obj
 000b:0000089e       @WmipNotifyLogger@4        005c089e f   wmi:tracesup.obj
 000b:000008cc       _WmipAllocateFreeBuffers@8 005c08cc f   wmi:tracelog.obj
 000b:0000097a       @WmipReleaseTraceBuffer@8  005c097a f   wmi:tracelog.obj
 000b:000009c0       @WmiReleaseKernelBuffer@4  005c09c0 f   wmi:tracelog.obj
 000b:000009e2       @WmipResetBufferHeader@12  005c09e2 f   wmi:tracelog.obj
 000b:00000a14       @WmipPushDirtyBuffer@8     005c0a14 f   wmi:tracelog.obj
 000b:00000a4a       @WmipPushFreeBuffer@8      005c0a4a f   wmi:tracelog.obj
 000b:00000a80       @WmipPopFreeContextSwapBuffer@4 005c0a80 f   wmi:tracelog.obj
 000b:00000b0c       @WmipPushDirtyContextSwapBuffer@8 005c0b0c f   wmi:tracelog.obj
 000b:00000b40       _WmipGetFreeBuffer@4       005c0b40 f   wmi:tracelog.obj
 000b:00000bd4       _WmipFlushBuffer@12        005c0bd4 f   wmi:tracelog.obj
 000b:00000dc6       _WmipFlushBuffersWithMarker@12 005c0dc6 f   wmi:tracelog.obj
 000b:00000f4e       _WmipSwitchBuffer@16       005c0f4e f   wmi:tracelog.obj
 000b:0000104c       @WmipReserveTraceBuffer@16 005c104c f   wmi:tracelog.obj
 000b:00001186       @WmiReserveWithSystemHeader@16 005c1186 f   wmi:tracelog.obj
 000b:00001224       @WmiReserveWithPerfHeader@8 005c1224 f   wmi:tracelog.obj
 000b:000012a4       _WmipTraceNetwork@16       005c12a4 f   wmi:callouts.obj
 000b:000012fc       @WmiTraceContextSwap@8     005c12fc f   wmi:callouts.obj
 000b:000013ec       @WmipIsLoggerOn@4          005c13ec f   wmi:callouts.obj
 000b:0000140c       @WmipTracePageFault@12     005c140c f   wmi:callouts.obj
 000b:000014a4       _WmipTraceVolMgr@8         005c14a4 f   wmi:callouts.obj
 000b:000014f2       _WmipTraceIo@12            005c14f2 f   wmi:callouts.obj
 000b:00001708       _IoPerfReset@0             005c1708 f   ntoswrk:IOPERF.obj
 000b:00001734       @IoPerfCallDriver@12       005c1734 f   ntoswrk:IOPERF.obj
 000b:0000182a       _IopPerfLogFileCreate@8    005c182a f   ntoswrk:IOPERF.obj
 000b:0000184c       _IoPerfInit@0              005c184c f   ntoswrk:IOPERF.obj
 000b:0000187c       _ObPerfDumpHandleEntry@12  005c187c f   ntoswrk:OBPERF.obj
 000b:000018aa       _ObPerfHandleTableWalk@8   005c18aa f   ntoswrk:OBPERF.obj
 000b:000018ea       _CcPerfFileRunDown@4       005c18ea f   cache:ccperf.obj
 000c:00000006       _HdlspPutData@8            005c2006 f   ntoswrk:HDLSTERM.obj
 000c:00000102       _HdlspAddLogEntry@4        005c2102 f   ntoswrk:HDLSTERM.obj
 000c:00000284       _HdlspSetBlueScreenInformation@8 005c2284 f   ntoswrk:HDLSTERM.obj
 000c:000004ac       _HdlspSendStringAtBaud@4   005c24ac f   ntoswrk:HDLSTERM.obj
 000c:000004e0       _HdlspEnableTerminal@4     005c24e0 f   ntoswrk:HDLSTERM.obj
 000c:0000059e       _HdlspPutString@4          005c259e f   ntoswrk:HDLSTERM.obj
 000c:000006e8       _HdlspGetLine@8            005c26e8 f   ntoswrk:HDLSTERM.obj
 000c:000009b4       _HdlspPutMore@4            005c29b4 f   ntoswrk:HDLSTERM.obj
 000c:00000ac4       _HdlspSendBlueScreenInfo@4 005c2ac4 f   ntoswrk:HDLSTERM.obj
 000c:00000be8       _HdlspProcessDumpCommand@4 005c2be8 f   ntoswrk:HDLSTERM.obj
 000c:00000eb8       _HdlspBugCheckProcessing@0 005c2eb8 f   ntoswrk:HDLSTERM.obj
 000c:00001018       _HdlspDispatch@20          005c3018 f   ntoswrk:HDLSTERM.obj
 000c:00001b24       _HdlspKernelAddLogEntry@8  005c3b24 f   ntoswrk:HDLSTERM.obj
 000d:00000006       _MiExpandSpecialPool@8     005c4006 f   ntoswrk:SPECPOOL.obj
 000d:000000b0       _MiAllocateSpecialPool@16  005c40b0 f   ntoswrk:SPECPOOL.obj
 000d:00000572       _MmFreeSpecialPool@4       005c4572 f   ntoswrk:SPECPOOL.obj
 000d:000008f8       _MmQuerySpecialPoolBlockType@4 005c48f8 f   ntoswrk:SPECPOOL.obj
 000d:0000091e       _MiProtectSpecialPool@8    005c491e f   ntoswrk:SPECPOOL.obj
 000f:00000000       _CmpCallBackCount          005d2000     config:cmhook.obj
 000f:00000008       _CmpCallBackVector         005d2008     config:cmhook.obj
 000f:00000198       _CmpTypeCount              005d2198     config:cmdat.obj
 000f:00000240       _CmRegistryRootName        005d2240     config:cmdat.obj
 000f:00000248       _CmRegistryMachineName     005d2248     config:cmdat.obj
 000f:00000250       _CmRegistryMachineHardwareName 005d2250     config:cmdat.obj
 000f:00000258       _CmRegistryMachineHardwareDescriptionName 005d2258     config:cmdat.obj
 000f:00000260       _CmRegistryMachineHardwareDescriptionSystemName 005d2260     config:cmdat.obj
 000f:00000268       _CmRegistryMachineHardwareDeviceMapName 005d2268     config:cmdat.obj
 000f:00000270       _CmRegistryMachineHardwareResourceMapName 005d2270     config:cmdat.obj
 000f:00000278       _CmRegistryMachineHardwareOwnerMapName 005d2278     config:cmdat.obj
 000f:00000280       _CmRegistryMachineSystemName 005d2280     config:cmdat.obj
 000f:00000288       _CmRegistryMachineSystemCurrentControlSet 005d2288     config:cmdat.obj
 000f:00000290       _CmRegistryMachineSystemCurrentControlSetEnumName 005d2290     config:cmdat.obj
 000f:00000298       _CmRegistryMachineSystemCurrentControlSetEnumRootName 005d2298     config:cmdat.obj
 000f:000002a0       _CmRegistryMachineSystemCurrentControlSetServices 005d22a0     config:cmdat.obj
 000f:000002a8       _CmRegistryMachineSystemCurrentControlSetHardwareProfilesCurrent 005d22a8     config:cmdat.obj
 000f:000002b0       _CmRegistryMachineSystemCurrentControlSetControlClass 005d22b0     config:cmdat.obj
 000f:000002b8       _CmRegistryMachineSystemCurrentControlSetControlSafeBoot 005d22b8     config:cmdat.obj
 000f:000002c0       _CmRegistryMachineSystemCurrentControlSetControlSessionManagerMemoryManagement 005d22c0     config:cmdat.obj
 000f:000002c8       _CmRegistryMachineSystemCurrentControlSetControlBootLog 005d22c8     config:cmdat.obj
 000f:000002d0       _CmRegistryMachineSystemCurrentControlSetServicesEventLog 005d22d0     config:cmdat.obj
 000f:000002d8       _CmRegistryUserName        005d22d8     config:cmdat.obj
 000f:000002e0       _CmRegistrySystemCloneName 005d22e0     config:cmdat.obj
 000f:000002e8       _CmpSystemFileName         005d22e8     config:cmdat.obj
 000f:000002f0       _CmSymbolicLinkValueName   005d22f0     config:cmdat.obj
 000f:000002f8       _CmRegistryMachineSystemCurrentControlSetControlBiosInfo 005d22f8     config:cmdat.obj
 000f:00000300       _CmpMachineHiveList        005d2300     config:cmdat.obj
 000f:000003c4       _CmpMasterHive             005d23c4     config:cmdat.obj
 000f:000003c8       _CmpNoMasterCreates        005d23c8     config:cmdat.obj
 000f:000003cc       _CmpHiveListHead           005d23cc     config:cmdat.obj
 000f:000003d4       _CmpKeyObjectType          005d23d4     config:cmdat.obj
 000f:000003d8       _CmpNoWrite                005d23d8     config:cmdat.obj
 000f:000003d9       _CmFirstTime               005d23d9     config:cmdat.obj
 000f:000003da       _CmpSpecialBootCondition   005d23da     config:cmdat.obj
 000f:000003db       _CmBootAcceptFirstTime     005d23db     config:cmdat.obj
 000f:000003dc       _CmpMiniNTBoot             005d23dc     config:cmdat.obj
 000f:000003dd       _CmpShareSystemHives       005d23dd     config:cmdat.obj
 000f:000003de       _CmpSelfHeal               005d23de     config:cmdat.obj
 000f:000003e0       _CmRegistrySizeLimit       005d23e0     config:cmdat2.obj
 000f:000003e4       _CmRegistrySizeLimitLength 005d23e4     config:cmdat2.obj
 000f:000003e8       _CmRegistrySizeLimitType   005d23e8     config:cmdat2.obj
 000f:000003ec       _CmpGlobalQuotaAllowed     005d23ec     config:cmdat2.obj
 000f:000003f0       _CmpGlobalQuota            005d23f0     config:cmdat2.obj
 000f:000003f4       _CmpGlobalQuotaWarning     005d23f4     config:cmdat2.obj
 000f:000003f8       _CmpQuotaWarningPopupDisplayed 005d23f8     config:cmdat2.obj
 000f:000003f9       _CmpSystemQuotaWarningPopupDisplayed 005d23f9     config:cmdat2.obj
 000f:000003fa       _CmpDiskFullWorkerPopupDisplayed 005d23fa     config:cmdat2.obj
 000f:000003fb       _CmpCannotWriteConfiguration 005d23fb     config:cmdat2.obj
 000f:000003fc       _CmpGlobalQuotaUsed        005d23fc     config:cmdat2.obj
 000f:00000400       _CmpProfileLoaded          005d2400     config:cmdat2.obj
 000f:00000404       _CmpStashBuffer            005d2404     config:cmdat2.obj
 000f:00000408       _CmpStashBufferSize        005d2408     config:cmdat2.obj
 000f:0000040c       _HvShutdownComplete        005d240c     config:cmdat2.obj
 000f:00000410       _CmpKeyControlBlockRoot    005d2410     config:cmdat2.obj
 000f:00000414       _CmpRegistryRootHandle     005d2414     config:cmdat2.obj
 000f:00000418       _CmCheckRegistryDebug      005d2418     config:cmdat2.obj
 000f:00000420       _CmRegistryIODebug         005d2420     config:cmdat2.obj
 000f:0000042c       _CmpCheckRegistry2Debug    005d242c     config:cmdat2.obj
 000f:00000434       _CmpCheckKeyDebug          005d2434     config:cmdat2.obj
 000f:0000044c       _CmpCheckValueListDebug    005d244c     config:cmdat2.obj
 000f:00000464       _CmpUsedStorage            005d2464     config:cmdat2.obj
 000f:00000468       _HvCheckHiveDebug          005d2468     config:cmdat2.obj
 000f:0000047c       _HvCheckBinDebug           005d247c     config:cmdat2.obj
 000f:00000488       _HvRecoverDataDebug        005d2488     config:cmdat2.obj
 000f:00000494       _CmpCheckHiveIndex         005d2494     config:cmdat2.obj
 000f:00000498       _CmpTraceRoutine           005d2498     config:cmwmi.obj
 000f:0000049c       _perftouchbuffer           005d249c     config:cmwrapr.obj
 000f:000004a0       _ExpUuidLastTimeAllocated  005d24a0     ex:uuid.obj
 000f:000004a8       _ExpUuidCacheValid         005d24a8     ex:uuid.obj
 000f:000004b0       _ExpUuidCachedValues       005d24b0     ex:uuid.obj
 000f:000004c8       _ExpUuidSequenceNumber     005d24c8     ex:uuid.obj
 000f:000004cc       _ExpUuidSequenceNumberValid 005d24cc     ex:uuid.obj
 000f:000004cd       _ExpUuidSequenceNumberNotSaved 005d24cd     ex:uuid.obj
 000f:000004d0       _TunnelMaxEntries          005d24d0     fsrtl:Tunnel.obj
 000f:000004d4       _TunnelMaxAge              005d24d4     fsrtl:Tunnel.obj
 000f:000004d8       _FsRtlPagingIoResourceSelector 005d24d8     fsrtl:FsRtlPc.obj
 000f:000004dc       _FsRtlSafeExtensions       005d24dc     fsrtl:FsRtlPc.obj
 000f:000004e0       _FsRtlpDRD                 005d24e0     fsrtl:Unc.obj
 000f:000004f4       _FsRtlpRedirs              005d24f4     fsrtl:Unc.obj
 000f:00000520       _IopLoaderBlock            005d2520     iomgr:iodata.obj
 000f:00000524       _IoArcBootDeviceName       005d2524     iomgr:iodata.obj
 000f:0000052c       _IoArcHalDeviceName        005d252c     iomgr:iodata.obj
 000f:00000534       _IoLoaderArcBootDeviceName 005d2534     iomgr:iodata.obj
 000f:00000538       _ExVdmOpcodeDispatchCounts 005d2538     ke:instemul.obj
 000f:000005c0       _ExVdmSegmentNotPresent    005d25c0     ke:instemul.obj
 000f:000005c4       OpcodeDispatchV86          005d25c4     ke:emv86.obj
 000f:0000064c       _LpcpNextMessageId         005d264c     lpc:lpcinit.obj
 000f:00000650       _LpcpNextCallbackId        005d2650     lpc:lpcinit.obj
 000f:00000654       _LpcpTotalNumberOfMessages 005d2654     lpc:lpcqueue.obj
 000f:00000658       _LpcpMaxMessageSize        005d2658     lpc:lpcqueue.obj
 000f:0000065c       _MmMakeSectionAccess       005d265c     mm:miglobal.obj
 000f:0000067c       _MmMakeFileAccess          005d267c     mm:miglobal.obj
 000f:0000069c       _MiSessionIdBitmap         005d269c     mm:session.obj
 000f:000006a0       _Nls844UnicodeUpcaseTable  005d26a0     ntosrtl:nlsxlat.obj
 000f:000006a4       _Nls844UnicodeLowercaseTable 005d26a4     ntosrtl:nlsxlat.obj
 000f:000006a8       _NlsLeadByteInfoTable      005d26a8     ntosrtl:nlsxlat.obj
 000f:000008a8       _NlsAnsiCodePage           005d28a8     ntosrtl:nlsxlat.obj
 000f:000008ac       _NlsOemCodePage            005d28ac     ntosrtl:nlsxlat.obj
 000f:000008b0       _NlsMbAnsiCodePageTables   005d28b0     ntosrtl:nlsxlat.obj
 000f:000008b4       _NlsAnsiToUnicodeData      005d28b4     ntosrtl:nlsxlat.obj
 000f:000008b8       _NlsUnicodeToAnsiData      005d28b8     ntosrtl:nlsxlat.obj
 000f:000008bc       _NlsUnicodeToMbAnsiData    005d28bc     ntosrtl:nlsxlat.obj
 000f:000008c0       _NlsMbCodePageTag          005d28c0     ntosrtl:nlsxlat.obj
 000f:000008c8       _NlsOemLeadByteInfoTable   005d28c8     ntosrtl:nlsxlat.obj
 000f:00000ac8       _NlsMbOemCodePageTables    005d2ac8     ntosrtl:nlsxlat.obj
 000f:00000acc       _NlsOemToUnicodeData       005d2acc     ntosrtl:nlsxlat.obj
 000f:00000ad0       _NlsUnicodeToOemData       005d2ad0     ntosrtl:nlsxlat.obj
 000f:00000ad4       _NlsUnicodeToMbOemData     005d2ad4     ntosrtl:nlsxlat.obj
 000f:00000ad8       _NlsMbOemCodePageTag       005d2ad8     ntosrtl:nlsxlat.obj
 000f:00000adc       _UnicodeDefaultChar        005d2adc     ntosrtl:nlsxlat.obj
 000f:00000ae0       _OemDefaultChar            005d2ae0     ntosrtl:nlsxlat.obj
 000f:00000ae4       _OemTransUniDefaultChar    005d2ae4     ntosrtl:nlsxlat.obj
 000f:00000ae8       _RtlpRandomConstantVector  005d2ae8     ntosrtl:rtldata.obj
 000f:00000ce8       _RtlpRandomExAuxVarY       005d2ce8     ntosrtl:rtldata.obj
 000f:00000cf0       _RtlpRandomExConstantVector 005d2cf0     ntosrtl:rtldata.obj
 000f:00000ef0       _SepFilterPrivileges       005d2ef0     ntosse:seaudit.obj
 000f:00000ef8       _SeNullSid                 005d2ef8     ntosse:seglobal.obj
 000f:00000efc       _SeWorldSid                005d2efc     ntosse:seglobal.obj
 000f:00000f00       _SeLocalSid                005d2f00     ntosse:seglobal.obj
 000f:00000f04       _SeCreatorOwnerSid         005d2f04     ntosse:seglobal.obj
 000f:00000f08       _SeCreatorGroupSid         005d2f08     ntosse:seglobal.obj
 000f:00000f0c       _SeCreatorGroupServerSid   005d2f0c     ntosse:seglobal.obj
 000f:00000f10       _SeCreatorOwnerServerSid   005d2f10     ntosse:seglobal.obj
 000f:00000f14       _SeNtAuthoritySid          005d2f14     ntosse:seglobal.obj
 000f:00000f18       _SeDialupSid               005d2f18     ntosse:seglobal.obj
 000f:00000f1c       _SeNetworkSid              005d2f1c     ntosse:seglobal.obj
 000f:00000f20       _SeBatchSid                005d2f20     ntosse:seglobal.obj
 000f:00000f24       _SeInteractiveSid          005d2f24     ntosse:seglobal.obj
 000f:00000f28       _SeServiceSid              005d2f28     ntosse:seglobal.obj
 000f:00000f2c       _SePrincipalSelfSid        005d2f2c     ntosse:seglobal.obj
 000f:00000f30       _SeLocalSystemSid          005d2f30     ntosse:seglobal.obj
 000f:00000f34       _SeAuthenticatedUsersSid   005d2f34     ntosse:seglobal.obj
 000f:00000f38       _SeAliasAdminsSid          005d2f38     ntosse:seglobal.obj
 000f:00000f3c       _SeRestrictedSid           005d2f3c     ntosse:seglobal.obj
 000f:00000f40       _SeAliasUsersSid           005d2f40     ntosse:seglobal.obj
 000f:00000f44       _SeAliasGuestsSid          005d2f44     ntosse:seglobal.obj
 000f:00000f48       _SeAliasPowerUsersSid      005d2f48     ntosse:seglobal.obj
 000f:00000f4c       _SeAliasAccountOpsSid      005d2f4c     ntosse:seglobal.obj
 000f:00000f50       _SeAliasSystemOpsSid       005d2f50     ntosse:seglobal.obj
 000f:00000f54       _SeAliasPrintOpsSid        005d2f54     ntosse:seglobal.obj
 000f:00000f58       _SeAliasBackupOpsSid       005d2f58     ntosse:seglobal.obj
 000f:00000f5c       _SeAnonymousLogonSid       005d2f5c     ntosse:seglobal.obj
 000f:00000f60       _SeLocalServiceSid         005d2f60     ntosse:seglobal.obj
 000f:00000f64       _SeNetworkServiceSid       005d2f64     ntosse:seglobal.obj
 000f:00000f68       _SeAnonymousLogonToken     005d2f68     ntosse:seglobal.obj
 000f:00000f6c       _SeAnonymousLogonTokenNoEveryone 005d2f6c     ntosse:seglobal.obj
 000f:00000f70       _SePublicDefaultSd         005d2f70     ntosse:seglobal.obj
 000f:00000f74       _SepPublicDefaultSd        005d2f74     ntosse:seglobal.obj
 000f:00000f88       _SePublicDefaultUnrestrictedSd 005d2f88     ntosse:seglobal.obj
 000f:00000f8c       _SepPublicDefaultUnrestrictedSd 005d2f8c     ntosse:seglobal.obj
 000f:00000fa0       _SePublicOpenUnrestrictedSd 005d2fa0     ntosse:seglobal.obj
 000f:00000fa4       _SepPublicOpenUnrestrictedSd 005d2fa4     ntosse:seglobal.obj
 000f:00000fb8       _SePublicOpenSd            005d2fb8     ntosse:seglobal.obj
 000f:00000fbc       _SepPublicOpenSd           005d2fbc     ntosse:seglobal.obj
 000f:00000fd0       _SeSystemDefaultSd         005d2fd0     ntosse:seglobal.obj
 000f:00000fd4       _SepSystemDefaultSd        005d2fd4     ntosse:seglobal.obj
 000f:00000fe8       _SeLocalServicePublicSd    005d2fe8     ntosse:seglobal.obj
 000f:00000fec       _SepLocalServicePublicSd   005d2fec     ntosse:seglobal.obj
 000f:00001000       _SepProcessAuditSd         005d3000     ntosse:seglobal.obj
 000f:00001004       _SepProcessAccessesToAudit 005d3004     ntosse:seglobal.obj
 000f:00001008       _SepImportantProcessSd     005d3008     ntosse:seglobal.obj
 000f:0000100c       _GenericMappingForMembershipCheck 005d300c     ntosse:seglobal.obj
 000f:0000101c       _SePublicDefaultDacl       005d301c     ntosse:seglobal.obj
 000f:00001020       _SePublicDefaultUnrestrictedDacl 005d3020     ntosse:seglobal.obj
 000f:00001024       _SePublicOpenDacl          005d3024     ntosse:seglobal.obj
 000f:00001028       _SePublicOpenUnrestrictedDacl 005d3028     ntosse:seglobal.obj
 000f:0000102c       _SeSystemDefaultDacl       005d302c     ntosse:seglobal.obj
 000f:00001030       _SeLocalServicePublicDacl  005d3030     ntosse:seglobal.obj
 000f:00001034       _SepPrimaryDomainSid       005d3034     ntosse:seglobal.obj
 000f:00001038       _SepPrimaryDomainAdminSid  005d3038     ntosse:seglobal.obj
 000f:0000103c       _SeCreateTokenPrivilege    005d303c     ntosse:seglobal.obj
 000f:00001044       _SeAssignPrimaryTokenPrivilege 005d3044     ntosse:seglobal.obj
 000f:0000104c       _SeLockMemoryPrivilege     005d304c     ntosse:seglobal.obj
 000f:00001054       _SeIncreaseQuotaPrivilege  005d3054     ntosse:seglobal.obj
 000f:0000105c       _SeUnsolicitedInputPrivilege 005d305c     ntosse:seglobal.obj
 000f:00001064       _SeTcbPrivilege            005d3064     ntosse:seglobal.obj
 000f:0000106c       _SeSecurityPrivilege       005d306c     ntosse:seglobal.obj
 000f:00001074       _SeTakeOwnershipPrivilege  005d3074     ntosse:seglobal.obj
 000f:0000107c       _SeLoadDriverPrivilege     005d307c     ntosse:seglobal.obj
 000f:00001084       _SeCreatePagefilePrivilege 005d3084     ntosse:seglobal.obj
 000f:0000108c       _SeIncreaseBasePriorityPrivilege 005d308c     ntosse:seglobal.obj
 000f:00001094       _SeSystemProfilePrivilege  005d3094     ntosse:seglobal.obj
 000f:0000109c       _SeSystemtimePrivilege     005d309c     ntosse:seglobal.obj
 000f:000010a4       _SeProfileSingleProcessPrivilege 005d30a4     ntosse:seglobal.obj
 000f:000010ac       _SeCreatePermanentPrivilege 005d30ac     ntosse:seglobal.obj
 000f:000010b4       _SeBackupPrivilege         005d30b4     ntosse:seglobal.obj
 000f:000010bc       _SeRestorePrivilege        005d30bc     ntosse:seglobal.obj
 000f:000010c4       _SeShutdownPrivilege       005d30c4     ntosse:seglobal.obj
 000f:000010cc       _SeDebugPrivilege          005d30cc     ntosse:seglobal.obj
 000f:000010d4       _SeAuditPrivilege          005d30d4     ntosse:seglobal.obj
 000f:000010dc       _SeSystemEnvironmentPrivilege 005d30dc     ntosse:seglobal.obj
 000f:000010e4       _SeChangeNotifyPrivilege   005d30e4     ntosse:seglobal.obj
 000f:000010ec       _SeRemoteShutdownPrivilege 005d30ec     ntosse:seglobal.obj
 000f:000010f4       _SeUndockPrivilege         005d30f4     ntosse:seglobal.obj
 000f:000010fc       _SeSyncAgentPrivilege      005d30fc     ntosse:seglobal.obj
 000f:00001104       _SeEnableDelegationPrivilege 005d3104     ntosse:seglobal.obj
 000f:0000110c       _SeManageVolumePrivilege   005d310c     ntosse:seglobal.obj
 000f:00001114       _SeImpersonatePrivilege    005d3114     ntosse:seglobal.obj
 000f:0000111c       _SeCreateGlobalPrivilege   005d311c     ntosse:seglobal.obj
 000f:00001124       _SeExports                 005d3124     ntosse:seglobal.obj
 000f:00001128       _SepExports                005d3128     ntosse:seglobal.obj
 000f:00001284       _SeAuditingState           005d3284     ntosse:seglobal.obj
 000f:00001296       _SepAdtAuditingEnabled     005d3296     ntosse:seglobal.obj
 000f:00001297       _SepCrashOnAuditFail       005d3297     ntosse:seglobal.obj
 000f:00001298       _SepLsaHandle              005d3298     ntosse:seglobal.obj
 000f:0000129c       _SepLsaQueue               005d329c     ntosse:seglobal.obj
 000f:000012a4       _SepLsaQueueLength         005d32a4     ntosse:seglobal.obj
 000f:000012a8       _SeFileSystemNotifyRoutinesHead 005d32a8     ntosse:rmlogon.obj
 000f:000012b0       _SeTokenObjectType         005d32b0     ntosse:token.obj
 000f:000012b8       _SepAdtLogInformation      005d32b8     ntosse:adtvars.obj
 000f:000012e0       _SepAdtMaxListLength       005d32e0     ntosse:adtvars.obj
 000f:000012e4       _SepAdtMinListLength       005d32e4     ntosse:adtvars.obj
 000f:000012e8       _SepAdtCurrentListLength   005d32e8     ntosse:adtvars.obj
 000f:000012ec       _SepAdtCountEventsDiscarded 005d32ec     ntosse:adtvars.obj
 000f:000012f0       _SepAdtDiscardingAudits    005d32f0     ntosse:adtvars.obj
 000f:000012f1       _SepAuditOptions           005d32f1     ntosse:adtvars.obj
 000f:000012f4       _SepAdtLsaDeadEvent        005d32f4     ntosse:adtvars.obj
 000f:000012f8       _SepRmLsaCallProcess       005d32f8     ntosse:rmvars.obj
 000f:00001300       _SepRmState                005d3300     ntosse:rmvars.obj
 000f:00001338       _SepLogonSessions          005d3338     ntosse:rmvars.obj
 000f:0000133c       _PspW32ProcessCallout      005d333c     ps:psquery.obj
 000f:00001340       _PspW32ThreadCallout       005d3340     ps:psquery.obj
 000f:00001344       _PspW32JobCallout          005d3344     ps:psquery.obj
 000f:00001348       _PsDefaultSystemLocaleId   005d3348     ps:create.obj
 000f:0000134c       _PsDefaultThreadLocaleId   005d334c     ps:create.obj
 000f:00001350       _PsDefaultUILanguageId     005d3350     ps:create.obj
 000f:00001354       _PsInstallUILanguageId     005d3354     ps:create.obj
 000f:00001358       _PsMinimumWorkingSet       005d3358     ps:create.obj
 000f:0000135c       _PsMaximumWorkingSet       005d335c     ps:create.obj
 000f:00001360       _PsImageNotifyEnabled      005d3360     ps:create.obj
 000f:00001364       _PspBBTNotifyRoutine       005d3364     ps:psdelete.obj
 000f:00001368       _PsContinueWaiting         005d3368     ps:psdelete.obj
 000f:0000136c       _PspUseJobSchedulingClasses 005d336c     ps:psinit.obj
 000f:00001370       _PspBootAccessToken        005d3370     ps:psinit.obj
 000f:00001374       _PspInitialSystemProcessHandle 005d3374     ps:psinit.obj
 000f:00001378       _PspSystemDll              005d3378     ps:psinit.obj
 000f:00001388       _PspJobTimeLimitsInterval  005d3388     ps:psjob.obj
 000f:00001390       _WmipLoggerCount           005d3390     wmi:tracesup.obj
 000f:00001394       _EtwpPageLockHandle        005d3394     wmi:tracesup.obj
 000f:00001398       _WmiWriteFailureLimit      005d3398     wmi:tracelog.obj
 000f:0000139c       _WmipFileSystemReady       005d339c     wmi:tracelog.obj
 000f:000013a0       _WmipGlobalBufferCallback  005d33a0     wmi:tracelog.obj
 000f:000013a4       _WmipGlobalCallbackContext 005d33a4     wmi:tracelog.obj
 000f:000013a8       _WmipKernelLoggerStartedOnce 005d33a8     wmi:callouts.obj
 000f:000013ac       _WmipTraceProcessRef       005d33ac     wmi:callouts.obj
 000f:000013b0       _WmipDiskIoNotify          005d33b0     wmi:callouts.obj
 000f:000013b4       _WmipTdiIoNotify           005d33b4     wmi:callouts.obj
 000f:000013b8       _WmipVolMgrIoNotify        005d33b8     wmi:callouts.obj
 000f:000013bc       _WmipCoalesceCorrectedErrorInterval 005d33bc     wmi:mca.obj
 000f:000013c0       _WmipSingleBitEccErrorThreshold 005d33c0     wmi:mca.obj
 000f:000013c4       _WmipMaxCorrectedMCEOutstanding 005d33c4     wmi:mca.obj
 000f:000013c8       _WmipCorrectedMCEHead      005d33c8     wmi:mca.obj
 000f:000013d0       _WmipCorrectedEventlogCounter 005d33d0     wmi:mca.obj
 000f:000013d4       _WmipWbemMinuteWait        005d33d4     wmi:mca.obj
 000f:000013d8       _WmipSMBiosTablePhysicalAddress 005d33d8     wmi:smbios.obj
 000f:000013e0       _WmipSMBiosTableVirtualAddress 005d33e0     wmi:smbios.obj
 000f:000013e4       _WmipSMBiosTableLength     005d33e4     wmi:smbios.obj
 000f:000013e8       _WmipSMBiosVersionInfo     005d33e8     wmi:smbios.obj
 000f:000013ec       _WmipSMBiosChecked         005d33ec     wmi:smbios.obj
 000f:000013f0       _ExpCurrentTimeZoneId      005d33f0     ntoswrk:SYSTIME.obj
 000f:000013f8       _ExpTimeZoneInformation    005d33f8     ntoswrk:SYSTIME.obj
 000f:000014a4       _ExpLastTimeZoneBias       005d34a4     ntoswrk:SYSTIME.obj
 000f:000014a8       _ExpAltTimeZoneBias        005d34a8     ntoswrk:SYSTIME.obj
 000f:000014b0       _ExpNextCenturyTime        005d34b0     ntoswrk:SYSTIME.obj
 000f:000014b8       _ExpNextCenturyTimeFields  005d34b8     ntoswrk:SYSTIME.obj
 000f:000014c8       _ExpTimeRefreshInterval    005d34c8     ntoswrk:SYSTIME.obj
 000f:000014d0       _ExpRefreshFailures        005d34d0     ntoswrk:SYSTIME.obj
 000f:000014d8       _ExpNextSystemCutover      005d34d8     ntoswrk:SYSTIME.obj
 000f:000014e0       _ExpShuttingDown           005d34e0     ntoswrk:SYSTIME.obj
 000f:000014e4       _ExpNtExpirationDataLength 005d34e4     ntoswrk:SYSTIME.obj
 000f:000014e8       _ExpNtExpirationDate       005d34e8     ntoswrk:SYSTIME.obj
 000f:000014f0       _ExpNtInstallationDate     005d34f0     ntoswrk:SYSTIME.obj
 000f:000014f8       _ExpNextExpirationIsFatal  005d34f8     ntoswrk:SYSTIME.obj
 000f:000014fc       _ExpExpirationDataKey      005d34fc     ntoswrk:SYSTIME.obj
 000f:00001500       _ExpExpirationDataChangeBuffer 005d3500     ntoswrk:SYSTIME.obj
 000f:00001504       _ExpExpirationDataIoSb     005d3504     ntoswrk:SYSTIME.obj
 000f:0000150c       _ExpTimerResolutionCount   005d350c     ntoswrk:SYSTIME.obj
 000f:00001510       _ExpKernelResolutionCount  005d3510     ntoswrk:SYSTIME.obj
 000f:00001518       _ExpLastShutDown           005d3518     ntoswrk:SYSTIME.obj
 000f:00001520       _ExpRefreshCount           005d3520     ntoswrk:SYSTIME.obj
 000f:00001524       _InitNlsSectionPointer     005d3524     ntoswrk:INIT.obj
 000f:00001528       _InitAnsiCodePageDataOffset 005d3528     ntoswrk:INIT.obj
 000f:0000152c       _InitOemCodePageDataOffset 005d352c     ntoswrk:INIT.obj
 000f:00001530       _InitUnicodeCaseTableDataOffset 005d3530     ntoswrk:INIT.obj
 000f:00001538       _IopDeviceClassNotifyList  005d3538     ntoswrk:NOTIFY.obj
 000f:000015a0       _IopSetupNotifyData        005d35a0     ntoswrk:NOTIFY.obj
 000f:000015a4       _IopProfileNotifyList      005d35a4     ntoswrk:NOTIFY.obj
 000f:000015ac       _IopDeferredRegistrationList 005d35ac     ntoswrk:NOTIFY.obj
 000f:000015b4       _PopShutdownListAvailable  005d35b4     ntoswrk:POSHTDWN.obj
 000f:000015b8       _PopAdminPolicy            005d35b8     ntoswrk:PODATA.obj
 000f:000015d0       _PopStateCallout           005d35d0     ntoswrk:PODATA.obj
 000f:000015d4       _PopCoolingMode            005d35d4     ntoswrk:PODATA.obj
 000f:000015d8       _PopEventCode              005d35d8     ntoswrk:PODATA.obj
 000f:000015e8       _PopActionWaiters          005d35e8     ntoswrk:PODATA.obj
 000f:000015f0       _PopHeuristics             005d35f0     ntoswrk:PODATA.obj
 000f:00001604       _PpDeviceEventList         005d3604     ntoswrk:PNPEVENT.obj
 000f:00001608       _PpUserBlock               005d3608     ntoswrk:PNPEVENT.obj
 000f:0000160c       _PiUserModeRunning         005d360c     ntoswrk:PNPEVENT.obj
 000f:0000160d       _PiNotificationInProgress  005d360d     ntoswrk:PNPEVENT.obj
 000f:00001610       _PpDeviceEventThread       005d3610     ntoswrk:PNPEVENT.obj
 000f:00001618       _PlugPlayHandlerTable      005d3618     ntoswrk:PPCONTROL.obj
 000f:0000173c       _PpDDBHandle               005d373c     ntoswrk:PPDRVDB.obj
 000f:00001740       _PpBootDDB                 005d3740     ntoswrk:PPDRVDB.obj
 000f:00001744       _PiDDBPath                 005d3744     ntoswrk:PPDRVDB.obj
 000f:00001748       _PiLoggedErrorEventsMask   005d3748     ntoswrk:PPDRVDB.obj
 000f:0000174c       _PiCriticalDeviceDatabaseEnabled 005d374c     ntoswrk:PPCDDB.obj
 000f:00001790       RegTab                     005d3790     ntoswrk:VDMOPRND.obj
 0010:00000000       OpcodeIndex                005d4000     ke:instemul.obj
 0010:00000100       OpcodeDispatch             005d4100     ke:instemul.obj
 0011:00000000       _KdPrintDefaultCircularBuffer 005d5000     ntoswrk:KDDATA.obj
 0011:00001000       _KdPrintWritePointer       005d6000     ntoswrk:KDDATA.obj
 0011:00001004       _KdPrintRolloverCount      005d6004     ntoswrk:KDDATA.obj
 0011:00001008       _KdPrintCircularBuffer     005d6008     ntoswrk:KDDATA.obj
 0011:0000100c       _KdPrintBufferSize         005d600c     ntoswrk:KDDATA.obj
 0011:00001010       _KdPrintBufferChanges      005d6010     ntoswrk:KDDATA.obj
 0011:00001018       _KdpBreakpointTable        005d6018     ntoswrk:KDDATA.obj
 0011:00001218       _KdpMessageBuffer          005d6218     ntoswrk:KDDATA.obj
 0011:00002218       _KdpPathBuffer             005d7218     ntoswrk:KDDATA.obj
 0011:00003218       _KdpInternalBPs            005d8218     ntoswrk:KDDATA.obj
 0011:00003678       _KdPerformanceCounterRate  005d8678     ntoswrk:KDDATA.obj
 0011:00003680       _KdTimerStart              005d8680     ntoswrk:KDDATA.obj
 0011:00003688       _KdTimerStop               005d8688     ntoswrk:KDDATA.obj
 0011:00003690       _KdTimerDifference         005d8690     ntoswrk:KDDATA.obj
 0011:00003698       _KdpCurrentSymbolStart     005d8698     ntoswrk:KDDATA.obj
 0011:0000369c       _KdpCurrentSymbolEnd       005d869c     ntoswrk:KDDATA.obj
 0011:000036a0       _KdpNextCallLevelChange    005d86a0     ntoswrk:KDDATA.obj
 0011:000036a4       _KdSpecialCalls            005d86a4     ntoswrk:KDDATA.obj
 0011:000036cc       _KdNumberOfSpecialCalls    005d86cc     ntoswrk:KDDATA.obj
 0011:000036d0       _InitialSP                 005d86d0     ntoswrk:KDDATA.obj
 0011:000036d4       _KdpNumInternalBreakpoints 005d86d4     ntoswrk:KDDATA.obj
 0011:000036d8       _InternalBreakpointTimer   005d86d8     ntoswrk:KDDATA.obj
 0011:00003700       _InternalBreakpointCheckDpc 005d8700     ntoswrk:KDDATA.obj
 0011:00003720       _KdpPortLocked             005d8720     ntoswrk:KDDATA.obj
 0011:00003728       _TraceDataBuffer           005d8728     ntoswrk:KDDATA.obj
 0011:000037c8       _TraceDataBufferPosition   005d87c8     ntoswrk:KDDATA.obj
 0011:000037d0       _TraceDataSyms             005d87d0     ntoswrk:KDDATA.obj
 0011:00003fd0       _NextTraceDataSym          005d8fd0     ntoswrk:KDDATA.obj
 0011:00003fd1       _NumTraceDataSyms          005d8fd1     ntoswrk:KDDATA.obj
 0011:00003fd4       _IntBPsSkipping            005d8fd4     ntoswrk:KDDATA.obj
 0011:00003fd8       _WatchStepOver             005d8fd8     ntoswrk:KDDATA.obj
 0011:00003fd9       _BreakPointTimerStarted    005d8fd9     ntoswrk:KDDATA.obj
 0011:00003fdc       _WSOThread                 005d8fdc     ntoswrk:KDDATA.obj
 0011:00003fe0       _WSOEsp                    005d8fe0     ntoswrk:KDDATA.obj
 0011:00003fe4       _WatchStepOverHandle       005d8fe4     ntoswrk:KDDATA.obj
 0011:00003fe8       _WatchStepOverBreakAddr    005d8fe8     ntoswrk:KDDATA.obj
 0011:00003fec       _WatchStepOverSuspended    005d8fec     ntoswrk:KDDATA.obj
 0011:00003ff0       _InstructionsTraced        005d8ff0     ntoswrk:KDDATA.obj
 0011:00003ff4       _SymbolRecorded            005d8ff4     ntoswrk:KDDATA.obj
 0011:00003ff8       _CallLevelChange           005d8ff8     ntoswrk:KDDATA.obj
 0011:00003ffc       _oldpc                     005d8ffc     ntoswrk:KDDATA.obj
 0011:00004000       _InstrCountInternal        005d9000     ntoswrk:KDDATA.obj
 0011:00004001       _BreakpointsSuspended      005d9001     ntoswrk:KDDATA.obj
 0011:00004002       _KdpControlCPressed        005d9002     ntoswrk:KDDATA.obj
 0011:00004003       _KdpBreakpointInstruction  005d9003     ntoswrk:KDDATA.obj
 0011:00004004       _KdpDebuggerDataListHead   005d9004     ntoswrk:KDDATA.obj
 0011:00004010       _KdpSearchPageHits         005d9010     ntoswrk:KDDATA.obj
 0011:00008010       _KdpSearchPageHitOffsets   005dd010     ntoswrk:KDDATA.obj
 0011:0000c010       _KdpSearchPageHitIndex     005e1010     ntoswrk:KDDATA.obj
 0011:0000c014       _KdpSearchInProgress       005e1014     ntoswrk:KDDATA.obj
 0011:0000c018       _KdpSearchStartPageFrame   005e1018     ntoswrk:KDDATA.obj
 0011:0000c01c       _KdpSearchEndPageFrame     005e101c     ntoswrk:KDDATA.obj
 0011:0000c020       _KdpSearchAddressRangeStart 005e1020     ntoswrk:KDDATA.obj
 0011:0000c024       _KdpSearchAddressRangeEnd  005e1024     ntoswrk:KDDATA.obj
 0011:0000c028       _KdpSearchPfnValue         005e1028     ntoswrk:KDDATA.obj
 0011:0000c02c       _KdpSearchCheckPoint       005e102c     ntoswrk:KDDATA.obj
 0011:0000c030       _KdpDebuggerStructuresInitialized 005e1030     ntoswrk:KDDATA.obj
 0012:00000360       _MiVerifierThunks          005e2360     ntoswrk:VERIFIER.obj
 0012:000009f8       _MiVerifierPoolThunks      005e29f8     ntoswrk:VERIFIER.obj
 0012:00000a48       _ViDdiDeviceObjectArray    005e2a48     ntoswrk:VFDDI.obj
 0012:00000a4c       _VerifierDdiDriverName     005e2a4c     ntoswrk:VFDDI.obj
 0012:00000a78       _ViDeadlockAgeWindow       005e2a78     ntoswrk:VFDEADLOCK.obj
 0012:00000a7c       _ViDeadlockTrimThreshold   005e2a7c     ntoswrk:VFDEADLOCK.obj
 0012:00000a80       _ViDeadlockResourceTypeInfo 005e2a80     ntoswrk:VFDEADLOCK.obj
 0012:00000a9c       _ViDeadlockSimultaneousLocksLimit 005e2a9c     ntoswrk:VFDEADLOCK.obj
 0012:00000aa0       _ViDeadlockReservedThreads 005e2aa0     ntoswrk:VFDEADLOCK.obj
 0012:00000aa4       _ViDeadlockReservedNodes   005e2aa4     ntoswrk:VFDEADLOCK.obj
 0012:00000aa8       _ViDeadlockReservedResources 005e2aa8     ntoswrk:VFDEADLOCK.obj
 0012:00000ab0       _ViVerifyPerformanceCounter 005e2ab0     ntoswrk:VFHAL.obj
 0012:00000ab4       _ViDoubleBufferDma         005e2ab4     ntoswrk:VFHAL.obj
 0012:00000ab8       _ViProtectBuffers          005e2ab8     ntoswrk:VFHAL.obj
 0012:00000abc       _ViInjectDmaFailures       005e2abc     ntoswrk:VFHAL.obj
 0012:00000ac0       _ViSuperDebug              005e2ac0     ntoswrk:VFHAL.obj
 0012:00000ac4       _ViSufficientlyBootedForPcControl 005e2ac4     ntoswrk:VFHAL.obj
 0012:00000ac8       _ViSufficientlyBootedForDmaFailure 005e2ac8     ntoswrk:VFHAL.obj
 0012:00000acc       _ViMaxMapRegistersPerAdapter 005e2acc     ntoswrk:VFHAL.obj
 0012:00000ad0       _ViMaxCommonBuffersPerAdapter 005e2ad0     ntoswrk:VFHAL.obj
 0012:00000ad4       _ViAllocationsFailedDeliberately 005e2ad4     ntoswrk:VFHAL.obj
 0012:00000ad8       _ViRequiredTimeSinceBoot   005e2ad8     ntoswrk:VFHAL.obj
 0012:00000ae0       _ViDmaVerifierTag          005e2ae0     ntoswrk:VFHAL.obj
 0012:00000ae8       _ViPenalties               005e2ae8     ntoswrk:VFHAL.obj
 0012:00000b0c       _ViAdapterList             005e2b0c     ntoswrk:VFHAL.obj
 0012:00000b18       _ViDmaOperations           005e2b18     ntoswrk:VFHAL.obj
 0012:00000b58       _ViLegacyDmaOperations     005e2b58     ntoswrk:VFHAL.obj
 0012:00000b98       _VfRealHalAllocateMapRegisters 005e2b98     ntoswrk:VFHAL.obj
 0012:00000c00       _VfZwVerifierEnabled       005e2c00     ntoswrk:VFZWAPI.obj
 0012:00000c04       _VfZwVerifierSessionEnabled 005e2c04     ntoswrk:VFZWAPI.obj
 0012:00000c08       _VfZwBreakForIssues        005e2c08     ntoswrk:VFZWAPI.obj
 0012:00000c0c       _VfZwBreakForVspaceOps     005e2c0c     ntoswrk:VFZWAPI.obj
 0012:00000c10       _VfZwEnableSimulatedAttacks 005e2c10     ntoswrk:VFZWAPI.obj
 0012:00000c18       _VfZwRequiredTimeSinceBoot 005e2c18     ntoswrk:VFZWAPI.obj
 0012:00000c20       _ViMessageBogusTemplate    005e2c20     ntoswrk:VFMESSAGE.obj
 0012:00000c38       _ViMessageIoVerifierTemplates 005e2c38     ntoswrk:VFMESSAGE.obj
 0012:00001250       _ViMessageBuiltInTables    005e3250     ntoswrk:VFMESSAGE.obj
 0013:00000084       _GUID_VERIFIER_WMI_INTERFACE 005e4084     ntoswrk:VFDDI.obj
 0013:00000094       _ViDdiClassFailDeviceInField 005e4094     ntoswrk:VFDDI.obj
 0013:0000009c       _ViDdiClassFailDeviceLogo  005e409c     ntoswrk:VFDDI.obj
 0013:000000a4       _ViDdiClassFailDeviceUnderDebugger 005e40a4     ntoswrk:VFDDI.obj
 0013:000000ac       ??_C@_0P@LKODMKLL@DEVICE?5FAILURE?$AA@ 005e40ac     ntoswrk:VFDDI.obj
 0013:000000bc       _ViBugCheckParamTable      005e40bc     ntoswrk:VFBUGCHECK.obj
 0013:000000f4       ??_C@_05BBPDPKJN@Pvoid?$AA@ 005e40f4     ntoswrk:VFBUGCHECK.obj
 0013:000000fc       ??_C@_05EFAMKBEL@Ulong?$AA@ 005e40fc     ntoswrk:VFBUGCHECK.obj
 0013:00000104       ??_C@_06PGDKHFME@Status?$AA@ 005e4104     ntoswrk:VFBUGCHECK.obj
 0013:0000010c       ??_C@_06OLEKCOGF@DevObj?$AA@ 005e410c     ntoswrk:VFBUGCHECK.obj
 0013:00000114       ??_C@_08PJJDBLOH@Snapshot?$AA@ 005e4114     ntoswrk:VFBUGCHECK.obj
 0013:00000120       ??_C@_03EAONPCJM@Irp?$AA@  005e4120     ntoswrk:VFBUGCHECK.obj
 0013:00000124       ??_C@_07LLHAPDBN@Routine?$AA@ 005e4124     ntoswrk:VFBUGCHECK.obj
 0013:00000130       ??_C@_0GD@DENKPAEK@A?5driver?5has?5passed?5an?5invalid?5d@ 005e4130     ntoswrk:VFMESSAGE.obj
 0013:00000198       ??_C@_0HI@CEPLPDJM@A?5driver?5has?5returned?5STATUS_PEN@ 005e4198     ntoswrk:VFMESSAGE.obj
 0013:00000210       ??_C@_0MC@IFBIANA@A?5driver?5has?5succeeded?5IRP_MJ_PN@ 005e4210     ntoswrk:VFMESSAGE.obj
 0013:000002d8       ??_C@_0FI@PCHKABMH@A?5driver?5has?5mistakenly?5called?5a@ 005e42d8     ntoswrk:VFMESSAGE.obj
 0013:00000330       ??_C@_0HI@NKDLEOBP@A?5driver?5has?5enumerated?5two?5chil@ 005e4330     ntoswrk:VFMESSAGE.obj
 0013:000003a8       ??_C@_0HB@NNGHGAN@A?5driver?5has?5added?5a?5device?5obje@ 005e43a8     ntoswrk:VFMESSAGE.obj
 0013:00000420       ??_C@_0EL@JPIOCGGG@A?5driver?5has?5failed?5an?5IRP?5that?5@ 005e4420     ntoswrk:VFMESSAGE.obj
 0013:00000470       ??_C@_0GP@MBPAPGIA@A?5driver?5has?5failed?5to?5copy?5the?5@ 005e4470     ntoswrk:VFMESSAGE.obj
 0013:000004e0       ??_C@_0HM@DOLGGEHG@A?5driver?5has?5set?5both?5the?5DO_BUF@ 005e44e0     ntoswrk:VFMESSAGE.obj
 0013:00000560       ??_C@_0IJ@KOEKMBKL@A?5driver?5has?5not?5copied?5either?5t@ 005e4560     ntoswrk:VFMESSAGE.obj
 0013:000005f0       ??_C@_0GJ@FMGAEMDL@A?5driver?5has?5failed?5to?5clear?5the@ 005e45f0     ntoswrk:VFMESSAGE.obj
 0013:00000660       ??_C@_0GF@DFNINIEC@A?5driver?5has?5deleted?5it?8s?5device@ 005e4660     ntoswrk:VFMESSAGE.obj
 0013:000006c8       ??_C@_0GG@CDBHPHHJ@A?5driver?5has?5detached?5it?8s?5devic@ 005e46c8     ntoswrk:VFMESSAGE.obj
 0013:00000730       ??_C@_0HD@MBHBJMAH@A?5driver?5is?5attempting?5to?5delete@ 005e4730     ntoswrk:VFMESSAGE.obj
 0013:000007a8       ??_C@_0GK@HHPAAAFN@A?5driver?5has?5not?5inherited?5the?5D@ 005e47a8     ntoswrk:VFMESSAGE.obj
 0013:00000818       ??_C@_0FI@DCLKNEDN@A?5driver?5has?5marked?5an?5IRP?5pendi@ 005e4818     ntoswrk:VFMESSAGE.obj
 0013:00000870       ??_C@_0HD@FCBGLLJK@A?5driver?5has?5returned?5STATUS_PEN@ 005e4870     ntoswrk:VFMESSAGE.obj
 0013:000008e8       ??_C@_0GC@COCGCLHB@A?5driver?5has?5completed?5an?5IRP?5wi@ 005e48e8     ntoswrk:VFMESSAGE.obj
 0013:00000950       ??_C@_0FN@OAEMLDGK@A?5driver?5has?5forwarded?5an?5IRP?5at@ 005e4950     ntoswrk:VFMESSAGE.obj
 0013:000009b0       ??_C@_0KB@KDHHGNMC@The?5caller?5of?5IoCompleteRequest?5@ 005e49b0     ntoswrk:VFMESSAGE.obj
 0013:00000a58       ??_C@_0OJ@CJAANCDH@Caller?5of?5IoInitializeIrp?5has?5pa@ 005e4a58     ntoswrk:VFMESSAGE.obj
 0013:00000b48       ??_C@_0FA@NKIAMPJK@A?5driver?5has?5sent?5an?5IRP?5that?5is@ 005e4b48     ntoswrk:VFMESSAGE.obj
 0013:00000b98       ??_C@_0IH@HJCJFMFG@The?5UI?5Number?5field?5of?5the?5query@ 005e4b98     ntoswrk:VFMESSAGE.obj
 0013:00000c20       ??_C@_0IF@KACCCOP@The?5address?5field?5of?5the?5query?5c@ 005e4c20     ntoswrk:VFMESSAGE.obj
 0013:00000ca8       ??_C@_0HM@EFIHAAOJ@The?5size?5field?5of?5the?5query?5capa@ 005e4ca8     ntoswrk:VFMESSAGE.obj
 0013:00000d28       ??_C@_0HP@EPJJHCJL@The?5version?5field?5of?5the?5query?5c@ 005e4d28     ntoswrk:VFMESSAGE.obj
 0013:00000da8       ??_C@_0KI@NOKEEAEP@Caller?5has?5completed?5untouched?5I@ 005e4da8     ntoswrk:VFMESSAGE.obj
 0013:00000e50       ??_C@_0FH@IJGMGKLO@Caller?5has?5completed?5successful?5@ 005e4e50     ntoswrk:VFMESSAGE.obj
 0013:00000ea8       ??_C@_0GD@KFBCGINL@Caller?5has?5completed?5a?5IRP_MJ_PO@ 005e4ea8     ntoswrk:VFMESSAGE.obj
 0013:00000f10       ??_C@_0KG@LOBBPJOM@Caller?5has?5completed?5untouched?5I@ 005e4f10     ntoswrk:VFMESSAGE.obj
 0013:00000fb8       ??_C@_0FF@BNNMHBNG@Caller?5has?5completed?5successful?5@ 005e4fb8     ntoswrk:VFMESSAGE.obj
 0013:00001010       ??_C@_0GB@NEEAJDKM@Caller?5has?5completed?5a?5IRP_MJ_PN@ 005e5010     ntoswrk:VFMESSAGE.obj
 0013:00001078       ??_C@_0HA@OPFOBHNI@The?5code?5implementing?5the?5Target@ 005e5078     ntoswrk:VFMESSAGE.obj
 0013:000010e8       ??_C@_0HF@JLGGKCKN@PDO?5has?5forgotten?5to?5fill?5out?5th@ 005e50e8     ntoswrk:VFMESSAGE.obj
 0013:00001160       ??_C@_0DG@JCBMNIGM@PDO?5has?5not?5responded?5to?5a?5requi@ 005e5160     ntoswrk:VFMESSAGE.obj
 0013:00001198       ??_C@_0LC@JMOKGGKG@A?5cancel?5routine?5has?5been?5set?5fo@ 005e5198     ntoswrk:VFMESSAGE.obj
 0013:00001250       ??_C@_0OH@LAMBFMGL@A?5driver?8s?5completion?5routine?5?$CI?5@ 005e5250     ntoswrk:VFMESSAGE.obj
 0013:00001338       ??_C@_0GB@KBFCIOJJ@IRP?5completion?5routines?5must?5be?5@ 005e5338     ntoswrk:VFMESSAGE.obj
 0013:000013a0       ??_C@_0JB@PBKHNEK@An?5IRP?5dispatch?5handler?5has?5retu@ 005e53a0     ntoswrk:VFMESSAGE.obj
 0013:00001438       ??_C@_0MH@PMHFEODC@An?5IRP?5dispatch?5handler?5has?5retu@ 005e5438     ntoswrk:VFMESSAGE.obj
 0013:00001500       ??_C@_0MC@NNENMKHH@An?5IRP?5dispatch?5handler?5?$CI?5?$CFRouti@ 005e5500     ntoswrk:VFMESSAGE.obj
 0013:000015c8       ??_C@_0NL@KOIPFCEN@An?5IRP?5dispatch?5handler?5for?5a?5bu@ 005e55c8     ntoswrk:VFMESSAGE.obj
 0013:000016a8       ??_C@_0NO@DDIJMPOI@A?5Bus?5Filter?8s?5IRP?5dispatch?5hand@ 005e56a8     ntoswrk:VFMESSAGE.obj
 0013:00001788       ??_C@_0MO@NACAKLO@An?5IRP?5dispatch?5handler?5for?5a?5PD@ 005e5788     ntoswrk:VFMESSAGE.obj
 0013:00001858       ??_C@_0NP@EOPMFFGB@IRP_MJ_SYSTEM_CONTROL?5has?5been?5c@ 005e5858     ntoswrk:VFMESSAGE.obj
 0013:00001938       ??_C@_0GD@BJPGBEPF@This?5driver?5has?5not?5filled?5out?5a@ 005e5938     ntoswrk:VFMESSAGE.obj
 0013:000019a0       ??_C@_0KA@COPIJGML@An?5IRP?5dispatch?5handler?5has?5not?5@ 005e59a0     ntoswrk:VFMESSAGE.obj
 0013:00001a40       ??_C@_0KG@OGMHLND@An?5IRP?5dispatch?5handler?5has?5not?5@ 005e5a40     ntoswrk:VFMESSAGE.obj
 0013:00001ae8       ??_C@_0JA@JHFBLELP@Caller?5has?5copied?5the?5Irp?5stack?5@ 005e5ae8     ntoswrk:VFMESSAGE.obj
 0013:00001b78       ??_C@_0HL@KLKFGNLI@Driver?5has?5returned?5a?5suspicious@ 005e5b78     ntoswrk:VFMESSAGE.obj
 0013:00001bf8       ??_C@_0MC@PEHDOLMN@Previously?5set?5IRP_MJ_POWER?5stat@ 005e5bf8     ntoswrk:VFMESSAGE.obj
 0013:00001cc0       ??_C@_0JD@PKLEMGGC@Non?9successful?5non?9STATUS_NOT_SU@ 005e5cc0     ntoswrk:VFMESSAGE.obj
 0013:00001d58       ??_C@_0HL@FAEEJCGM@The?5driver?5has?5responded?5to?5an?5I@ 005e5d58     ntoswrk:VFMESSAGE.obj
 0013:00001dd8       ??_C@_0JF@POJIJIPC@The?5driver?5has?5not?5handled?5a?5req@ 005e5dd8     ntoswrk:VFMESSAGE.obj
 0013:00001e70       ??_C@_0LP@DENHLCNC@Previously?5set?5IRP_MJ_PNP?5status@ 005e5e70     ntoswrk:VFMESSAGE.obj
 0013:00001f30       ??_C@_0IP@CDBAEHFF@Non?9successful?5non?9STATUS_NOT_SU@ 005e5f30     ntoswrk:VFMESSAGE.obj
 0013:00001fc0       ??_C@_0FJ@FGELJAGL@Caller?5has?5changed?5the?5informati@ 005e5fc0     ntoswrk:VFMESSAGE.obj
 0013:00002020       ??_C@_0FE@JGHJLNKP@Caller?5has?5changed?5the?5status?5fi@ 005e6020     ntoswrk:VFMESSAGE.obj
 0013:00002078       ??_C@_0EJ@KOOKOPPJ@Caller?5has?5trashed?5or?5has?5not?5pr@ 005e6078     ntoswrk:VFMESSAGE.obj
 0013:000020c8       ??_C@_0MI@NPAFDGIL@Caller?5has?5forwarded?5an?5Irp?5whil@ 005e60c8     ntoswrk:VFMESSAGE.obj
 0013:00002190       ??_C@_0FA@KNDIAAAH@Any?5WMI?5IRP?5must?5have?5status?5ini@ 005e6190     ntoswrk:VFMESSAGE.obj
 0013:000021e0       ??_C@_0FC@PNGNOODA@Any?5Power?5IRP?5must?5have?5status?5i@ 005e61e0     ntoswrk:VFMESSAGE.obj
 0013:00002238       ??_C@_0FA@HAAHIAOG@Any?5PNP?5IRP?5must?5have?5status?5ini@ 005e6238     ntoswrk:VFMESSAGE.obj
 0013:00002288       ??_C@_0NI@DKJPPIHL@Caller?5of?5IoInitializeIrp?5has?5pa@ 005e6288     ntoswrk:VFMESSAGE.obj
 0013:00002360       ??_C@_0FN@CGDEBOBN@Caller?5of?5IoFreeIrp?5is?5freeing?5a@ 005e6360     ntoswrk:VFMESSAGE.obj
 0013:000023c0       ??_C@_0EK@IIDBFBKL@Caller?5of?5IoFreeIrp?5is?5freeing?5a@ 005e63c0     ntoswrk:VFMESSAGE.obj
 0013:00002410       ??_C@_0GL@HLCABOEL@Caller?5of?5IoFreeIrp?5is?5freeing?5a@ 005e6410     ntoswrk:VFMESSAGE.obj
 0013:00002480       ??_C@_0KE@CIKDPCII@Caller?5is?5completing?5an?5IRP?5that@ 005e6480     ntoswrk:VFMESSAGE.obj
 0013:00002528       ??_C@_0HH@GDEJPLKF@This?5IRP?5is?5about?5to?5run?5out?5of?5@ 005e6528     ntoswrk:VFMESSAGE.obj
 0013:000025a0       ??_C@_0KH@KNEFKFOH@Caller?5has?5manually?5copied?5the?5s@ 005e65a0     ntoswrk:VFMESSAGE.obj
 0013:00002648       ??_C@_0KN@IJHMMLL@Caller?5has?5incorrectly?5forwarded@ 005e6648     ntoswrk:VFMESSAGE.obj
 0013:000026f8       ??_C@_0KE@GOOLOOHA@Caller?5is?5forwarding?5an?5IRP?5that@ 005e66f8     ntoswrk:VFMESSAGE.obj
 0013:000027a0       ??_C@_0EK@ICDEFPCM@Caller?5has?5passed?5in?5NULL?5as?5a?5D@ 005e67a0     ntoswrk:VFMESSAGE.obj
 0013:000027f0       ??_C@_0GF@CPJMAHAA@A?5driver?5has?5called?5IoCallDriver@ 005e67f0     ntoswrk:VFMESSAGE.obj
 0013:00002858       ??_C@_0KD@FMEIJBKL@Driver?5has?5attempted?5to?5detach?5f@ 005e6858     ntoswrk:VFMESSAGE.obj
 0013:00002900       ??_C@_0NO@CMCLBOFB@A?5device?5is?5deleting?5itself?5whil@ 005e6900     ntoswrk:VFMESSAGE.obj
 0013:000029e0       _ViMessageClassFailDriverInField 005e69e0     ntoswrk:VFMESSAGE.obj
 0013:000029e8       _ViMessageClassFailDriverLogo 005e69e8     ntoswrk:VFMESSAGE.obj
 0013:000029f0       _ViMessageClassFailDriverLogoInFieldMode 005e69f0     ntoswrk:VFMESSAGE.obj
 0013:000029f8       _ViMessageClassFailDriverUnderDebugger 005e69f8     ntoswrk:VFMESSAGE.obj
 0013:00002a00       _ViMessageClassDriverWarning 005e6a00     ntoswrk:VFMESSAGE.obj
 0013:00002a08       _ViMessageClassPostponedDriverIssue 005e6a08     ntoswrk:VFMESSAGE.obj
 0013:00002a10       _ViMessageClassCoreError   005e6a10     ntoswrk:VFMESSAGE.obj
 0013:00002a18       _ViMessageIoVerifierOverrides 005e6a18     ntoswrk:VFMESSAGE.obj
 0013:00002a84       ??_C@_0L@BBGHALLD@SWENUM?4SYS?$AA@ 005e6a84     ntoswrk:VFMESSAGE.obj
 0013:00002a90       ??_C@_08CJDNKBIJ@ACPI?4SYS?$AA@ 005e6a90     ntoswrk:VFMESSAGE.obj
 0013:00002a9c       ??_C@_08KMEKJPKB@NDIS?4SYS?$AA@ 005e6a9c     ntoswrk:VFMESSAGE.obj
 0013:00002aa8       ??_C@_0N@EDLIOPKC@NTKRPAMP?4EXE?$AA@ 005e6aa8     ntoswrk:VFMESSAGE.obj
 0013:00002ab8       ??_C@_0N@HCDMEPKA@NTKRNLPA?4EXE?$AA@ 005e6ab8     ntoswrk:VFMESSAGE.obj
 0013:00002ac8       ??_C@_0N@LMLPGDJA@NTKRNLMP?4EXE?$AA@ 005e6ac8     ntoswrk:VFMESSAGE.obj
 0013:00002ad8       ??_C@_0N@IFPOMFAH@NTOSKRNL?4EXE?$AA@ 005e6ad8     ntoswrk:VFMESSAGE.obj
 0013:00002ae8       ??_C@_07LFIIGHLG@HAL?4DLL?$AA@ 005e6ae8     ntoswrk:VFMESSAGE.obj
 0013:00002af0       ??_C@_0BC@FPADMLGK@CORE?5DRIVER?5ERROR?$AA@ 005e6af0     ntoswrk:VFMESSAGE.obj
 0013:00002b04       ??_C@_0BJ@NCGEAOOK@POSTPONED?5WDM?5DRIVER?5BUG?$AA@ 005e6b04     ntoswrk:VFMESSAGE.obj
 0013:00002b20       ??_C@_0BD@BHOIMBIH@WDM?5DRIVER?5WARNING?$AA@ 005e6b20     ntoswrk:VFMESSAGE.obj
 0013:00002b34       ??_C@_0BB@CKICBFIG@WDM?5DRIVER?5ERROR?$AA@ 005e6b34     ntoswrk:VFMESSAGE.obj
 0013:00002b48       _IrpMajorNames             005e6b48     ntoswrk:VFGENERIC.obj
 0013:00002bbc       ??_C@_0L@EACGAIIF@IRP_MJ_PNP?$AA@ 005e6bbc     ntoswrk:VFGENERIC.obj
 0013:00002bc8       ??_C@_0BB@MFPKCKFI@IRP_MJ_SET_QUOTA?$AA@ 005e6bc8     ntoswrk:VFGENERIC.obj
 0013:00002bdc       ??_C@_0BD@MDBGANBO@IRP_MJ_QUERY_QUOTA?$AA@ 005e6bdc     ntoswrk:VFGENERIC.obj
 0013:00002bf0       ??_C@_0BF@HOMHCDN@IRP_MJ_DEVICE_CHANGE?$AA@ 005e6bf0     ntoswrk:VFGENERIC.obj
 0013:00002c08       ??_C@_0BG@JHIMGJML@IRP_MJ_SYSTEM_CONTROL?$AA@ 005e6c08     ntoswrk:VFGENERIC.obj
 0013:00002c20       ??_C@_0N@BGEEMFOO@IRP_MJ_POWER?$AA@ 005e6c20     ntoswrk:VFGENERIC.obj
 0013:00002c30       ??_C@_0BE@MPINJCAP@IRP_MJ_SET_SECURITY?$AA@ 005e6c30     ntoswrk:VFGENERIC.obj
 0013:00002c44       ??_C@_0BG@MIODHPEN@IRP_MJ_QUERY_SECURITY?$AA@ 005e6c44     ntoswrk:VFGENERIC.obj
 0013:00002c5c       ??_C@_0BH@CKPKPKHL@IRP_MJ_CREATE_MAILSLOT?$AA@ 005e6c5c     ntoswrk:VFGENERIC.obj
 0013:00002c74       ??_C@_0P@JJLCIODE@IRP_MJ_CLEANUP?$AA@ 005e6c74     ntoswrk:VFGENERIC.obj
 0013:00002c84       ??_C@_0BE@LODBBEFP@IRP_MJ_LOCK_CONTROL?$AA@ 005e6c84     ntoswrk:VFGENERIC.obj
 0013:00002c98       ??_C@_0BA@CDMDNOAC@IRP_MJ_SHUTDOWN?$AA@ 005e6c98     ntoswrk:VFGENERIC.obj
 0013:00002ca8       ??_C@_0BP@ODEFGAEK@IRP_MJ_INTERNAL_DEVICE_CONTROL?$AA@ 005e6ca8     ntoswrk:VFGENERIC.obj
 0013:00002cc8       ??_C@_0BG@HAFCIBGJ@IRP_MJ_DEVICE_CONTROL?$AA@ 005e6cc8     ntoswrk:VFGENERIC.obj
 0013:00002ce0       ??_C@_0BL@MFHGBIDL@IRP_MJ_FILE_SYSTEM_CONTROL?$AA@ 005e6ce0     ntoswrk:VFGENERIC.obj
 0013:00002cfc       ??_C@_0BJ@NCGIANAN@IRP_MJ_DIRECTORY_CONTROL?$AA@ 005e6cfc     ntoswrk:VFGENERIC.obj
 0013:00002d18       ??_C@_0BO@CJJMMMF@IRP_MJ_SET_VOLUME_INFORMATION?$AA@ 005e6d18     ntoswrk:VFGENERIC.obj
 0013:00002d38       ??_C@_0CA@FDGJPBOD@IRP_MJ_QUERY_VOLUME_INFORMATION?$AA@ 005e6d38     ntoswrk:VFGENERIC.obj
 0013:00002d58       ??_C@_0BF@CBDAKCPM@IRP_MJ_FLUSH_BUFFERS?$AA@ 005e6d58     ntoswrk:VFGENERIC.obj
 0013:00002d70       ??_C@_0O@FPNILENL@IRP_MJ_SET_EA?$AA@ 005e6d70     ntoswrk:VFGENERIC.obj
 0013:00002d80       ??_C@_0BA@LFPMCNA@IRP_MJ_QUERY_EA?$AA@ 005e6d80     ntoswrk:VFGENERIC.obj
 0013:00002d90       ??_C@_0BH@GNAPBNMO@IRP_MJ_SET_INFORMATION?$AA@ 005e6d90     ntoswrk:VFGENERIC.obj
 0013:00002da8       ??_C@_0BJ@FPMLIFJJ@IRP_MJ_QUERY_INFORMATION?$AA@ 005e6da8     ntoswrk:VFGENERIC.obj
 0013:00002dc4       ??_C@_0N@DLJAMLBI@IRP_MJ_WRITE?$AA@ 005e6dc4     ntoswrk:VFGENERIC.obj
 0013:00002dd4       ??_C@_0M@LJKCMGIA@IRP_MJ_READ?$AA@ 005e6dd4     ntoswrk:VFGENERIC.obj
 0013:00002de0       ??_C@_0N@FMCDOLCP@IRP_MJ_CLOSE?$AA@ 005e6de0     ntoswrk:VFGENERIC.obj
 0013:00002df0       ??_C@_0BJ@MMKIHFHH@IRP_MJ_CREATE_NAMED_PIPE?$AA@ 005e6df0     ntoswrk:VFGENERIC.obj
 0013:00002e0c       ??_C@_0O@LCBLIIOL@IRP_MJ_CREATE?$AA@ 005e6e0c     ntoswrk:VFGENERIC.obj
 0013:00002e1c       _WmiIrpNames               005e6e1c     ntoswrk:VFWMI.obj
 0013:00002e48       ??_C@_0BG@BOODMHMA@IRP_MN_EXECUTE_METHOD?$AA@ 005e6e48     ntoswrk:VFWMI.obj
 0013:00002e60       ??_C@_0P@BLFCKDFF@IRP_MN_REGINFO?$AA@ 005e6e60     ntoswrk:VFWMI.obj
 0013:00002e70       ??_C@_0BK@JHGPMMFH@IRP_MN_DISABLE_COLLECTION?$AA@ 005e6e70     ntoswrk:VFWMI.obj
 0013:00002e8c       ??_C@_0BJ@JANDPHON@IRP_MN_ENABLE_COLLECTION?$AA@ 005e6e8c     ntoswrk:VFWMI.obj
 0013:00002ea8       ??_C@_0BG@MMHOCBEF@IRP_MN_DISABLE_EVENTS?$AA@ 005e6ea8     ntoswrk:VFWMI.obj
 0013:00002ec0       ??_C@_0BF@KOMFOADK@IRP_MN_ENABLE_EVENTS?$AA@ 005e6ec0     ntoswrk:VFWMI.obj
 0013:00002ed8       ??_C@_0BK@IOJCDGCI@IRP_MN_CHANGE_SINGLE_ITEM?$AA@ 005e6ed8     ntoswrk:VFWMI.obj
 0013:00002ef4       ??_C@_0BO@CADBFJCG@IRP_MN_CHANGE_SINGLE_INSTANCE?$AA@ 005e6ef4     ntoswrk:VFWMI.obj
 0013:00002f14       ??_C@_0BN@KPNLCOKD@IRP_MN_QUERY_SINGLE_INSTANCE?$AA@ 005e6f14     ntoswrk:VFWMI.obj
 0013:00002f34       ??_C@_0BG@NJEOKIEF@IRP_MN_QUERY_ALL_DATA?$AA@ 005e6f34     ntoswrk:VFWMI.obj
 0013:00002f4c       _PowerIrpNames             005e6f4c     ntoswrk:VFPOWER.obj
 0013:00002f60       _SystemStateNames          005e6f60     ntoswrk:VFPOWER.obj
 0013:00002f80       _DeviceStateNames          005e6f80     ntoswrk:VFPOWER.obj
 0013:00002f98       _ActionNames               005e6f98     ntoswrk:VFPOWER.obj
 0013:00002fbc       ??_C@_0BF@LHFBFLOC@PowerActionWarmEject?$AA@ 005e6fbc     ntoswrk:VFPOWER.obj
 0013:00002fd4       ??_C@_0BH@IDLIGKLH@PowerActionShutdownOff?$AA@ 005e6fd4     ntoswrk:VFPOWER.obj
 0013:00002fec       ??_C@_0BJ@JMIDEKIA@PowerActionShutdownReset?$AA@ 005e6fec     ntoswrk:VFPOWER.obj
 0013:00003008       ??_C@_0BE@HJMBLEHE@PowerActionShutdown?$AA@ 005e7008     ntoswrk:VFPOWER.obj
 0013:0000301c       ??_C@_0BF@LMFFMMLE@PowerActionHibernate?$AA@ 005e701c     ntoswrk:VFPOWER.obj
 0013:00003034       ??_C@_0BB@IAPEOOEG@PowerActionSleep?$AA@ 005e7034     ntoswrk:VFPOWER.obj
 0013:00003048       ??_C@_0BE@HJBJLEEB@PowerActionReserved?$AA@ 005e7048     ntoswrk:VFPOWER.obj
 0013:0000305c       ??_C@_0BA@EHBMOPJF@PowerActionNone?$AA@ 005e705c     ntoswrk:VFPOWER.obj
 0013:0000306c       ??_C@_0O@EJIFEILN@PowerDeviceD3?$AA@ 005e706c     ntoswrk:VFPOWER.obj
 0013:0000307c       ??_C@_0O@FAJOHJPM@PowerDeviceD2?$AA@ 005e707c     ntoswrk:VFPOWER.obj
 0013:0000308c       ??_C@_0O@HLLDCKDP@PowerDeviceD1?$AA@ 005e708c     ntoswrk:VFPOWER.obj
 0013:0000309c       ??_C@_0O@GCKIBLHO@PowerDeviceD0?$AA@ 005e709c     ntoswrk:VFPOWER.obj
 0013:000030ac       ??_C@_0BH@GKBPJHKE@PowerDeviceUnspecified?$AA@ 005e70ac     ntoswrk:VFPOWER.obj
 0013:000030c4       ??_C@_0BH@JHHGABOB@PowerSystemShutdown?4S5?$AA@ 005e70c4     ntoswrk:VFPOWER.obj
 0013:000030dc       ??_C@_0BI@KEGFCMHH@PowerSystemHibernate?4S4?$AA@ 005e70dc     ntoswrk:VFPOWER.obj
 0013:000030f4       ??_C@_0BI@OJBINKHC@PowerSystemSleeping3?4S3?$AA@ 005e70f4     ntoswrk:VFPOWER.obj
 0013:0000310c       ??_C@_0BI@MNGDMCID@PowerSystemSleeping2?4S2?$AA@ 005e710c     ntoswrk:VFPOWER.obj
 0013:00003124       ??_C@_0BI@KBOOOLJA@PowerSystemSleeping1?4S1?$AA@ 005e7124     ntoswrk:VFPOWER.obj
 0013:0000313c       ??_C@_0BG@CCBCDFCA@PowerSystemWorking?4S0?$AA@ 005e713c     ntoswrk:VFPOWER.obj
 0013:00003154       ??_C@_0BH@EHCPJIHK@PowerSystemUnspecified?$AA@ 005e7154     ntoswrk:VFPOWER.obj
 0013:0000316c       ??_C@_0BD@NCBACJCG@IRP_MN_QUERY_POWER?$AA@ 005e716c     ntoswrk:VFPOWER.obj
 0013:00003180       ??_C@_0BB@MOFGLKAE@IRP_MN_SET_POWER?$AA@ 005e7180     ntoswrk:VFPOWER.obj
 0013:00003194       ??_C@_0BG@HJCHODFP@IRP_MN_POWER_SEQUENCE?$AA@ 005e7194     ntoswrk:VFPOWER.obj
 0013:000031ac       ??_C@_0BB@KEEBPEDL@IRP_MN_WAIT_WAKE?$AA@ 005e71ac     ntoswrk:VFPOWER.obj
 0013:000031c0       _GUID_BOGUS_INTERFACE      005e71c0     ntoswrk:VFPNP.obj
 0013:000031d0       _PnPIrpNames               005e71d0     ntoswrk:VFPNP.obj
 0013:00003238       ??_C@_0CE@OHHBNDAB@IRP_MN_QUERY_LEGACY_BUS_INFORMAT@ 005e7238     ntoswrk:VFPNP.obj
 0013:0000325c       ??_C@_0BI@JJMGKCHF@IRP_MN_SURPRISE_REMOVAL?$AA@ 005e725c     ntoswrk:VFPNP.obj
 0013:00003274       ??_C@_0CB@EEGIBKLH@IRP_MN_DEVICE_USAGE_NOTIFICATION@ 005e7274     ntoswrk:VFPNP.obj
 0013:00003298       ??_C@_0BN@FKLLPNEA@IRP_MN_QUERY_BUS_INFORMATION?$AA@ 005e7298     ntoswrk:VFPNP.obj
 0013:000032b8       ??_C@_0BO@CLJGNPDL@IRP_MN_QUERY_PNP_DEVICE_STATE?$AA@ 005e72b8     ntoswrk:VFPNP.obj
 0013:000032d8       ??_C@_0BA@MPOLLMHD@IRP_MN_QUERY_ID?$AA@ 005e72d8     ntoswrk:VFPNP.obj
 0013:000032e8       ??_C@_0BA@JCIHPHAO@IRP_MN_SET_LOCK?$AA@ 005e72e8     ntoswrk:VFPNP.obj
 0013:000032f8       ??_C@_0N@KBDCJDGM@IRP_MN_EJECT?$AA@ 005e72f8     ntoswrk:VFPNP.obj
 0013:00003308       ??_C@_0BE@MNGKLJHO@IRP_MN_WRITE_CONFIG?$AA@ 005e7308     ntoswrk:VFPNP.obj
 0013:0000331c       ??_C@_0BD@KCLCONNF@IRP_MN_READ_CONFIG?$AA@ 005e731c     ntoswrk:VFPNP.obj
 0013:00003330       ??_C@_0BB@ENDMDNDI@INVALID_IRP_CODE?$AA@ 005e7330     ntoswrk:VFPNP.obj
 0013:00003344       ??_C@_0CE@FFGNIHMK@IRP_MN_FILTER_RESOURCE_REQUIREME@ 005e7344     ntoswrk:VFPNP.obj
 0013:00003368       ??_C@_0BJ@KBKMPMKH@IRP_MN_QUERY_DEVICE_TEXT?$AA@ 005e7368     ntoswrk:VFPNP.obj
 0013:00003384       ??_C@_0CD@MPPOHAEF@IRP_MN_QUERY_RESOURCE_REQUIREMEN@ 005e7384     ntoswrk:VFPNP.obj
 0013:000033a8       ??_C@_0BH@BAILDNEP@IRP_MN_QUERY_RESOURCES?$AA@ 005e73a8     ntoswrk:VFPNP.obj
 0013:000033c0       ??_C@_0BK@FNPJPCCF@IRP_MN_QUERY_CAPABILITIES?$AA@ 005e73c0     ntoswrk:VFPNP.obj
 0013:000033dc       ??_C@_0BH@NJFMIPMO@IRP_MN_QUERY_INTERFACE?$AA@ 005e73dc     ntoswrk:VFPNP.obj
 0013:000033f4       ??_C@_0BO@EDNJKJCF@IRP_MN_QUERY_DEVICE_RELATIONS?$AA@ 005e73f4     ntoswrk:VFPNP.obj
 0013:00003414       ??_C@_0BK@IHBBLJPI@IRP_MN_CANCEL_STOP_DEVICE?$AA@ 005e7414     ntoswrk:VFPNP.obj
 0013:00003430       ??_C@_0BJ@DBBODAKD@IRP_MN_QUERY_STOP_DEVICE?$AA@ 005e7430     ntoswrk:VFPNP.obj
 0013:0000344c       ??_C@_0BD@OKOEKPNG@IRP_MN_STOP_DEVICE?$AA@ 005e744c     ntoswrk:VFPNP.obj
 0013:00003460       ??_C@_0BM@NHOBKHFC@IRP_MN_CANCEL_REMOVE_DEVICE?$AA@ 005e7460     ntoswrk:VFPNP.obj
 0013:0000347c       ??_C@_0BI@DEIPGBBB@IRP_MN_REMOVE_DEVICE?5?9?5?$AA@ 005e747c     ntoswrk:VFPNP.obj
 0013:00003494       ??_C@_0BL@BKMKKOEG@IRP_MN_QUERY_REMOVE_DEVICE?$AA@ 005e7494     ntoswrk:VFPNP.obj
 0013:000034b0       ??_C@_0BE@LNOGIHJB@IRP_MN_START_DEVICE?$AA@ 005e74b0     ntoswrk:VFPNP.obj
 0014:00000006       _CcInitializeCacheManager@0 005e8006 f   cache:fssup.obj
 0014:000002e2       _CcInitializeVacbs@0       005e82e2 f   cache:vacbsup.obj
 0014:00000384       _CmpInitCmPrivateAlloc@0   005e8384 f   config:cmalloc.obj
 0014:000003ca       _CmpInitCmPrivateDelayAlloc@0 005e83ca f   config:cmalloc.obj
 0014:00000400       _CmpComputeGlobalQuotaAllowed@0 005e8400 f   config:cmgquota.obj
 0014:0000047e       _CmpCreateObjectTypes@0    005e847e f   config:cmsysini.obj
 0014:00000534       _CmpCreateRootNode@12      005e8534 f   config:cmsysini.obj
 0014:00000616       _CmpInitializeSystemHive@4 005e8616 f   config:cmsysini.obj
 0014:0000075e       _CmpFreeDriverList@8       005e875e f   config:cmsysini.obj
 0014:00000818       _CmpAddDockingInfo@8       005e8818 f   config:cmsysini.obj
 0014:00000906       _CmpAddAliasEntry@12       005e8906 f   config:cmsysini.obj
 0014:00000b5c       _CmpHwprofileDefaultSelect@12 005e8b5c f   config:cmsysini.obj
 0014:00000e16       _CmpCreateControlSet@4     005e8e16 f   config:cmsysini.obj
 0014:0000153a       _CmIsLastKnownGoodBoot@0   005e953a f   config:cmsysini.obj
 0014:00001698       _CmpSetNetworkValue@4      005e9698 f   config:cmsysini.obj
 0014:00001806       _CmpSetSystemValues@4      005e9806 f   config:cmsysini.obj
 0014:000018f6       _CmpCreateRegistryRoot@0   005e98f6 f   config:cmsysini.obj
 0014:00001a30       _CmGetSystemDriverList@0   005e9a30 f   config:cmsysini.obj
 0014:00001bfc       _CmInitSystem1@4           005e9bfc f   config:cmsysini.obj
 0014:00001ed6       _CmpIsLoadType@12          005e9ed6 f   config:cmboot.obj
 0014:00001f3a       _CmpDoSort@8               005e9f3a f   config:cmboot.obj
 0014:00001fde       _CmpOrderGroup@8           005e9fde f   config:cmboot.obj
 0014:00002044       _CmpFindTagIndex@16        005ea044 f   config:cmboot.obj
 0014:0000216a       _CmpAddDriverToList@20     005ea16a f   config:cmboot.obj
 0014:00002486       _CmpSortDriverList@12      005ea486 f   config:cmboot.obj
 0014:0000255c       _CmpResolveDriverDependencies@4 005ea55c f   config:cmboot.obj
 0014:00002650       _CmpFindDrivers@20         005ea650 f   config:cmboot.obj
 0014:0000286e       _CmpInitializeRegistryNode@24 005ea86e f   config:cmconfig.obj
 0014:00002b1c       _CmpSetupConfigurationTree@16 005eab1c f   config:cmconfig.obj
 0014:00002c94       _CmpInitializeHardwareConfiguration@4 005eac94 f   config:cmconfig.obj
 0014:00002d80       _CmpInitializeRegistryNames@0 005ead80 f   config:cmdatini.obj
 0014:00002f4a       _ExpResourceInitialization@0 005eaf4a f   ex:resource.obj
 0014:00002f7a       _ExpInitializePushLocks@0  005eaf7a f   ex:pushlock.obj
 0014:00002f9c       _ExpSeedHotTags@0          005eaf9c f   ex:pool.obj
 0014:00003224       _InitializePool@8          005eb224 f   ex:pool.obj
 0014:00003664       _ExpInitializeCallbacks@0  005eb664 f   ex:callback.obj
 0014:000037d2       _ExpWin32Initialization@0  005eb7d2 f   ex:win32.obj
 0014:00003898       _ExInitializeHandleTablePackage@0 005eb898 f   ex:handle.obj
 0014:000038b4       _ExSetHandleTableStrictFIFO@4 005eb8b4 f   ex:handle.obj
 0014:000038ce       _ExpEventInitialization@0  005eb8ce f   ex:event.obj
 0014:0000393a       _ExInitPoolLookasidePointers@0 005eb93a f   ex:exinit.obj
 0014:0000398a       _ExComputeTickCountMultiplier@4 005eb98a f   ex:exinit.obj
 0014:000039ce       _ExInitializeSystemLookasideList@24 005eb9ce f   ex:exinit.obj
 0014:00003a38       _ExpInitSystemPhase0@0     005eba38 f   ex:exinit.obj
 0014:00003b66       _ExpInitSystemPhase1@0     005ebb66 f   ex:exinit.obj
 0014:00003cb8       _ExInitSystem@0            005ebcb8 f   ex:exinit.obj
 0014:00003cf4       _ExpWorkerInitialization@0 005ebcf4 f   ex:worker.obj
 0014:00003ee8       _ExpSemaphoreInitialization@0 005ebee8 f   ex:semphore.obj
 0014:00003f54       _ExpUuidInitialization@0   005ebf54 f   ex:uuid.obj
 0014:00003fa8       _ExLuidInitialization@0    005ebfa8 f   ex:luid.obj
 0014:00004012       _ExpKeyedEventInitialization@0 005ec012 f   ex:keyedevent.obj
 0014:000041f4       _ExpProfileInitialization@0 005ec1f4 f   ex:profile.obj
 0014:0000427a       _ExpTimerInitialization@0  005ec27a f   ex:timer.obj
 0014:0000430c       _ExpMutantInitialization@0 005ec30c f   ex:mutant.obj
 0014:000043b0       _ExpEventPairInitialization@0 005ec3b0 f   ex:eventpr.obj
 0014:00004484       _FsRtlInitializeTunnels@0  005ec484 f   fsrtl:Tunnel.obj
 0014:0000454a       _FsRtlInitializeLargeMcbs@0 005ec54a f   fsrtl:LargeMcb.obj
 0014:00004582       _FsRtlInitializeFileLocks@0 005ec582 f   fsrtl:FileLock.obj
 0014:000046b4       _FsRtlGetCompatibilityModeValue@8 005ec6b4 f   fsrtl:FsRtlPc.obj
 0014:00004818       _FsRtlInitSystem@0         005ec818 f   fsrtl:FsRtlPc.obj
 0014:000048be       _FsRtlInitializeWorkerThread@0 005ec8be f   fsrtl:StackOvf.obj
 0014:00004994       _ExpInitializeExecutive@8  005ec994 f   init:initos.obj
 0014:00004f1e       _CreateSystemRootLink@4    005ecf1e f   init:initos.obj
 0014:0000527c       _Phase1InitializationDiscard@4 005ed27c f   init:initos.obj
 0014:00005d82       _LookupEntryPoint@12       005edd82 f   init:initos.obj
 0014:00005e22       _IopSetIoRoutines@0        005ede22 f   iomgr:ioinit.obj
 0014:00005e88       _IopCreateArcNamesCd@4     005ede88 f   iomgr:ioinit.obj
 0014:000063fa       _IopCreateObjectTypes@0    005ee3fa f   iomgr:ioinit.obj
 0014:0000663c       _IopCreateRootDirectories@0 005ee63c f   iomgr:ioinit.obj
 0014:000066f2       _IopInitializeAttributesAndCreateObject@12 005ee6f2 f   iomgr:ioinit.obj
 0014:00006754       _IopInitializeBuiltinDriver@24 005ee754 f   iomgr:ioinit.obj
 0014:00006a16       _IopMarkBootPartition@4    005eea16 f   iomgr:ioinit.obj
 0014:00006bc4       _IopReassignSystemRoot@8   005eebc4 f   iomgr:ioinit.obj
 0014:00006eda       _IopStoreSystemPartitionInformation@8 005eeeda f   iomgr:ioinit.obj
 0014:00007182       _IopInitializeReserveIrp@4 005ef182 f   iomgr:ioinit.obj
 0014:00007252       _IoInitSystem@4            005ef252 f   iomgr:ioinit.obj
 0014:00007b08       _IopCreateArcNamesDisk@12  005efb08 f   iomgr:ioinit.obj
 0014:00008452       _IopCreateArcNames@4       005f0452 f   iomgr:ioinit.obj
 0014:000086ac       _KiSystemStartup@4         005f06ac f   ke:newsysbg.obj
 0014:000089b8       _KiSetCR0Bits@0            005f09b8 f   ke:newsysbg.obj
 0014:000089d4       _IDT                       005f09d4     ke:trap.obj
 0014:000091d4       _IDTEnd                    005f11d4     ke:trap.obj
 0014:000091da       _KeSetProfileIrql@4        005f11da f   ke:miscc.obj
 0014:000091ee       _KeFindConfigurationNextEntry@20 005f11ee f   ke:config.obj
 0014:000092ba       _KeFindConfigurationEntry@16 005f12ba f   ke:config.obj
 0014:000092e0       _KiInitializeMachineType@0 005f12e0 f   ke:i386init.obj
 0014:000092f8       _KeInitializeThread@32     005f12f8 f   ke:thredobj.obj
 0014:00009330       _KeInitSystem@0            005f1330 f   ke:kiinit.obj
 0014:000093e2       _KiInitSpinLocks@8         005f13e2 f   ke:kiinit.obj
 0014:00009622       _KiInitSystem@0            005f1622 f   ke:kiinit.obj
 0014:00009750       _Ki386EnableGlobalPage@4   005f1750 f   ke:ctxswap.obj
 0014:000097b0       _Ki386EnableDE@4           005f17b0 f   ke:ctxswap.obj
 0014:000097bc       _Ki386EnableFxsr@4         005f17bc f   ke:ctxswap.obj
 0014:000097cc       _Ki386EnableXMMIExceptions@4 005f17cc f   ke:ctxswap.obj
 0014:00009804       _Ki386EnableCurrentLargePage@8 005f1804 f   ke:ctxswap.obj
 0014:00009850       _Ki386EnableCurrentLargePageEnd 005f1850     ke:ctxswap.obj
 0014:00009856       _KiInitializePcr@28        005f1856 f   ke:kernlini.obj
 0014:000098ee       _KiInitializeTSS2@8        005f18ee f   ke:kernlini.obj
 0014:00009950       _KiSwapIDT@0               005f1950 f   ke:kernlini.obj
 0014:00009974       _KiGetCpuVendor@0          005f1974 f   ke:kernlini.obj
 0014:00009b26       _KiGetFeatureBits@0        005f1b26 f   ke:kernlini.obj
 0014:00009eca       _KiGetCacheInformation@0   005f1eca f   ke:kernlini.obj
 0014:0000a254       _KiI386PentiumLockErrataFixup@0 005f2254 f   ke:kernlini.obj
 0014:0000a31e       _KiInitializeKernel@24     005f231e f   ke:kernlini.obj
 0014:0000a8ec       _KiInitMachineDependent@0  005f28ec f   ke:kernlini.obj
 0014:0000ae64       _KiAdjustSimultaneousMultiThreadingCharacteristics@0 005f2e64 f   ke:allproc.obj
 0014:0000af6a       _KiAllProcessorsStarted@0  005f2f6a f   ke:allproc.obj
 0014:0000afd0       _KiStartWaitAcknowledge@0  005f2fd0 f   ke:allproc.obj
 0014:0000b002       _KeStartAllProcessors@0    005f3002 f   ke:allproc.obj
 0014:0000b124       _KiInitProcessorState@32   005f3124 f   ke:allproc.obj
 0014:0000b328       _KiSetProcessorType@0      005f3328 f   ke:cpu.obj
 0014:0000b482       Get386Stepping             005f3482 f   ke:cpu.obj
 0014:0000b4ab       Get486Stepping             005f34ab f   ke:cpu.obj
 0014:0000b4de       Check486AStepping          005f34de f   ke:cpu.obj
 0014:0000b4f5       Check486BStepping          005f34f5 f   ke:cpu.obj
 0014:0000b530       Check486CStepping          005f3530 f   ke:cpu.obj
 0014:0000b650       _KiIsNpxPresent@0          005f3650 f   ke:cpu.obj
 0014:0000b690       _CPUID@20                  005f3690 f   ke:cpu.obj
 0014:0000b6c4       _KiInitializeMTRR@4        005f36c4 f   ke:mtrr.obj
 0014:0000b994       _KiAmdK6InitializeMTRR@0   005f3994 f   ke:mtrramd.obj
 0014:0000ba1a       _Ki386AllocateContiguousMemory@12 005f3a1a f   ke:largepag.obj
 0014:0000ba72       _Ki386IdentityMapMakeValid@12 005f3a72 f   ke:largepag.obj
 0014:0000bac2       _Ki386MapAddress@16        005f3ac2 f   ke:largepag.obj
 0014:0000bb34       _Ki386ConvertPte@4         005f3b34 f   ke:largepag.obj
 0014:0000bb6a       _Ki386BuildIdentityBuffer@16 005f3b6a f   ke:largepag.obj
 0014:0000bc2c       _Ki386ClearIdentityMap@4   005f3c2c f   ke:largepag.obj
 0014:0000bc5c       _Ki386EnableTargetLargePage@4 005f3c5c f   ke:largepag.obj
 0014:0000bc76       _Ki386CreateIdentityMap@12 005f3c76 f   ke:largepag.obj
 0014:0000bd38       _LpcInitSystem@0           005f3d38 f   lpc:lpcinit.obj
 0014:0000be26       _LpcpInitializePortZone@4  005f3e26 f   lpc:lpcqueue.obj
 0014:0000be52       _MiAdjustWorkingSetManagerParameters@4 005f3e52 f   mm:wsmanage.obj
 0014:0000bee4       _MiInitializeSessionWsSupport@0 005f3ee4 f   mm:wslist.obj
 0014:0000befa       _MiInitializeIoTrackers@0  005f3efa f   mm:iosup.obj
 0014:0000bf3e       _MiInitializeLargePageSupport@0 005f3f3e f   mm:iosup.obj
 0014:0000bf94       _MmSetPageProtection@12    005f3f94 f   mm:iosup.obj
 0014:0000c0c8       _MiSectionInitialization@0 005f40c8 f   mm:sectsup.obj
 0014:0000c2b0       _MiBuildImportsForBootDrivers@0 005f42b0 f   mm:sysload.obj
 0014:0000c5a4       _MiUpdateThunks@16         005f45a4 f   mm:sysload.obj
 0014:0000c618       _MiLocateKernelSections@4  005f4618 f   mm:sysload.obj
 0014:0000c710       _MiInitializeLoadedModuleList@4 005f4710 f   mm:sysload.obj
 0014:0000c862       _MiReloadBootLoadedDrivers@4 005f4862 f   mm:sysload.obj
 0014:0000cd02       _MiMapBBTMemory@4          005f4d02 f   mm:mminit.obj
 0014:0000ce16       _MmInitializeMemoryLimits@12 005f4e16 f   mm:mminit.obj
 0014:0000cf24       _MiPagesInLoaderBlock@8    005f4f24 f   mm:mminit.obj
 0014:0000cf5c       _MmFreeLoaderBlock@4       005f4f5c f   mm:mminit.obj
 0014:0000d2aa       _MiInitializeNonPagedPoolThresholds@0 005f52aa f   mm:mminit.obj
 0014:0000d2ee       _MiEnablePagingOfDriverAtInit@8 005f52ee f   mm:mminit.obj
 0014:0000d3e4       _MiCreateMemoryEvent@8     005f53e4 f   mm:mminit.obj
 0014:0000d542       _MiAddHalIoMappings@0      005f5542 f   mm:mminit.obj
 0014:0000d60e       _MiBuildPagedPool@0        005f560e f   mm:mminit.obj
 0014:0000db54       _MiFindInitializationCode@8 005f5b54 f   mm:mminit.obj
 0014:0000ddc2       _MiEnablePagingTheExecutive@0 005f5dc2 f   mm:mminit.obj
 0014:0000e3f8       _MiInitializeMemoryEvents@0 005f63f8 f   mm:mminit.obj
 0014:0000e5a6       _MmInitSystem@8            005f65a6 f   mm:mminit.obj
 0014:0000f8fa       _MiInitializeSystemPtes@12 005f78fa f   mm:sysptes.obj
 0014:0000fbc0       _MiInitializeSystemCache@8 005f7bc0 f   mm:mapcache.obj
 0014:0000fe0e       _MiInitializeSessionIds@0  005f7e0e f   mm:session.obj
 0014:0000feae       _MiInitializePoolEvents@0  005f7eae f   mm:allocpag.obj
 0014:0000ffec       _MiInitializeNonPagedPool@0 005f7fec f   mm:allocpag.obj
 0014:000101d8       _MiAddExpansionNonPagedPool@12 005f81d8 f   mm:allocpag.obj
 0014:000102bc       _MiSyncCachedRanges@0      005f82bc f   mm:allocpag.obj
 0014:00010346       _MiInitializeCommitment@0  005f8346 f   mm:mmquota.obj
 0014:00010362       _MiStartZeroPageWorkers@0  005f8362 f   mm:zeropage.obj
 0014:000103a8       _MxGetNextPage@8           005f83a8 f   mm:init386.obj
 0014:00010434       _MxConvertToLargePage@8    005f8434 f   mm:init386.obj
 0014:0001065a       _MiReportPhysicalMemory@0  005f865a f   mm:init386.obj
 0014:000107fe       _MiIsRegularMemory@8       005f87fe f   mm:init386.obj
 0014:000108a0       _MiFindDescriptor@8        005f88a0 f   mm:init386.obj
 0014:000108ec       _MiInitMachineDependent@4  005f88ec f   mm:init386.obj
 0014:00012430       _MiSessionWideInitializeAddresses@0 005fa430 f   mm:sessload.obj
 0014:00012492       _RtlInitializeExceptionLog@4 005fa492 f   ntosrtl:excptdbg.obj
 0014:000124c8       _RtlDeNormalizeProcessParams@4 005fa4c8 f   ntosrtl:rtlexec.obj
 0014:00012554       _RtlpOpenImageFile@16      005fa554 f   ntosrtl:rtlexec.obj
 0014:000125d8       _RtlCreateUserProcess@40   005fa5d8 f   ntosrtl:rtlexec.obj
 0014:00012962       _RtlQueryEnvironmentVariable_U@12 005fa962 f   ntosrtl:environ.obj
 0014:00012c64       _SepInitializePrivilegeFilter@4 005fac64 f   ntosse:seaudit.obj
 0014:00012c8c       _SepInitSystemDacls@0      005fac8c f   ntosse:seglobal.obj
 0014:00013020       _SepInitializePrivilegeSets@0 005fb020 f   ntosse:seglobal.obj
 0014:000130f2       _SepInitializeWorkList@0   005fb0f2 f   ntosse:seglobal.obj
 0014:00013114       _SepVariableInitialization@0 005fb114 f   ntosse:seglobal.obj
 0014:00013d70       _SeMakeSystemToken@0       005fbd70 f   ntosse:token.obj
 0014:0001421e       _SeMakeAnonymousLogonTokenNoEveryone@0 005fc21e f   ntosse:token.obj
 0014:0001437c       _SeMakeAnonymousLogonToken@0 005fc37c f   ntosse:token.obj
 0014:0001451e       _SepTokenInitialization@0  005fc51e f   ntosse:token.obj
 0014:00014596       _SepInitializationPhase0@0 005fc596 f   ntosse:seinit.obj
 0014:0001465e       _SepInitializationPhase1@0 005fc65e f   ntosse:seinit.obj
 0014:000147fc       _SeInitSystem@0            005fc7fc f   ntosse:seinit.obj
 0014:00014826       _SepRmInitPhase0@0         005fc826 f   ntosse:rmmain.obj
 0014:00014870       _SeRmInitPhase1@0          005fc870 f   ntosse:rmmain.obj
 0014:000149b4       _SepRmDbInitialization@0   005fc9b4 f   ntosse:rmvars.obj
 0014:00014af6       _SepAdtInitializeCrashOnFail@0 005fcaf6 f   ntosse:adtinit.obj
 0014:00014bd0       _SepAdtInitializePrivilegeAuditing@0 005fcbd0 f   ntosse:adtinit.obj
 0014:00014d4a       _SepAdtInitializeAuditingOptions@0 005fcd4a f   ntosse:adtinit.obj
 0014:00014d84       _ObpInitStackTrace@0       005fcd84 f   ob:obref.obj
 0014:00014e70       _ObpInitSecurityDescriptorCache@0 005fce70 f   ob:obsdata.obj
 0014:00014e92       _ObpGetDosDevicesProtection@4 005fce92 f   ob:obinit.obj
 0014:0001504a       _ObpFreeDosDevicesProtection@4 005fd04a f   ob:obinit.obj
 0014:000150ca       _ObpCreateDosDevicesDirectory@0 005fd0ca f   ob:obinit.obj
 0014:000152e8       _ObInitSystem@0            005fd2e8 f   ob:obinit.obj
 0014:00015c12       _PsInitializeQuotaSystem@0 005fdc12 f   ps:psquota.obj
 0014:00015c64       _PspLookupSystemDllEntryPoint@8 005fdc64 f   ps:psinit.obj
 0014:00015cb4       _PspInitPhase0@4           005fdcb4 f   ps:psinit.obj
 0014:000160b0       _PspInitializeSystemDll@0  005fe0b0 f   ps:psinit.obj
 0014:00016100       _PspInitPhase1@4           005fe100 f   ps:psinit.obj
 0014:00016118       _PsInitSystem@8            005fe118 f   ps:psinit.obj
 0014:00016152       _PspLdtInitialize@0        005fe152 f   ps:psldt.obj
 0014:00016166       _PspInitializeJobStructuresPhase1@0 005fe166 f   ps:psjob.obj
 0014:00016188       _PspInitializeJobStructures@0 005fe188 f   ps:psjob.obj
 0014:00016226       _PspVdmInitialize@0        005fe226 f   ps:psvdm.obj
 0014:0001633e       _PspLookupKernelUserEntryPoints@0 005fe33e f   ps:kulookup.obj
 0014:00016438       _WMIInitialize@8           005fe438 f   wmi:api.obj
 0014:0001648c       _WmipCreateAdminSD@4       005fe48c f   wmi:secure.obj
 0014:00016578       _WmipInitializeSecurity@0  005fe578 f   wmi:secure.obj
 0014:00016928       _WmipStartGlobalLogger@0   005fe928 f   wmi:globalog.obj
 0014:00016d46       _WmipDriverEntry@8         005fed46 f   wmi:wmi.obj
 0014:00016fcc       _WmipRegisterFirmwareProviders@0 005fefcc f   wmi:provider.obj
 0014:00017028       _WmipInitializeRegistration@4 005ff028 f   wmi:register.obj
 0014:0001708a       _WmipInitializeNotifications@0 005ff08a f   wmi:notify.obj
 0014:000170e0       _WmipInitializeDataStructs@0 005ff0e0 f   wmi:ds.obj
 0014:00017312       _ExInitializeTimeRefresh@0 005ff312 f   ntoswrk:SYSTIME.obj
 0014:00017602       _ExpSystemOK@8             005ff602 f   ntoswrk:EXSCAN.obj
 0014:000181e8       _ExInitSystemPhase2@0      006001e8 f   ntoswrk:EXSCAN.obj
 0014:0001820a       _HeadlessInit@4            0060020a f   ntoswrk:HDLSTERM.obj
 0014:0001841a       _InbvIndicateProgress@0    0060041a f   ntoswrk:BOOTVID.obj
 0014:00018482       _FindBitmapResource@8      00600482 f   ntoswrk:BOOTVID.obj
 0014:00018536       _InbvDriverInitialize@8    00600536 f   ntoswrk:BOOTVID.obj
 0014:000185e8       _ExBurnMemory@16           006005e8 f   ntoswrk:INIT.obj
 0014:0001866a       _ExpIsLoaderValid@4        0060066a f   ntoswrk:INIT.obj
 0014:00018852       _CmpInitSystemVersion@8    00600852 f   ntoswrk:INIT.obj
 0014:000192fc       _IopInitializePlugPlayNotification@0 006012fc f   ntoswrk:NOTIFY.obj
 0014:000193ac       _IopInitializeResourceMap@4 006013ac f   ntoswrk:REPORT.obj
 0014:00019662       _IoReportHalResourceUsage@16 00601662 f   ntoswrk:REPORT.obj
 0014:000197bc       _IopReportBootResources@12 006017bc f   ntoswrk:PNPRES.obj
 0014:0001989a       _IopAllocateLegacyBootResources@8 0060189a f   ntoswrk:PNPRES.obj
 0014:00019994       _ViTrackIrqlInitialize@0   00601994 f   ntoswrk:VERIFIER.obj
 0014:000199de       _ViFaultTracesInitialize@0 006019de f   ntoswrk:VERIFIER.obj
 0014:00019a18       _MiInitializeDriverVerifierList@0 00601a18 f   ntoswrk:VERIFIER.obj
 0014:00019be2       _MiResolveVerifierExports@8 00601be2 f   ntoswrk:VERIFIER.obj
 0014:00019cde       _MiReEnableVerifier@4      00601cde f   ntoswrk:VERIFIER.obj
 0014:00019ddc       _MiEnableKernelVerifier@0  00601ddc f   ntoswrk:VERIFIER.obj
 0014:00019e76       _MiReApplyVerifierToLoadedModules@4 00601e76 f   ntoswrk:VERIFIER.obj
 0014:00019f20       _MiInitializeVerifyingComponents@4 00601f20 f   ntoswrk:VERIFIER.obj
 0014:0001a18e       _PopInitShutdownList@0     0060218e f   ntoswrk:POSHTDWN.obj
 0014:0001a1f6       _RtlInitializeRangeListPackage@0 006021f6 f   ntoswrk:RANGE.obj
 0014:0001a218       _VfDdiInit@0               00602218 f   ntoswrk:VFDDI.obj
 0014:0001a228       _PopRegisterForDeviceNotification@8 00602228 f   ntoswrk:POINIT.obj
 0014:0001a252       _PoInitSystem@4            00602252 f   ntoswrk:POINIT.obj
 0014:0001a68a       _PoInitDriverServices@4    0060268a f   ntoswrk:POINIT.obj
 0014:0001a734       _CmpGetBiosDate@16         00602734 f   ntoswrk:INIT386.obj
 0014:0001a996       _CmpGetBiosVersion@12      00602996 f   ntoswrk:INIT386.obj
 0014:0001aae6       _CmpGetAcpiBiosVersion@4   00602ae6 f   ntoswrk:INIT386.obj
 0014:0001ab48       _CmpGetAcpiBiosInformation@4 00602b48 f   ntoswrk:INIT386.obj
 0014:0001abc6       _CmpPerformMachineIdentification@4 00602bc6 f   ntoswrk:INIT386.obj
 0014:0001ae04       _CmpInitializeMachineDependentConfiguration@4 00602e04 f   ntoswrk:INIT386.obj
 0014:0001bc7c       _MiInitializeSpecialPool@4 00603c7c f   ntoswrk:SPECPOOL.obj
 0014:0001bdcc       _CcPfInitializePrefetcher@0 00603dcc f   ntoswrk:PREFETCH.obj
 0014:0001be42       _PipPnPDriverEntry@8       00603e42 f   ntoswrk:PNPINIT.obj
 0014:0001be80       _PipDetermineDefaultInterfaceType@0 00603e80 f   ntoswrk:PNPINIT.obj
 0014:0001bee4       _PipCreateEntry@4          00603ee4 f   ntoswrk:PNPINIT.obj
 0014:0001bf44       _PipFreeGroupTree@4        00603f44 f   ntoswrk:PNPINIT.obj
 0014:0001bf84       _PipAddDevicesToBootDriverWorker@12 00603f84 f   ntoswrk:PNPINIT.obj
 0014:0001bfb6       _PipLookupGroupName@8      00603fb6 f   ntoswrk:PNPINIT.obj
 0014:0001c10c       _PipGetDriverTagPriority@4 0060410c f   ntoswrk:PNPINIT.obj
 0014:0001c282       _PipInsertDriverList@8     00604282 f   ntoswrk:PNPINIT.obj
 0014:0001c2bc       _PipNotifySetupDevices@4   006042bc f   ntoswrk:PNPINIT.obj
 0014:0001c35c       _PipWaitForBootDevicesStarted@0 0060435c f   ntoswrk:PNPINIT.obj
 0014:0001c378       _PipWaitForBootDevicesDeleted@0 00604378 f   ntoswrk:PNPINIT.obj
 0014:0001c394       _PipLoadBootFilterDriver@16 00604394 f   ntoswrk:PNPINIT.obj
 0014:0001c518       _PiInitCacheGroupInformation@0 00604518 f   ntoswrk:PNPINIT.obj
 0014:0001c5c6       _PiInitReleaseCachedGroupInformation@0 006045c6 f   ntoswrk:PNPINIT.obj
 0014:0001c5fa       _PpInitGetGroupOrderIndex@4 006045fa f   ntoswrk:PNPINIT.obj
 0014:0001c6d2       _PiInitPhase0@0            006046d2 f   ntoswrk:PNPINIT.obj
 0014:0001c728       _PiInitPhase1@0            00604728 f   ntoswrk:PNPINIT.obj
 0014:0001c8ea       _IopInitializePlugPlayServices@8 006048ea f   ntoswrk:PNPINIT.obj
 0014:0001cfb8       _PipCheckDependencies@4    00604fb8 f   ntoswrk:PNPINIT.obj
 0014:0001d03a       _PipAddDevicesToBootDriver@4 0060503a f   ntoswrk:PNPINIT.obj
 0014:0001d09a       _IopInitializeSystemDrivers@0 0060509a f   ntoswrk:PNPINIT.obj
 0014:0001d276       _PpInitSystem@0            00605276 f   ntoswrk:PNPINIT.obj
 0014:0001d334       _IopStartRamdisk@4         00605334 f   ntoswrk:PNPINIT.obj
 0014:0001d616       _IopInitializeBootDrivers@8 00605616 f   ntoswrk:PNPINIT.obj
 0014:0001dc4c       _KeI386VdmInitialize@0     00605c4c f   ntoswrk:VDMKE.obj
 0014:0001dd0c       _IoVerifierInit@4          00605d0c f   ntoswrk:IOVERIFIER.obj
 0014:0001dda4       _PipFreeUnicodeStringList@8 00605da4 f   ntoswrk:PNPSUBS.obj
 0014:0001dde4       _PpBusTypeGuidInitialize@0 00605de4 f   ntoswrk:PNPSUBS.obj
 0014:0001de44       _PipRegMultiSzToUnicodeStrings@12 00605e44 f   ntoswrk:PNPSUBS.obj
 0014:0001e006       _PpInitializeDeviceReferenceTable@0 00606006 f   ntoswrk:PNPSUBS.obj
 0014:0001e04a       _IopProtectSystemPartition@4 0060604a f   ntoswrk:ARCSEC.obj
 0014:0001e054       _PiLastGoodRevertCopyCallback@16 00606054 f   ntoswrk:PPLASTGOOD.obj
 0014:0001e0f4       _PiLastGoodCopyKeyContents@12 006060f4 f   ntoswrk:PPLASTGOOD.obj
 0014:0001e2d2       _PiLastGoodRevertLastKnownDirectory@8 006062d2 f   ntoswrk:PPLASTGOOD.obj
 0014:0001e620       _PpLastGoodDoBootProcessing@0 00606620 f   ntoswrk:PPLASTGOOD.obj
 0014:0001e70a       _IopAssignNetworkDriveLetter@4 0060670a f   ntoswrk:NETBOOT.obj
 0014:0001e842       _IopStartTcpIpForRemoteBoot@4 00606842 f   ntoswrk:NETBOOT.obj
 0014:0001e962       _IopIsRemoteBootCard@12    00606962 f   ntoswrk:NETBOOT.obj
 0014:0001ecea       _IopSetupRemoteBootCard@12 00606cea f   ntoswrk:NETBOOT.obj
 0014:0001f524       _IopWriteIpAddressToRegistry@12 00607524 f   ntoswrk:NETBOOT.obj
 0014:0001f5d2       _htonl@4                   006075d2 f i ntoswrk:NETBOOT.obj
 0014:0001f66e       _IopCacheNetbiosNameForIpAddress@4 0060766e f   ntoswrk:NETBOOT.obj
 0014:0001f7d0       _IopTCPQueryInformationEx@20 006077d0 f   ntoswrk:NETBOOT.obj
 0014:0001f88e       _IopTCPSetInformationEx@16 0060788e f   ntoswrk:NETBOOT.obj
 0014:0001fd44       _IopAddRemoteBootValuesToRegistry@4 00607d44 f   ntoswrk:NETBOOT.obj
 0014:00020322       _IopSetDefaultGateway@4    00608322 f   ntoswrk:NETBOOT.obj
 0014:00020748       _IopStartNetworkForRemoteBoot@4 00608748 f   ntoswrk:NETBOOT.obj
 0014:00020d9c       _KiInitProcessor@20        00608d9c f   ntoswrk:ALLPROCHAL.obj
 0014:00020fe4       _KiLargePageSafetyCheck@0  00608fe4 f   ntoswrk:ALLPROCHAL.obj
 0014:00020ffa       @PoInitializePrcb@4        00608ffa f   ntoswrk:PIDLE.obj
 0014:00021098       _MiTriageSystem@4          00609098 f   ntoswrk:MMTRIAGE.obj
 0014:000212f6       _MiTriageAddDrivers@4      006092f6 f   ntoswrk:MMTRIAGE.obj
 0014:000213c2       _MiMemorySan@4             006093c2 f   ntoswrk:MMSAN.obj
 0014:000214b4       _VfHalVerifierInitialize@0 006094b4 f   ntoswrk:VFHAL.obj
 0014:0002152e       @VfBugcheckInit@0          0060952e f   ntoswrk:VFBUGCHECK.obj
 0014:000215a0       _CcPfParametersSetDefaults@4 006095a0 f   ntoswrk:PREFPARM.obj
 0014:00021744       _CcPfParametersInitialize@4 00609744 f   ntoswrk:PREFPARM.obj
 0014:000217f6       _CmpMatchDescription@8     006097f6 f   ntoswrk:RULES.obj
 0014:0002187a       _CmpMatchInstallRule@12    0060987a f   ntoswrk:RULES.obj
 0014:000218b8       _CmpGetInfData@24          006098b8 f   ntoswrk:RULES.obj
 0014:00021a1e       _CmpMapPhysicalAddress@12  00609a1e f   ntoswrk:RULES.obj
 0014:00021af0       _CmpCheckOperator@12       00609af0 f   ntoswrk:RULES.obj
 0014:00021c0e       _CmpFindPattern@24         00609c0e f   ntoswrk:RULES.obj
 0014:00021c90       _CmpGetPnPBIOSTableAddress@0 00609c90 f   ntoswrk:RULES.obj
 0014:00021d20       _CmpGetRegistryValue@12    00609d20 f   ntoswrk:RULES.obj
 0014:00021db4       _CmpMatchInfList@12        00609db4 f   ntoswrk:RULES.obj
 0014:00021e1c       _CmpMatchDateRule@12       00609e1c f   ntoswrk:RULES.obj
 0014:00021f7c       _CmpMatchMemoryRule@12     00609f7c f   ntoswrk:RULES.obj
 0014:00022078       _CmpMatchSearchRule@12     0060a078 f   ntoswrk:RULES.obj
 0014:000221c8       _CmpMatchNextMatchRule@12  0060a1c8 f   ntoswrk:RULES.obj
 0014:000222a8       _CmpMatchPointerRule@12    0060a2a8 f   ntoswrk:RULES.obj
 0014:0002251e       _CmpMatchOemIdRule@12      0060a51e f   ntoswrk:RULES.obj
 0014:000226d6       _CmpMatchPModeRule@12      0060a6d6 f   ntoswrk:RULES.obj
 0014:000227ce       _CmpMatchRmPmSameRule@12   0060a7ce f   ntoswrk:RULES.obj
 0014:0002281c       _CmpFindRSDTTable@4        0060a81c f   ntoswrk:RULES.obj
 0014:000229e4       _CmpFindACPITable@8        0060a9e4 f   ntoswrk:RULES.obj
 0014:00022ba8       _CmpMatchAcpiOemIdRule@12  0060aba8 f   ntoswrk:RULES.obj
 0014:00022c86       _CmpMatchAcpiOemTableIdRule@12 0060ac86 f   ntoswrk:RULES.obj
 0014:00022d38       _CmpMatchAcpiOemRevisionRule@12 0060ad38 f   ntoswrk:RULES.obj
 0014:00022dca       _CmpMatchAcpiRevisionRule@12 0060adca f   ntoswrk:RULES.obj
 0014:00022e5e       _CmpMatchAcpiCreatorRevisionRule@12 0060ae5e f   ntoswrk:RULES.obj
 0014:00022ef0       _MapperFindIdentMatch@8    0060aef0 f   ntoswrk:MAPPER.obj
 0014:00022f22       _MapperTranslatePnPId@8    0060af22 f   ntoswrk:MAPPER.obj
 0014:00022fb2       _MapperPeripheralCallback@44 0060afb2 f   ntoswrk:MAPPER.obj
 0014:0002305a       _MapperCallback@44         0060b05a f   ntoswrk:MAPPER.obj
 0014:0002327a       _MapperProcessFirmwareTree@4 0060b27a f   ntoswrk:MAPPER.obj
 0014:000232fa       _MapperFreeList@0          0060b2fa f   ntoswrk:MAPPER.obj
 0014:0002333c       _MapperAdjustResourceList@12 0060b33c f   ntoswrk:MAPPER.obj
 0014:00023548       _ComPortDBAdd@8            0060b548 f   ntoswrk:MAPPER.obj
 0014:00023742       _MapperMarkKey@12          0060b742 f   ntoswrk:MAPPER.obj
 0014:0002399a       _MapperSeedKey@16          0060b99a f   ntoswrk:MAPPER.obj
 0014:00023d46       _MapperConstructRootEnumTree@4 0060bd46 f   ntoswrk:MAPPER.obj
 0014:00023fc6       _MapperPhantomizeDetectedComPorts@0 0060bfc6 f   ntoswrk:MAPPER.obj
 0014:00024128       _EisaBuildSlotsResources@16 0060c128 f   ntoswrk:PNPEISA.obj
 0014:0002424e       _EisaGetEisaDevicesResources@8 0060c24e f   ntoswrk:PNPEISA.obj
 0014:000244f4       _EisaBuildEisaDeviceNode@0 0060c4f4 f   ntoswrk:PNPEISA.obj
 0014:000247aa       _PnPBiosExpandProductId@8  0060c7aa f   ntoswrk:PNPMAP.obj
 0014:00024852       _PnPBiosIgnoreNode@8       0060c852 f   ntoswrk:PNPMAP.obj
 0014:0002491a       _PnPGetBiosInfoValue@4     0060c91a f   ntoswrk:PNPMAP.obj
 0014:00024972       _PnPBiosCheckForExclusion@16 0060c972 f   ntoswrk:PNPMAP.obj
 0014:000249fa       _PnPBiosIoResourceListToCmResourceList@12 0060c9fa f   ntoswrk:PNPMAP.obj
 0014:00024afc       _PnPBiosExtractCompatibleIDs@16 0060cafc f   ntoswrk:PNPMAP.obj
 0014:00024be8       _PnPBiosFindMatchingDevNode@16 0060cbe8 f   ntoswrk:PNPMAP.obj
 0014:00024e74       _PnPBiosEliminateDupes@8   0060ce74 f   ntoswrk:PNPMAP.obj
 0014:00025324       _PnPBiosGetDescription@4   0060d324 f   ntoswrk:PNPMAP.obj
 0014:000253c6       _PnPBiosCopyDeviceParamKey@12 0060d3c6 f   ntoswrk:PNPMAP.obj
 0014:000255c8       _PnPBiosCheckForHardwareDisabled@8 0060d5c8 f   ntoswrk:PNPMAP.obj
 0014:0002561e       _PnPBiosFreeDevNodeInfo@8  0060d61e f   ntoswrk:PNPMAP.obj
 0014:00025694       _PpFilterNtResource@8      0060d694 f   ntoswrk:PNPMAP.obj
 0014:00025770       _PnPBiosTranslateInfo@16   0060d770 f   ntoswrk:PNPMAP.obj
 0014:000259ca       _PnPBiosCopyIoDecode@8     0060d9ca f   ntoswrk:PNPMAP.obj
 0014:00025ddc       _PnPBiosWriteInfo@8        0060dddc f   ntoswrk:PNPMAP.obj
 0014:0002639a       _PnPBiosMapper@0           0060e39a f   ntoswrk:PNPMAP.obj
 0014:00026418       _PpProfileInit@0           0060e418 f   ntoswrk:PPPROFILE.obj
 0014:00026464       _PpReleaseBootDDB@0        0060e464 f   ntoswrk:PPDRVDB.obj
 0014:000264e4       _PiInitializeDDBCache@0    0060e4e4 f   ntoswrk:PPDRVDB.obj
 0014:00026582       _PpInitializeBootDDB@4     0060e582 f   ntoswrk:PPDRVDB.obj
 0014:000266d0       @VfIrpInit@0               0060e6d0 f   ntoswrk:VFIRP.obj
 0014:000266ee       @VfInitVerifier@4          0060e6ee f   ntoswrk:VFINIT.obj
 0014:0002676c       _IopFileUtilWalkDirectoryTreeHelper@28 0060e76c f   ntoswrk:IOFILEUTIL.obj
 0014:000269ce       _IopFileUtilClearAttributes@8 0060e9ce f   ntoswrk:IOFILEUTIL.obj
 0014:00026a7e       _IopFileUtilRename@12      0060ea7e f   ntoswrk:IOFILEUTIL.obj
 0014:00026b66       _IopFileUtilWalkDirectoryTreeTopDown@16 0060eb66 f   ntoswrk:IOFILEUTIL.obj
 0014:00026c64       _TriagepGetPageSize@4      0060ec64 f   ntoswrk:TRIAGE.obj
 0014:00026ca8       _TriagepVerifyDump@4       0060eca8 f   ntoswrk:TRIAGE.obj
 0014:00026d28       _TriageGetDriverCount@8    0060ed28 f   ntoswrk:TRIAGE.obj
 0014:00026d5e       _TriageGetBugcheckData@24  0060ed5e f   ntoswrk:TRIAGE.obj
 0014:00026daa       _VfMajorInit@0             0060edaa f   ntoswrk:VFMAJOR.obj
 0014:00026dc4       _CmpAppendSection@12       0060edc4 f   ntoswrk:PARSEINI.obj
 0014:00026f04       _CmpAppendLine@12          0060ef04 f   ntoswrk:PARSEINI.obj
 0014:00026f5e       _CmpAppendValue@12         0060ef5e f   ntoswrk:PARSEINI.obj
 0014:00026fb6       _CmpGetToken@12            0060efb6 f   ntoswrk:PARSEINI.obj
 0014:000271ac       _CmpParseInfBuffer@12      0060f1ac f   ntoswrk:PARSEINI.obj
 0014:0002753a       _CmpProcessForSimpleStringSub@8 0060f53a f   ntoswrk:PARSEINI.obj
 0014:000275c8       _CmpFreeValueList@4        0060f5c8 f   ntoswrk:PARSEINI.obj
 0014:00027604       _CmpFreeLineList@4         0060f604 f   ntoswrk:PARSEINI.obj
 0014:00027648       _CmpFreeSectionList@4      0060f648 f   ntoswrk:PARSEINI.obj
 0014:0002768c       _CmpSearchValueInLine@8    0060f68c f   ntoswrk:PARSEINI.obj
 0014:0002768c       _CmpSearchLineInSectionByIndex@8 0060f68c f   ntoswrk:PARSEINI.obj
 0014:000276b8       _CmpSearchSectionByName@8  0060f6b8 f   ntoswrk:PARSEINI.obj
 0014:00027730       _CmpOpenInfFile@8          0060f730 f   ntoswrk:PARSEINI.obj
 0014:0002774c       _CmpCloseInfFile@4         0060f74c f   ntoswrk:PARSEINI.obj
 0014:00027770       _CmpSearchInfSection@8     0060f770 f   ntoswrk:PARSEINI.obj
 0014:0002778e       _CmpGetKeyName@12          0060f78e f   ntoswrk:PARSEINI.obj
 0014:000277be       _CmpSearchInfLine@12       0060f7be f   ntoswrk:PARSEINI.obj
 0014:000277f0       _CmpGetSectionLineIndex@16 0060f7f0 f   ntoswrk:PARSEINI.obj
 0014:00027834       _CmpGetSectionLineIndexValueCount@12 0060f834 f   ntoswrk:PARSEINI.obj
 0014:0002786e       _CmpGetIntField@20         0060f86e f   ntoswrk:PARSEINI.obj
 0014:000278ac       _CmpGetBinaryField@28      0060f8ac f   ntoswrk:PARSEINI.obj
 0014:00027958       _CmpGenInstall@8           0060f958 f   ntoswrk:GENINST.obj
 0014:00027a2c       _CmpProcessReg@12          0060fa2c f   ntoswrk:GENINST.obj
 0014:00027a7e       _CmpGetAddRegInfData@28    0060fa7e f   ntoswrk:GENINST.obj
 0014:00027d24       _CmpOpenRegKey@24          0060fd24 f   ntoswrk:GENINST.obj
 0014:00027e3a       _CmpAppendStringToMultiSz@16 0060fe3a f   ntoswrk:GENINST.obj
 0014:00027f64       _CmpProcessAddRegLine@12   0060ff64 f   ntoswrk:GENINST.obj
 0014:000281f4       _CmpProcessDelRegLine@12   006101f4 f   ntoswrk:GENINST.obj
 0014:000282c6       _CmpProcessBitRegLine@12   006102c6 f   ntoswrk:GENINST.obj
 0014:000284b0       @VfIrpDatabaseInit@0       006104b0 f   ntoswrk:VFIRPDB.obj
 0014:000284ec       _VfGenericInit@0           006104ec f   ntoswrk:VFGENERIC.obj
 0014:0002852c       _VfWmiInit@0               0061052c f   ntoswrk:VFWMI.obj
 0014:0002855c       _VfPowerInit@0             0061055c f   ntoswrk:VFPOWER.obj
 0014:00028590       _VfPnpInit@0               00610590 f   ntoswrk:VFPNP.obj
 0014:000285c8       _KeNumaInitialize@0        006105c8 f   ke:kiinit.obj
 0014:000285c8       _RtlAcquirePebLock@0       006105c8 f   ntosrtl:eballoc.obj
 0014:000285c8       _VfRandomInit@0            006105c8 f   ntoswrk:VFRANDOM.obj
 0014:000285c8       _RtlReleasePebLock@0       006105c8 f   ntosrtl:eballoc.obj
 0014:000285ce       _CmpWalkPath@12            006105ce f   config:cmcontrl.obj
 0014:00028646       _CmpConvertLangId@8        00610646 f   config:cmcontrl.obj
 0014:000286c6       _CmGetSystemControlValues@8 006106c6 f   config:cmcontrl.obj
 0014:0002891a       _DbgkInitialize@0          0061091a f   dbgk:dbgkobj.obj
 0014:00028a46       _RawInitialize@8           00610a46 f   raw:RawInit.obj
 0014:00028ba8       _MmVerifyDriverBuffer      00610ba8     mm:miglobal.obj
 0014:00028fa8       _MmVerifyDriverBufferType  00610fa8     mm:miglobal.obj
 0014:00028fac       _MmVerifyDriverLevel       00610fac     mm:miglobal.obj
 0014:00028fb0       _MmCritsectTimeoutSeconds  00610fb0     mm:miglobal.obj
 0014:00028fb4       _MmLargePageDriverBufferType 00610fb4     mm:miglobal.obj
 0014:00028fb8       ??_C@_04NFCLHFBF@MPSA?$AA@ 00610fb8     config:cmdat.obj
 0014:00028fc0       ??_C@_05GOPDEFGO@MPIPI?$AA@ 00610fc0     config:cmdat.obj
 0014:00028fc8       ??_C@_04OMHCFIAB@CBUS?$AA@ 00610fc8     config:cmdat.obj
 0014:00028fd0       ??_C@_06HHGBBCNE@PCMCIA?$AA@ 00610fd0     config:cmdat.obj
 0014:00028fd8       ??_C@_03MFJBNFEO@VME?$AA@  00610fd8     config:cmdat.obj
 0014:00028fdc       ??_C@_03EGNBOIJE@PCI?$AA@  00610fdc     config:cmdat.obj
 0014:00028fe0       ??_C@_03CMHLONNO@MCA?$AA@  00610fe0     config:cmdat.obj
 0014:00028fe4       ??_C@_03LPDPNJPJ@ISA?$AA@  00610fe4     config:cmdat.obj
 0014:00028fe8       _CmClassString             00610fe8     config:cmdat.obj
 0014:00029008       ??_C@_1BE@NGPHOPKF@?$AAU?$AAn?$AAd?$AAe?$AAf?$AAi?$AAn?$AAe?$AAd?$AA?$AA@ 00611008     config:cmdat.obj
 0014:0002901c       ??_C@_1BI@LJNBFPFJ@?$AAM?$AAe?$AAm?$AAo?$AAr?$AAy?$AAC?$AAl?$AAa?$AAs?$AAs?$AA?$AA@ 0061101c     config:cmdat.obj
 0014:00029034       ??_C@_1BG@LHLFBPCH@?$AAP?$AAe?$AAr?$AAi?$AAp?$AAh?$AAe?$AAr?$AAa?$AAl?$AA?$AA@ 00611034     config:cmdat.obj
 0014:0002904c       ??_C@_1BG@IGJNEGIG@?$AAC?$AAo?$AAn?$AAt?$AAr?$AAo?$AAl?$AAl?$AAe?$AAr?$AA?$AA@ 0061104c     config:cmdat.obj
 0014:00029064       ??_C@_1BA@PCIIBPJI@?$AAA?$AAd?$AAa?$AAp?$AAt?$AAe?$AAr?$AA?$AA@ 00611064     config:cmdat.obj
 0014:00029074       ??_C@_1M@ELMJBOIA@?$AAC?$AAa?$AAc?$AAh?$AAe?$AA?$AA@ 00611074     config:cmdat.obj
 0014:00029080       ??_C@_1BE@BJHLLGKN@?$AAP?$AAr?$AAo?$AAc?$AAe?$AAs?$AAs?$AAo?$AAr?$AA?$AA@ 00611080     config:cmdat.obj
 0014:00029094       ??_C@_1O@GINMMDNN@?$AAS?$AAy?$AAs?$AAt?$AAe?$AAm?$AA?$AA@ 00611094     config:cmdat.obj
 0014:000290a4       _ExpCallbackMapping        006110a4     ex:callback.obj
 0014:000290b4       _ExpWindowStationMapping   006110b4     ex:win32.obj
 0014:000290c4       _ExpDesktopMapping         006110c4     ex:win32.obj
 0014:000290d4       _ExpEventMapping           006110d4     ex:event.obj
 0014:000290e4       _ExpSemaphoreMapping       006110e4     ex:semphore.obj
 0014:000290f4       _ExpWstrCallback           006110f4     ex:exdata.obj
 0014:00029108       _ExpInitializeCallback     00611108     ex:exdata.obj
 0014:00029128       ??_C@_1CK@DOCFKPNP@?$AA?2?$AAC?$AAa?$AAl?$AAl?$AAb?$AAa?$AAc?$AAk?$AA?2?$AAP?$AAo?$AAw?$AAe?$AAr?$AAS?$AAt?$AAa?$AAt?$AAe@ 00611128     ex:exdata.obj
 0014:00029154       ??_C@_1DC@KMLCFGFF@?$AA?2?$AAC?$AAa?$AAl?$AAl?$AAb?$AAa?$AAc?$AAk?$AA?2?$AAS?$AAe?$AAt?$AAS?$AAy?$AAs?$AAt?$AAe?$AAm?$AAS@ 00611154     ex:exdata.obj
 0014:00029188       ??_C@_1DA@PGBCEJOI@?$AA?2?$AAC?$AAa?$AAl?$AAl?$AAb?$AAa?$AAc?$AAk?$AA?2?$AAS?$AAe?$AAt?$AAS?$AAy?$AAs?$AAt?$AAe?$AAm?$AAT@ 00611188     ex:exdata.obj
 0014:000291b8       _ExpProfileMapping         006111b8     ex:profile.obj
 0014:000291c8       _ExpTimerMapping           006111c8     ex:timer.obj
 0014:000291d8       _ExpMutantMapping          006111d8     ex:mutant.obj
 0014:000291e8       _ExpEventPairMapping       006111e8     ex:eventpr.obj
 0014:000291f8       _IopWstrHal                006111f8     iomgr:iodata.obj
 0014:00029230       _IopWstrSystem             00611230     iomgr:iodata.obj
 0014:00029254       _IopWstrPhysicalMemory     00611254     iomgr:iodata.obj
 0014:00029274       _IopWstrSpecialMemory      00611274     iomgr:iodata.obj
 0014:00029288       _IopWstrLoaderReservedMemory 00611288     iomgr:iodata.obj
 0014:000292a8       _IopCompletionMapping      006112a8     iomgr:ioinit.obj
 0014:000292b8       _LpcpPortMapping           006112b8     lpc:lpcinit.obj
 0014:000292c8       _MiSectionMapping          006112c8     mm:sectsup.obj
 0014:000292d8       _NullString                006112d8     ntosrtl:rtlexec.obj
 0014:000292e0       ??_C@_11LOCGONAA@?$AA?$AA@ 006112e0     ntosrtl:rtlexec.obj
 0014:000292e4       _SepTokenMapping           006112e4     ntosse:token.obj
 0014:000292f4       _ObpTypeMapping            006112f4     ob:obinit.obj
 0014:00029304       _ObpDirectoryMapping       00611304     ob:obinit.obj
 0014:00029314       _ObpSymbolicLinkMapping    00611314     ob:obinit.obj
 0014:00029324       _PspProcessMapping         00611324     ps:psinit.obj
 0014:00029334       _PspThreadMapping          00611334     ps:psinit.obj
 0014:00029344       _PspJobMapping             00611344     ps:psinit.obj
 0014:000293c0       _MiKernelVerifierThunks    006113c0     ntoswrk:VERIFIER.obj
 0014:00029468       ??_C@_04NGGJGLHL@?$ICSPS?$AA@ 00611468     ntoswrk:NETBOOT.obj
 0014:00029470       ??_C@_04KDPPHDCJ@?$IBSPQ?$AA@ 00611470     ntoswrk:NETBOOT.obj
 0014:00029478       ??_C@_04FNFGNALA@?$ICHLR?$AA@ 00611478     ntoswrk:NETBOOT.obj
 0014:00029480       ??_C@_04DBNLPJKD@?$IBHLQ?$AA@ 00611480     ntoswrk:NETBOOT.obj
 0014:00029488       ??_C@_04HGOCEMMH@?$ICNCE?$AA@ 00611488     ntoswrk:NETBOOT.obj
 0014:00029490       ??_C@_04HDGBMIFB@?$ICNCR?$AA@ 00611490     ntoswrk:NETBOOT.obj
 0014:00029498       ??_C@_04BPOMOBEC@?$IBNCQ?$AA@ 00611498     ntoswrk:NETBOOT.obj
 0014:000294a0       ??_C@_04OLOFLFCH@?$ICNAK?$AA@ 006114a0     ntoswrk:NETBOOT.obj
 0014:000294a8       ??_C@_04KEBIMAFK@?$IBOFF?$AA@ 006114a8     ntoswrk:NETBOOT.obj
 0014:000294b0       ??_C@_04PMKBILJM@?$ICUNR?$AA@ 006114b0     ntoswrk:NETBOOT.obj
 0014:000294b8       ??_C@_04LJIEIGBH@?$ICERR?$AA@ 006114b8     ntoswrk:NETBOOT.obj
 0014:000294c0       ??_C@_04EHLOOBIE@?$ICRSP?$AA@ 006114c0     ntoswrk:NETBOOT.obj
 0014:000294c8       ??_C@_04BKOHFNH@?$IBREQ?$AA@ 006114c8     ntoswrk:NETBOOT.obj
 0014:000294d0       ??_C@_04DKMJBFMB@?$ICRSU?$AA@ 006114d0     ntoswrk:NETBOOT.obj
 0014:000294d8       ??_C@_04HOONLLHP@?$IBRQU?$AA@ 006114d8     ntoswrk:NETBOOT.obj
 0014:000294e0       ??_C@_04HEDIGNIF@?$ICRES?$AA@ 006114e0     ntoswrk:NETBOOT.obj
 0014:000294e8       ??_C@_04BBPEBGLC@?$IBAU2?$AA@ 006114e8     ntoswrk:NETBOOT.obj
 0014:000294f0       ??_C@_04CCFDNKJD@?$IBAUT?$AA@ 006114f0     ntoswrk:NETBOOT.obj
 0014:000294f8       ??_C@_04FJBPMALC@?$ICCHL?$AA@ 006114f8     ntoswrk:NETBOOT.obj
 0014:00029500       ??_C@_04HPJCICH@?$IBNEG?$AA@ 00611500     ntoswrk:NETBOOT.obj
 0014:00029508       _SearchStrings             00611508     ntoswrk:INITDAT.obj
 0014:00029568       _CmpID1                    00611568     ntoswrk:INITDAT.obj
 0014:00029574       _CmpID2                    00611574     ntoswrk:INITDAT.obj
 0014:00029598       _CmpVendorID               00611598     ntoswrk:INITDAT.obj
 0014:000295bc       _CmpProcessorNameString    006115bc     ntoswrk:INITDAT.obj
 0014:000295e4       _CmpFeatureBits            006115e4     ntoswrk:INITDAT.obj
 0014:000295fc       _CmpMHz                    006115fc     ntoswrk:INITDAT.obj
 0014:00029608       _CmpUpdateSignature        00611608     ntoswrk:INITDAT.obj
 0014:0002962c       _CmDisabledFloatingPointProcessor 0061162c     ntoswrk:INITDAT.obj
 0014:0002966c       _CmPhysicalAddressExtension 0061166c     ntoswrk:INITDAT.obj
 0014:000296a0       ??_C@_03KGCGBEPJ@v?59?$AA@ 006116a0     ntoswrk:INITDAT.obj
 0014:000296a4       ??_C@_03LPDNCFLI@v?58?$AA@ 006116a4     ntoswrk:INITDAT.obj
 0014:000296a8       ??_C@_03DIKFDJHH@v?57?$AA@ 006116a8     ntoswrk:INITDAT.obj
 0014:000296ac       ??_C@_03CBLOAIDG@v?56?$AA@ 006116ac     ntoswrk:INITDAT.obj
 0014:000296b0       ??_C@_03KJDFLPF@v?55?$AA@  006116b0     ntoswrk:INITDAT.obj
 0014:000296b4       ??_C@_03BDIIGKLE@v?54?$AA@ 006116b4     ntoswrk:INITDAT.obj
 0014:000296b8       ??_C@_03FMMJPMHD@v?53?$AA@ 006116b8     ntoswrk:INITDAT.obj
 0014:000296bc       ??_C@_03EFNCMNDC@v?52?$AA@ 006116bc     ntoswrk:INITDAT.obj
 0014:000296c0       ??_C@_03GOPPJOPB@v?51?$AA@ 006116c0     ntoswrk:INITDAT.obj
 0014:000296c4       ??_C@_03HHOEKPLA@v?50?$AA@ 006116c4     ntoswrk:INITDAT.obj
 0014:000296c8       ??_C@_02FOEGLPLF@v9?$AA@   006116c8     ntoswrk:INITDAT.obj
 0014:000296cc       ??_C@_02EHFNIOPE@v8?$AA@   006116cc     ntoswrk:INITDAT.obj
 0014:000296d0       ??_C@_02MAMFJCDL@v7?$AA@   006116d0     ntoswrk:INITDAT.obj
 0014:000296d4       ??_C@_02NJNOKDHK@v6?$AA@   006116d4     ntoswrk:INITDAT.obj
 0014:000296d8       ??_C@_02PCPDPALJ@v5?$AA@   006116d8     ntoswrk:INITDAT.obj
 0014:000296dc       ??_C@_02OLOIMBPI@v4?$AA@   006116dc     ntoswrk:INITDAT.obj
 0014:000296e0       ??_C@_02KEKJFHDP@v3?$AA@   006116e0     ntoswrk:INITDAT.obj
 0014:000296e4       ??_C@_02LNLCGGHO@v2?$AA@   006116e4     ntoswrk:INITDAT.obj
 0014:000296e8       ??_C@_02JGJPDFLN@v1?$AA@   006116e8     ntoswrk:INITDAT.obj
 0014:000296ec       ??_C@_02IPIEAEPM@v0?$AA@   006116ec     ntoswrk:INITDAT.obj
 0014:000296f0       ??_C@_03DIOLMKKK@Rel?$AA@  006116f0     ntoswrk:INITDAT.obj
 0014:000296f4       ??_C@_03IIMGDAHB@Rev?$AA@  006116f4     ntoswrk:INITDAT.obj
 0014:000296f8       ??_C@_03GDMIGCCC@Ver?$AA@  006116f8     ntoswrk:INITDAT.obj
 0014:000296fc       _MiTriageActionStrings     006116fc     ntoswrk:MMTRIAGE.obj
 0014:00029710       ??_C@_0CF@IDHIHGFM@Keeping?5previous?5autotriage?5sett@ 00611710     ntoswrk:MMTRIAGE.obj
 0014:00029738       ??_C@_0DA@NEIJHHKG@Driver?5Verifying?5Pre?9Windows?5200@ 00611738     ntoswrk:MMTRIAGE.obj
 0014:00029768       ??_C@_0DH@NBDPJPAE@Making?5accesses?5to?5freed?5nonpage@ 00611768     ntoswrk:MMTRIAGE.obj
 0014:000297a0       ??_C@_0BK@CKGHDJJM@System?5PTE?5usage?5tracking?$AA@ 006117a0     ntoswrk:MMTRIAGE.obj
 0014:000297bc       ??_C@_0BG@NOLDLONC@Locked?5pages?5tracking?$AA@ 006117bc     ntoswrk:MMTRIAGE.obj
 0014:000297d8       _gRuleTable                006117d8     ntoswrk:RULES.obj
 0014:00029924       ??_C@_0BE@KGNLIKIG@ACPICreatorRevision?$AA@ 00611924     ntoswrk:RULES.obj
 0014:00029938       ??_C@_0N@OJDJPBBD@ACPIRevision?$AA@ 00611938     ntoswrk:RULES.obj
 0014:00029948       ??_C@_0BA@DGOPJLCO@ACPIOemRevision?$AA@ 00611948     ntoswrk:RULES.obj
 0014:00029958       ??_C@_0P@IKJHOBPE@ACPIOemTableId?$AA@ 00611958     ntoswrk:RULES.obj
 0014:00029968       ??_C@_09BGONHAAP@ACPIOemId?$AA@ 00611968     ntoswrk:RULES.obj
 0014:00029974       ??_C@_07PNHNHBAB@Install?$AA@ 00611974     ntoswrk:RULES.obj
 0014:0002997c       ??_C@_08DNKPCABE@RmPmSame?$AA@ 0061197c     ntoswrk:RULES.obj
 0014:00029988       ??_C@_05NGMBNBBI@PMode?$AA@ 00611988     ntoswrk:RULES.obj
 0014:00029990       ??_C@_05FGHHCJOK@OemId?$AA@ 00611990     ntoswrk:RULES.obj
 0014:00029998       ??_C@_07MLEFNJG@Pointer?$AA@ 00611998     ntoswrk:RULES.obj
 0014:000299a0       ??_C@_09PJBMPODO@NextMatch?$AA@ 006119a0     ntoswrk:RULES.obj
 0014:000299ac       ??_C@_06KKEGOPHO@Search?$AA@ 006119ac     ntoswrk:RULES.obj
 0014:000299b4       ??_C@_06LEBJIAPJ@Memory?$AA@ 006119b4     ntoswrk:RULES.obj
 0014:000299bc       ??_C@_04FMEGDJGD@Date?$AA@ 006119bc     ntoswrk:RULES.obj
 0014:000299c8       _KeyboardMap               006119c8     ntoswrk:MAPPER.obj
 0014:00029a48       _PointerMap                00611a48     ntoswrk:MAPPER.obj
 0014:00029aa0       _MapperValueSeed           00611aa0     ntoswrk:MAPPER.obj
 0014:00029b00       _MapperKeySeed             00611b00     ntoswrk:MAPPER.obj
 0014:00029b30       _SerialId                  00611b30     ntoswrk:MAPPER.obj
 0014:00029b44       _ParallelId                00611b44     ntoswrk:MAPPER.obj
 0014:00029b58       _FloppyId                  00611b58     ntoswrk:MAPPER.obj
 0014:00029b6c       _ATAId                     00611b6c     ntoswrk:MAPPER.obj
 0014:00029b80       ??_C@_1BC@EPBJDGOL@?$AA?2?$AAL?$AAo?$AAg?$AAC?$AAo?$AAn?$AAf?$AA?$AA@ 00611b80     ntoswrk:MAPPER.obj
 0014:00029b94       ??_C@_1BC@JFCKOFDK@?$AA?2?$AAC?$AAo?$AAn?$AAt?$AAr?$AAo?$AAl?$AA?$AA@ 00611b94     ntoswrk:MAPPER.obj
 0014:00029ba8       ??_C@_1BA@LEPEEO@?$AAP?$AAh?$AAa?$AAn?$AAt?$AAo?$AAm?$AA?$AA@ 00611ba8     ntoswrk:MAPPER.obj
 0014:00029bb8       ??_C@_1BG@NKLOKCD@?$AAD?$AAe?$AAv?$AAi?$AAc?$AAe?$AAD?$AAe?$AAs?$AAc?$AA?$AA@ 00611bb8     ntoswrk:MAPPER.obj
 0014:00029bd0       ??_C@_1CG@BBGFOLFP@?$AAF?$AAi?$AAr?$AAm?$AAw?$AAa?$AAr?$AAe?$AAI?$AAd?$AAe?$AAn?$AAt?$AAi?$AAf?$AAi?$AAe?$AAd?$AA?$AA@ 00611bd0     ntoswrk:MAPPER.obj
 0014:00029bf8       ??_C@_1BM@BPOEEBIO@?$AAC?$AAo?$AAm?$AAp?$AAa?$AAt?$AAi?$AAb?$AAl?$AAe?$AAI?$AAD?$AAs?$AA?$AA@ 00611bf8     ntoswrk:MAPPER.obj
 0014:00029c14       ??_C@_1BG@CFLHOIBO@?$AAH?$AAa?$AAr?$AAd?$AAw?$AAa?$AAr?$AAe?$AAI?$AAD?$AA?$AA@ 00611c14     ntoswrk:MAPPER.obj
 0014:00029c2c       ??_C@_1BC@NAJBBHNN@?$AA?$CK?$AAn?$AAE?$AAC?$AA1?$AAF?$AA0?$AA0?$AA?$AA@ 00611c2c     ntoswrk:MAPPER.obj
 0014:00029c40       ??_C@_1CM@MLECJMJM@?$AAN?$AAE?$AAC?$AA?5?$AAP?$AAC?$AA?9?$AA9?$AA8?$AA0?$AA0?$AA?5?$AAB?$AAU?$AAS?$AA?5?$AAM?$AAO?$AAU?$AAS@ 00611c40     ntoswrk:MAPPER.obj
 0014:00029c6c       ??_C@_1BC@NKHHMLEK@?$AA?$CK?$AAP?$AAN?$AAP?$AA0?$AAF?$AA0?$AA0?$AA?$AA@ 00611c6c     ntoswrk:MAPPER.obj
 0014:00029c80       ??_C@_1CI@CGOADFNI@?$AAM?$AAI?$AAC?$AAR?$AAO?$AAS?$AAO?$AAF?$AAT?$AA?5?$AAB?$AAU?$AAS?$AA?5?$AAM?$AAO?$AAU?$AAS?$AAE?$AA?$AA@ 00611c80     ntoswrk:MAPPER.obj
 0014:00029ca8       ??_C@_1BC@BPMDODKF@?$AA?$CK?$AAP?$AAN?$AAP?$AA0?$AAF?$AA0?$AA8?$AA?$AA@ 00611ca8     ntoswrk:MAPPER.obj
 0014:00029cbc       ??_C@_1CM@HMDOGJD@?$AAL?$AAO?$AAG?$AAI?$AAT?$AAE?$AAC?$AAH?$AA?5?$AAS?$AAE?$AAR?$AAI?$AAA?$AAL?$AA?5?$AAM?$AAO?$AAU?$AAS@ 00611cbc     ntoswrk:MAPPER.obj
 0014:00029ce8       ??_C@_1BC@KHHPIEMA@?$AA?$CK?$AAP?$AAN?$AAP?$AA0?$AAF?$AA0?$AA9?$AA?$AA@ 00611ce8     ntoswrk:MAPPER.obj
 0014:00029d00       ??_C@_1EC@FFIPAGNE@?$AAM?$AAI?$AAC?$AAR?$AAO?$AAS?$AAO?$AAF?$AAT?$AA?5?$AAB?$AAA?$AAL?$AAL?$AAP?$AAO?$AAI?$AAN?$AAT?$AA?5@ 00611d00     ntoswrk:MAPPER.obj
 0014:00029d44       ??_C@_1BC@GCMLKMCP@?$AA?$CK?$AAP?$AAN?$AAP?$AA0?$AAF?$AA0?$AA1?$AA?$AA@ 00611d44     ntoswrk:MAPPER.obj
 0014:00029d58       ??_C@_1CO@BNEHLICK@?$AAM?$AAI?$AAC?$AAR?$AAO?$AAS?$AAO?$AAF?$AAT?$AA?5?$AAS?$AAE?$AAR?$AAI?$AAA?$AAL?$AA?5?$AAM?$AAO?$AAU@ 00611d58     ntoswrk:MAPPER.obj
 0014:00029d88       ??_C@_1BC@HAHOADMB@?$AA?$CK?$AAP?$AAN?$AAP?$AA0?$AAF?$AA0?$AA2?$AA?$AA@ 00611d88     ntoswrk:MAPPER.obj
 0014:00029d9c       ??_C@_1CO@IGAHGEOJ@?$AAM?$AAI?$AAC?$AAR?$AAO?$AAS?$AAO?$AAF?$AAT?$AA?5?$AAI?$AAN?$AAP?$AAO?$AAR?$AAT?$AA?5?$AAM?$AAO?$AAU@ 00611d9c     ntoswrk:MAPPER.obj
 0014:00029dcc       ??_C@_1BC@LLCCNAGE@?$AA?$CK?$AAP?$AAN?$AAP?$AA0?$AAF?$AA1?$AA2?$AA?$AA@ 00611dcc     ntoswrk:MAPPER.obj
 0014:00029de0       ??_C@_1CG@HCNFBJOA@?$AAL?$AAO?$AAG?$AAI?$AAT?$AAE?$AAC?$AAH?$AA?5?$AAP?$AAS?$AA2?$AA?5?$AAM?$AAO?$AAU?$AAS?$AAE?$AA?$AA@ 00611de0     ntoswrk:MAPPER.obj
 0014:00029e08       ??_C@_1BC@MIMCGEKE@?$AA?$CK?$AAP?$AAN?$AAP?$AA0?$AAF?$AA0?$AA3?$AA?$AA@ 00611e08     ntoswrk:MAPPER.obj
 0014:00029e1c       ??_C@_1CI@JFLNEIOC@?$AAM?$AAI?$AAC?$AAR?$AAO?$AAS?$AAO?$AAF?$AAT?$AA?5?$AAP?$AAS?$AA2?$AA?5?$AAM?$AAO?$AAU?$AAS?$AAE?$AA?$AA@ 00611e1c     ntoswrk:MAPPER.obj
 0014:00029e44       ??_C@_1BC@KDPNMEDI@?$AA?$CK?$AAP?$AAN?$AAP?$AA0?$AAF?$AA0?$AAC?$AA?$AA@ 00611e44     ntoswrk:MAPPER.obj
 0014:00029e58       ??_C@_1BK@GJBCCCOL@?$AAS?$AAE?$AAR?$AAI?$AAA?$AAL?$AA?5?$AAM?$AAO?$AAU?$AAS?$AAE?$AA?$AA@ 00611e58     ntoswrk:MAPPER.obj
 0014:00029e74       ??_C@_1BC@IGJGJLOE@?$AA?$CK?$AAP?$AAN?$AAP?$AA0?$AAF?$AA0?$AAE?$AA?$AA@ 00611e74     ntoswrk:MAPPER.obj
 0014:00029e88       ??_C@_1BE@BKALEDME@?$AAP?$AAS?$AA2?$AA?5?$AAM?$AAO?$AAU?$AAS?$AAE?$AA?$AA@ 00611e88     ntoswrk:MAPPER.obj
 0014:00029e9c       ??_C@_1BK@BOGMHFGB@?$AAP?$AAC?$AA9?$AA8?$AA_?$AAN?$AA1?$AA0?$AA6?$AAK?$AAE?$AAY?$AA?$AA@ 00611e9c     ntoswrk:MAPPER.obj
 0014:00029eb8       ??_C@_1BO@HAENPIBN@?$AAP?$AAC?$AA9?$AA8?$AA_?$AAL?$AAa?$AAp?$AAt?$AAo?$AAp?$AAK?$AAE?$AAY?$AA?$AA@ 00611eb8     ntoswrk:MAPPER.obj
 0014:00029ed8       ??_C@_1BC@DECBIICJ@?$AA?$CK?$AAn?$AAE?$AAC?$AA1?$AA3?$AA0?$AA0?$AA?$AA@ 00611ed8     ntoswrk:MAPPER.obj
 0014:00029eec       ??_C@_1BI@MEEKJIF@?$AAP?$AAC?$AA9?$AA8?$AA_?$AA1?$AA0?$AA6?$AAK?$AAE?$AAY?$AA?$AA@ 00611eec     ntoswrk:MAPPER.obj
 0014:00029f04       ??_C@_1BC@FPMDJDJH@?$AA?$CK?$AAP?$AAN?$AAP?$AA0?$AA3?$AA0?$AAb?$AA?$AA@ 00611f04     ntoswrk:MAPPER.obj
 0014:00029f18       ??_C@_1BM@OLENCPHN@?$AAP?$AAC?$AAA?$AAT?$AA_?$AAE?$AAN?$AAH?$AAA?$AAN?$AAC?$AAE?$AAD?$AA?$AA@ 00611f18     ntoswrk:MAPPER.obj
 0014:00029f34       ??_C@_1BC@ENHGDMHJ@?$AA?$CK?$AAP?$AAN?$AAP?$AA0?$AA3?$AA0?$AAa?$AA?$AA@ 00611f34     ntoswrk:MAPPER.obj
 0014:00029f48       ??_C@_1BA@IPINEIOI@?$AAA?$AAT?$AAT?$AA_?$AA3?$AA0?$AA2?$AA?$AA@ 00611f48     ntoswrk:MAPPER.obj
 0014:00029f58       ??_C@_1BC@EDMPBLDE@?$AA?$CK?$AAP?$AAN?$AAP?$AA0?$AA3?$AA0?$AA9?$AA?$AA@ 00611f58     ntoswrk:MAPPER.obj
 0014:00029f6c       ??_C@_1CA@PJDEIKMN@?$AAO?$AAL?$AAI?$AA_?$AAA?$AA1?$AA0?$AA1?$AA_?$AA1?$AA0?$AA2?$AAK?$AAE?$AAY?$AA?$AA@ 00611f6c     ntoswrk:MAPPER.obj
 0014:00029f8c       ??_C@_1BC@BLKMALGC@?$AA?$CK?$AAP?$AAN?$AAP?$AA0?$AA3?$AA0?$AA6?$AA?$AA@ 00611f8c     ntoswrk:MAPPER.obj
 0014:00029fa0       ??_C@_1BE@HHAMINKJ@?$AAO?$AAL?$AAI?$AA_?$AA8?$AA6?$AAK?$AAE?$AAY?$AA?$AA@ 00611fa0     ntoswrk:MAPPER.obj
 0014:00029fb4       ??_C@_1BC@JBJKEIM@?$AA?$CK?$AAP?$AAN?$AAP?$AA0?$AA3?$AA0?$AA5?$AA?$AA@ 00611fb4     ntoswrk:MAPPER.obj
 0014:00029fc8       ??_C@_1BG@HAGAOLDJ@?$AAO?$AAL?$AAI?$AA_?$AA1?$AA0?$AA2?$AAK?$AAE?$AAY?$AA?$AA@ 00611fc8     ntoswrk:MAPPER.obj
 0014:00029fe0       ??_C@_1BA@JNDIOHAG@?$AAA?$AAT?$AAT?$AA_?$AA3?$AA0?$AA1?$AA?$AA@ 00611fe0     ntoswrk:MAPPER.obj
 0014:00029ff0       ??_C@_1BC@LBKFMDOJ@?$AA?$CK?$AAP?$AAN?$AAP?$AA0?$AA3?$AA0?$AA4?$AA?$AA@ 00611ff0     ntoswrk:MAPPER.obj
 0014:0002a004       ??_C@_1BE@JBCFEGON@?$AAO?$AAL?$AAI?$AA_?$AA8?$AA3?$AAK?$AAE?$AAY?$AA?$AA@ 00612004     ntoswrk:MAPPER.obj
 0014:0002a018       ??_C@_1BC@CMHCPLFA@?$AA?$CK?$AAP?$AAN?$AAP?$AA0?$AA3?$AA0?$AA3?$AA?$AA@ 00612018     ntoswrk:MAPPER.obj
 0014:0002a02c       ??_C@_1BA@EPKKNDCL@?$AA1?$AA0?$AA1?$AA?9?$AAK?$AAE?$AAY?$AA?$AA@ 0061202c     ntoswrk:MAPPER.obj
 0014:0002a03c       ??_C@_1BC@JIDGCOLK@?$AAX?$AAT?$AA_?$AA8?$AA4?$AAK?$AAE?$AAY?$AA?$AA@ 0061203c     ntoswrk:MAPPER.obj
 0014:0002a050       ??_C@_1BC@JEMOJMDF@?$AA?$CK?$AAP?$AAN?$AAP?$AA0?$AA3?$AA0?$AA2?$AA?$AA@ 00612050     ntoswrk:MAPPER.obj
 0014:0002a064       ??_C@_1BG@KOOMNEEN@?$AAP?$AAC?$AAX?$AAT?$AA_?$AA8?$AA4?$AAK?$AAE?$AAY?$AA?$AA@ 00612064     ntoswrk:MAPPER.obj
 0014:0002a07c       ??_C@_1BC@IGHLDDNL@?$AA?$CK?$AAP?$AAN?$AAP?$AA0?$AA3?$AA0?$AA1?$AA?$AA@ 0061207c     ntoswrk:MAPPER.obj
 0014:0002a090       ??_C@_1BG@HMLJEAIF@?$AAP?$AAC?$AAA?$AAT?$AA_?$AA8?$AA6?$AAK?$AAE?$AAY?$AA?$AA@ 00612090     ntoswrk:MAPPER.obj
 0014:0002a0a8       ??_C@_1BC@DOMHFELO@?$AA?$CK?$AAP?$AAN?$AAP?$AA0?$AA3?$AA0?$AA0?$AA?$AA@ 006120a8     ntoswrk:MAPPER.obj
 0014:0002a0bc       ??_C@_1BC@HKOKDFMD@?$AAX?$AAT?$AA_?$AA8?$AA3?$AAK?$AAE?$AAY?$AA?$AA@ 006120bc     ntoswrk:MAPPER.obj
 0014:0002a0d0       _ExcludedDevices           006120d0     ntoswrk:PNPMAP.obj
 0014:0002a100       _ExcludeIfDisabled         00612100     ntoswrk:PNPMAP.obj
 0014:0002a110       _Class1Descriptions        00612110     ntoswrk:PNPMAP.obj
 0014:0002a140       _Class2Descriptions        00612140     ntoswrk:PNPMAP.obj
 0014:0002a168       _Class3Descriptions        00612168     ntoswrk:PNPMAP.obj
 0014:0002a188       _Class4Descriptions        00612188     ntoswrk:PNPMAP.obj
 0014:0002a1a0       _Class5Descriptions        006121a0     ntoswrk:PNPMAP.obj
 0014:0002a1b8       _Class6Descriptions        006121b8     ntoswrk:PNPMAP.obj
 0014:0002a200       _Class7Descriptions        00612200     ntoswrk:PNPMAP.obj
 0014:0002a238       _Class8Descriptions        00612238     ntoswrk:PNPMAP.obj
 0014:0002a298       _Class9Descriptions        00612298     ntoswrk:PNPMAP.obj
 0014:0002a2b8       _Class10Descriptions       006122b8     ntoswrk:PNPMAP.obj
 0014:0002a2c8       _Class11Descriptions       006122c8     ntoswrk:PNPMAP.obj
 0014:0002a2f0       _Class12Descriptions       006122f0     ntoswrk:PNPMAP.obj
 0014:0002a310       _ClassDescriptionsList     00612310     ntoswrk:PNPMAP.obj
 0014:0002a38c       ??_C@_1CC@KBJIOJPA@?$AAO?$AAt?$AAh?$AAe?$AAr?$AA?5?$AAs?$AAe?$AAr?$AAi?$AAa?$AAl?$AA?5?$AAb?$AAu?$AAs?$AA?$AA@ 0061238c     ntoswrk:PNPMAP.obj
 0014:0002a3b0       ??_C@_17OIMGJBLC@?$AAS?$AAS?$AAA?$AA?$AA@ 006123b0     ntoswrk:PNPMAP.obj
 0014:0002a3b8       ??_C@_1BG@HOGEADOA@?$AAA?$AAc?$AAc?$AAe?$AAs?$AAs?$AA?5?$AAb?$AAu?$AAs?$AA?$AA@ 006123b8     ntoswrk:PNPMAP.obj
 0014:0002a3d0       ??_C@_1BC@OCPMJNHE@?$AAF?$AAi?$AAr?$AAe?$AAw?$AAi?$AAr?$AAe?$AA?$AA@ 006123d0     ntoswrk:PNPMAP.obj
 0014:0002a3e4       ??_C@_1BK@NEHJAFMH@?$AAC?$AAo?$AA?9?$AAp?$AAr?$AAo?$AAc?$AAe?$AAs?$AAs?$AAo?$AAr?$AA?$AA@ 006123e4     ntoswrk:PNPMAP.obj
 0014:0002a400       ??_C@_1M@CPFKKKDA@?$AAA?$AAl?$AAp?$AAh?$AAa?$AA?$AA@ 00612400     ntoswrk:PNPMAP.obj
 0014:0002a40c       ??_C@_1BA@LAKFAPEC@?$AAP?$AAe?$AAn?$AAt?$AAi?$AAu?$AAm?$AA?$AA@ 0061240c     ntoswrk:PNPMAP.obj
 0014:0002a41c       ??_C@_17KGDDFPKM@?$AA4?$AA8?$AA6?$AA?$AA@ 0061241c     ntoswrk:PNPMAP.obj
 0014:0002a424       ??_C@_17KMPGFGLF@?$AA3?$AA8?$AA6?$AA?$AA@ 00612424     ntoswrk:PNPMAP.obj
 0014:0002a42c       ??_C@_1BG@NDBPEEMP@?$AAO?$AAt?$AAh?$AAe?$AAr?$AA?5?$AAd?$AAo?$AAc?$AAk?$AA?$AA@ 0061242c     ntoswrk:PNPMAP.obj
 0014:0002a444       ??_C@_1BK@ICEFFJIK@?$AAG?$AAe?$AAn?$AAe?$AAr?$AAi?$AAc?$AA?5?$AAd?$AAo?$AAc?$AAk?$AA?$AA@ 00612444     ntoswrk:PNPMAP.obj
 0014:0002a460       ??_C@_1BI@GDALJFCP@?$AAO?$AAt?$AAh?$AAe?$AAr?$AA?5?$AAi?$AAn?$AAp?$AAu?$AAt?$AA?$AA@ 00612460     ntoswrk:PNPMAP.obj
 0014:0002a478       ??_C@_1M@GPPEDHNJ@?$AAM?$AAo?$AAu?$AAs?$AAe?$AA?$AA@ 00612478     ntoswrk:PNPMAP.obj
 0014:0002a484       ??_C@_1BE@NMOFBEIM@?$AAD?$AAi?$AAg?$AAi?$AAt?$AAi?$AAz?$AAe?$AAr?$AA?$AA@ 00612484     ntoswrk:PNPMAP.obj
 0014:0002a498       ??_C@_1BC@NCPFOOPJ@?$AAK?$AAe?$AAy?$AAb?$AAo?$AAa?$AAr?$AAd?$AA?$AA@ 00612498     ntoswrk:PNPMAP.obj
 0014:0002a4ac       ??_C@_1CI@GBJPKNPE@?$AAO?$AAt?$AAh?$AAe?$AAr?$AA?5?$AAs?$AAy?$AAs?$AAt?$AAe?$AAm?$AA?5?$AAd?$AAe?$AAv?$AAi?$AAc?$AAe?$AA?$AA@ 006124ac     ntoswrk:PNPMAP.obj
 0014:0002a4d4       ??_C@_1BA@FGANBDAO@?$AAI?$AAS?$AAA?$AA?5?$AAR?$AAT?$AAC?$AA?$AA@ 006124d4     ntoswrk:PNPMAP.obj
 0014:0002a4e4       ??_C@_1BI@BEAOLOKG@?$AAG?$AAe?$AAn?$AAe?$AAr?$AAi?$AAc?$AA?5?$AAR?$AAT?$AAC?$AA?$AA@ 006124e4     ntoswrk:PNPMAP.obj
 0014:0002a4fc       ??_C@_1BG@PANAOPPG@?$AAE?$AAI?$AAS?$AAA?$AA?5?$AAt?$AAi?$AAm?$AAe?$AAr?$AA?$AA@ 006124fc     ntoswrk:PNPMAP.obj
 0014:0002a514       ??_C@_1BE@NGOLBBJM@?$AAI?$AAS?$AAA?$AA?5?$AAt?$AAi?$AAm?$AAe?$AAr?$AA?$AA@ 00612514     ntoswrk:PNPMAP.obj
 0014:0002a528       ??_C@_1BK@KGPHCNEF@?$AAG?$AAe?$AAn?$AAe?$AAr?$AAi?$AAc?$AA?5?$AA8?$AA2?$AA5?$AA4?$AA?$AA@ 00612528     ntoswrk:PNPMAP.obj
 0014:0002a544       ??_C@_1BC@LHNOCFOF@?$AAE?$AAI?$AAS?$AAA?$AA?5?$AAD?$AAM?$AAA?$AA?$AA@ 00612544     ntoswrk:PNPMAP.obj
 0014:0002a558       ??_C@_1BA@GCAJLAHK@?$AAI?$AAS?$AAA?$AA?5?$AAD?$AAM?$AAA?$AA?$AA@ 00612558     ntoswrk:PNPMAP.obj
 0014:0002a568       ??_C@_1BK@GCBLGBLG@?$AAG?$AAe?$AAn?$AAe?$AAr?$AAi?$AAc?$AA?5?$AA8?$AA2?$AA3?$AA7?$AA?$AA@ 00612568     ntoswrk:PNPMAP.obj
 0014:0002a584       ??_C@_1BC@HOLHJAKJ@?$AAE?$AAI?$AAS?$AAA?$AA?5?$AAP?$AAI?$AAC?$AA?$AA@ 00612584     ntoswrk:PNPMAP.obj
 0014:0002a598       ??_C@_1BA@KLGAAFDG@?$AAI?$AAS?$AAA?$AA?5?$AAP?$AAI?$AAC?$AA?$AA@ 00612598     ntoswrk:PNPMAP.obj
 0014:0002a5a8       ??_C@_1BK@FEJNPFJI@?$AAG?$AAe?$AAn?$AAe?$AAr?$AAi?$AAc?$AA?5?$AA8?$AA2?$AA5?$AA9?$AA?$AA@ 006125a8     ntoswrk:PNPMAP.obj
 0014:0002a5c4       ??_C@_1BG@COKCGBBK@?$AAO?$AAt?$AAh?$AAe?$AAr?$AA?5?$AAc?$AAo?$AAm?$AAm?$AA?$AA@ 006125c4     ntoswrk:PNPMAP.obj
 0014:0002a5dc       ??_C@_1CC@OJDBDCEK@?$AAE?$AAC?$AAP?$AA?5?$AA1?$AA?4?$AAx?$AA?5?$AAp?$AAa?$AAr?$AAa?$AAl?$AAl?$AAe?$AAl?$AA?$AA@ 006125dc     ntoswrk:PNPMAP.obj
 0014:0002a600       ??_C@_1BM@IPJLEOEJ@?$AAB?$AAi?$AAD?$AAi?$AA?5?$AAP?$AAa?$AAr?$AAa?$AAl?$AAl?$AAe?$AAl?$AA?$AA@ 00612600     ntoswrk:PNPMAP.obj
 0014:0002a61c       ??_C@_1CK@OKLGCNML@?$AAP?$AAa?$AAr?$AAa?$AAl?$AAl?$AAe?$AAl?$AA?5?$AAo?$AAu?$AAt?$AAp?$AAu?$AAt?$AA?5?$AAo?$AAn?$AAl?$AAy@ 0061261c     ntoswrk:PNPMAP.obj
 0014:0002a648       ??_C@_1M@HPKICCC@?$AA1?$AA6?$AA5?$AA5?$AA0?$AA?$AA@ 00612648     ntoswrk:PNPMAP.obj
 0014:0002a654       ??_C@_1M@MLFAICLM@?$AA1?$AA6?$AA4?$AA5?$AA0?$AA?$AA@ 00612654     ntoswrk:PNPMAP.obj
 0014:0002a660       ??_C@_1BE@FEKNLGNP@?$AAX?$AAT?$AA?5?$AAS?$AAe?$AAr?$AAi?$AAa?$AAl?$AA?$AA@ 00612660     ntoswrk:PNPMAP.obj
 0014:0002a674       ??_C@_1BK@DGEDELKO@?$AAO?$AAt?$AAh?$AAe?$AAr?$AA?5?$AAb?$AAr?$AAi?$AAd?$AAg?$AAe?$AA?$AA@ 00612674     ntoswrk:PNPMAP.obj
 0014:0002a690       ??_C@_1BA@KFPGBHFK@?$AAC?$AAa?$AAr?$AAd?$AAb?$AAu?$AAs?$AA?$AA@ 00612690     ntoswrk:PNPMAP.obj
 0014:0002a6a0       ??_C@_1M@EMFEFDC@?$AAN?$AAu?$AAB?$AAu?$AAs?$AA?$AA@ 006126a0     ntoswrk:PNPMAP.obj
 0014:0002a6ac       ??_C@_1BK@CFNJPLFN@?$AAP?$AAC?$AAI?$AA?5?$AA?1?$AA?5?$AAP?$AAC?$AAM?$AAC?$AAI?$AAA?$AA?$AA@ 006126ac     ntoswrk:PNPMAP.obj
 0014:0002a6c8       ??_C@_1BE@FEHAJJFF@?$AAP?$AAC?$AAI?$AA?5?$AA?1?$AA?5?$AAP?$AAC?$AAI?$AA?$AA@ 006126c8     ntoswrk:PNPMAP.obj
 0014:0002a6dc       ??_C@_1BE@HGHKJFEA@?$AAP?$AAC?$AAI?$AA?5?$AA?1?$AA?5?$AAM?$AAC?$AAA?$AA?$AA@ 006126dc     ntoswrk:PNPMAP.obj
 0014:0002a6f0       ??_C@_1BG@JPLNJOEA@?$AAP?$AAC?$AAI?$AA?5?$AA?1?$AA?5?$AAE?$AAI?$AAS?$AAA?$AA?$AA@ 006126f0     ntoswrk:PNPMAP.obj
 0014:0002a708       ??_C@_1BE@PBOGJJCB@?$AAP?$AAC?$AAI?$AA?5?$AA?1?$AA?5?$AAI?$AAS?$AAA?$AA?$AA@ 00612708     ntoswrk:PNPMAP.obj
 0014:0002a71c       ??_C@_1BG@NNBGENCE@?$AAH?$AAO?$AAS?$AAT?$AA?5?$AA?1?$AA?5?$AAP?$AAC?$AAI?$AA?$AA@ 0061271c     ntoswrk:PNPMAP.obj
 0014:0002a734       ??_C@_1BK@FACDMAI@?$AAO?$AAt?$AAh?$AAe?$AAr?$AA?5?$AAm?$AAe?$AAm?$AAo?$AAr?$AAy?$AA?$AA@ 00612734     ntoswrk:PNPMAP.obj
 0014:0002a750       ??_C@_1BK@OMPIBJAH@?$AAF?$AAl?$AAa?$AAs?$AAh?$AA?5?$AAm?$AAe?$AAm?$AAo?$AAr?$AAy?$AA?$AA@ 00612750     ntoswrk:PNPMAP.obj
 0014:0002a76c       ??_C@_1BG@OCGACLNO@?$AAR?$AAA?$AAM?$AA?5?$AAm?$AAe?$AAm?$AAo?$AAr?$AAy?$AA?$AA@ 0061276c     ntoswrk:PNPMAP.obj
 0014:0002a784       ??_C@_1CC@GDPMIMIM@?$AAO?$AAt?$AAh?$AAe?$AAr?$AA?5?$AAm?$AAu?$AAl?$AAt?$AAi?$AAm?$AAe?$AAd?$AAi?$AAa?$AA?$AA@ 00612784     ntoswrk:PNPMAP.obj
 0014:0002a7a8       ??_C@_1BK@GADOAHPL@?$AAA?$AAu?$AAd?$AAi?$AAo?$AA?5?$AAd?$AAe?$AAv?$AAi?$AAc?$AAe?$AA?$AA@ 006127a8     ntoswrk:PNPMAP.obj
 0014:0002a7c4       ??_C@_1BK@FPJMHJC@?$AAV?$AAi?$AAd?$AAe?$AAo?$AA?5?$AAd?$AAe?$AAv?$AAi?$AAc?$AAe?$AA?$AA@ 006127c4     ntoswrk:PNPMAP.obj
 0014:0002a7e0       ??_C@_1BM@LDDHMEAA@?$AAO?$AAt?$AAh?$AAe?$AAr?$AA?5?$AAd?$AAi?$AAs?$AAp?$AAl?$AAa?$AAy?$AA?$AA@ 006127e0     ntoswrk:PNPMAP.obj
 0014:0002a7fc       ??_C@_17CNOLMNGJ@?$AAX?$AAG?$AAA?$AA?$AA@ 006127fc     ntoswrk:PNPMAP.obj
 0014:0002a804       ??_C@_19OMOKFFAP@?$AAS?$AAV?$AAG?$AAA?$AA?$AA@ 00612804     ntoswrk:PNPMAP.obj
 0014:0002a810       ??_C@_17DIGBNPFL@?$AAV?$AAG?$AAA?$AA?$AA@ 00612810     ntoswrk:PNPMAP.obj
 0014:0002a818       ??_C@_1BM@KOIPFDF@?$AAO?$AAt?$AAh?$AAe?$AAr?$AA?5?$AAn?$AAe?$AAt?$AAw?$AAo?$AAr?$AAk?$AA?$AA@ 00612818     ntoswrk:PNPMAP.obj
 0014:0002a834       ??_C@_17IBILCIOE@?$AAA?$AAT?$AAM?$AA?$AA@ 00612834     ntoswrk:PNPMAP.obj
 0014:0002a83c       ??_C@_19FANDHDLE@?$AAF?$AAD?$AAD?$AAI?$AA?$AA@ 0061283c     ntoswrk:PNPMAP.obj
 0014:0002a848       ??_C@_1BG@JEDBJBPO@?$AAT?$AAo?$AAk?$AAe?$AAn?$AA?5?$AAr?$AAi?$AAn?$AAg?$AA?$AA@ 00612848     ntoswrk:PNPMAP.obj
 0014:0002a860       ??_C@_1BC@EJAIBKKC@?$AAE?$AAt?$AAh?$AAe?$AAr?$AAn?$AAe?$AAt?$AA?$AA@ 00612860     ntoswrk:PNPMAP.obj
 0014:0002a874       ??_C@_1CG@PBPPDAGI@?$AAO?$AAt?$AAh?$AAe?$AAr?$AA?5?$AAM?$AAa?$AAs?$AAs?$AA?5?$AAS?$AAt?$AAo?$AAr?$AAa?$AAg?$AAe?$AA?$AA@ 00612874     ntoswrk:PNPMAP.obj
 0014:0002a89c       ??_C@_1CA@DCBLDCOA@?$AAR?$AAA?$AAI?$AAD?$AA?5?$AAC?$AAo?$AAn?$AAt?$AAr?$AAo?$AAl?$AAl?$AAe?$AAr?$AA?$AA@ 0061289c     ntoswrk:PNPMAP.obj
 0014:0002a8bc       ??_C@_1BO@MMHPEGHB@?$AAI?$AAP?$AAI?$AA?5?$AAC?$AAo?$AAn?$AAt?$AAr?$AAo?$AAl?$AAl?$AAe?$AAr?$AA?$AA@ 006128bc     ntoswrk:PNPMAP.obj
 0014:0002a8dc       ??_C@_1CE@HOHIJHCN@?$AAF?$AAl?$AAo?$AAp?$AAp?$AAy?$AA?5?$AAC?$AAo?$AAn?$AAt?$AAr?$AAo?$AAl?$AAl?$AAe?$AAr?$AA?$AA@ 006128dc     ntoswrk:PNPMAP.obj
 0014:0002a900       ??_C@_1BO@KOEKNILH@?$AAI?$AAD?$AAE?$AA?5?$AAC?$AAo?$AAn?$AAt?$AAr?$AAo?$AAl?$AAl?$AAe?$AAr?$AA?$AA@ 00612900     ntoswrk:PNPMAP.obj
 0014:0002a920       ??_C@_1CA@DGDLCPKN@?$AAS?$AAC?$AAS?$AAI?$AA?5?$AAC?$AAo?$AAn?$AAt?$AAr?$AAo?$AAl?$AAl?$AAe?$AAr?$AA?$AA@ 00612920     ntoswrk:PNPMAP.obj
 0014:0002a940       ??_C@_1BC@DIJOANKF@?$AA?$CK?$AAP?$AAN?$AAP?$AA0?$AAC?$AA0?$AA2?$AA?$AA@ 00612940     ntoswrk:PNPMAP.obj
 0014:0002a954       ??_C@_1BC@CKCLKCEL@?$AA?$CK?$AAP?$AAN?$AAP?$AA0?$AAC?$AA0?$AA1?$AA?$AA@ 00612954     ntoswrk:PNPMAP.obj
 0014:0002a968       ??_C@_1BC@IGELEJDA@?$AA?$CK?$AAI?$AAB?$AAM?$AA3?$AA7?$AA8?$AA1?$AA?$AA@ 00612968     ntoswrk:PNPMAP.obj
 0014:0002a97c       ??_C@_1BC@DOPHCOFF@?$AA?$CK?$AAI?$AAB?$AAM?$AA3?$AA7?$AA8?$AA0?$AA?$AA@ 0061297c     ntoswrk:PNPMAP.obj
 0014:0002a990       ??_C@_1O@GCDMLKOO@?$AA?$CK?$AAP?$AAN?$AAP?$AA0?$AAF?$AA?$AA@ 00612990     ntoswrk:PNPMAP.obj
 0014:0002a9a0       ??_C@_1O@HAIJBFAA@?$AA?$CK?$AAP?$AAN?$AAP?$AA0?$AAE?$AA?$AA@ 006129a0     ntoswrk:PNPMAP.obj
 0014:0002a9b0       ??_C@_1O@PPOLICFH@?$AA?$CK?$AAP?$AAN?$AAP?$AA0?$AAA?$AA?$AA@ 006129b0     ntoswrk:PNPMAP.obj
 0014:0002a9c0       ??_C@_1O@DONNOKEA@?$AA?$CK?$AAP?$AAN?$AAP?$AA0?$AA3?$AA?$AA@ 006129c0     ntoswrk:PNPMAP.obj
 0014:0002a9d0       _StringTerminators         006129d0     ntoswrk:PARSEINI.obj
 0014:0002a9dc       _QStringTerminators        006129dc     ntoswrk:PARSEINI.obj
 0014:0002a9e0       _EmptyValue                006129e0     ntoswrk:PARSEINI.obj
 0014:0002a9e4       _gInfRuleTable             006129e4     ntoswrk:GENINST.obj
 0014:0002aa10       ??_C@_06JHAKGPMO@BitReg?$AA@ 00612a10     ntoswrk:GENINST.obj
 0014:0002aa18       ??_C@_06NDIIEGMM@DelReg?$AA@ 00612a18     ntoswrk:GENINST.obj
 0014:0002aa20       ??_C@_06HKJMPBAP@AddReg?$AA@ 00612a20     ntoswrk:GENINST.obj
 0014:0002aa28       _CmpLoadOptions            00612a28     config:cmdat.obj
 0014:0002aa30       _CmClassName               00612a30     config:cmdat.obj
 0014:0002aa70       _CmpMultifunctionTypes     00612a70     config:cmdat.obj
 0014:0002aab8       _CmpUnknownBusCount        00612ab8     config:cmdat.obj
 0014:0002aabc       _CmpConfigurationAreaSize  00612abc     config:cmdat.obj
 0014:0002aac0       _CmpConfigurationData      00612ac0     config:cmdat.obj
 0014:0002aac8       _CmTypeName                00612ac8     config:cmdat.obj
 0014:0002ac18       _InitForceInline           00612c18     init:initos.obj
 0014:0002ac1c       _MmModifiedPageLifeInSeconds 00612c1c     mm:mminit.obj
 0014:0002ac20       _PsRawPrioritySeparation   00612c20     ps:psinit.obj
 0014:0002ac24       _PsEmbeddedNTMask          00612c24     ps:psinit.obj
 0014:0002ac28       _ExpMultiUserTS            00612c28     ntoswrk:EXSCAN.obj
 0014:0002ac2c       _InbvProgressIndicator     00612c2c     ntoswrk:BOOTVID.obj
 0014:0002ac38       _CmNtGlobalFlag            00612c38     ntoswrk:INIT.obj
 0014:0002ac3c       _IoVerifierOnByDefault     00612c3c     ntoswrk:IOVERIFIER.obj
 0014:0002ac40       _BiosBegin                 00612c40     ntoswrk:INITDAT.obj
 0014:0002ac44       _Start                     00612c44     ntoswrk:INITDAT.obj
 0014:0002ac48       _End                       00612c48     ntoswrk:INITDAT.obj
 0014:0002ac4c       _IopPnpScratchBuffer1      00612c4c     ntoswrk:PNPDATA.obj
 0014:0002ac50       _CmDefaultLanguageId       00612c50     ntoswrk:CMDAT3.obj
 0014:0002ac68       _CmDefaultLanguageIdLength 00612c68     ntoswrk:CMDAT3.obj
 0014:0002ac6c       _CmDefaultLanguageIdType   00612c6c     ntoswrk:CMDAT3.obj
 0014:0002ac70       _CmInstallUILanguageId     00612c70     ntoswrk:CMDAT3.obj
 0014:0002ac88       _CmInstallUILanguageIdLength 00612c88     ntoswrk:CMDAT3.obj
 0014:0002ac8c       _CmInstallUILanguageIdType 00612c8c     ntoswrk:CMDAT3.obj
 0014:0002ac90       _CmSuiteBuffer             00612c90     ntoswrk:CMDAT3.obj
 0014:0002ad90       _CmSuiteBufferLength       00612d90     ntoswrk:CMDAT3.obj
 0014:0002ad94       _CmSuiteBufferType         00612d94     ntoswrk:CMDAT3.obj
 0014:0002ad98       _shutdownlength            00612d98     ntoswrk:CMDAT3.obj
 0014:0002ad9c       _CmpUlongPtrLength         00612d9c     ntoswrk:CMDAT3.obj
 0014:0002ada0       _CmControlVector           00612da0     ntoswrk:CMDAT3.obj
 0014:0002c078       _gSearchAddress            00614078     ntoswrk:RULES.obj
 0014:0002c088       __IMPORT_DESCRIPTOR_HAL    00614088     hal:HAL.dll
 0014:0002c09c       __IMPORT_DESCRIPTOR_BOOTVID 0061409c     bootvid:BOOTVID.dll
 0014:0002c0b0       __IMPORT_DESCRIPTOR_KDCOM  006140b0     kdcom:KDCOM.dll
 0014:0002c0c4       __NULL_IMPORT_DESCRIPTOR   006140c4     hal:HAL.dll

 entry point at        0014:000086ac

 Static symbols

 0001:00020d72       _IopProbeAndLockPages@20   00421d72 f   iomgr:internal.obj
 0001:00026e70       $$$00001                   00427e70 f   ke:abiosa.obj
 0001:00026e7b       $$$00003                   00427e7b f   ke:abiosa.obj
 0001:00026f84       $$$00005                   00427f84 f   ke:abiosa.obj
 0001:00027125       $$$00007                   00428125 f   ke:abiosa.obj
 0001:00027233       $$$00009                   00428233 f   ke:abiosa.obj
 0001:0002aab8       $$$00001                   0042bab8 f   ke:mpipia.obj
 0001:0002ab85       $$$00003                   0042bb85 f   ke:mpipia.obj
 0001:0002abb2       $$$00005                   0042bbb2 f   ke:mpipia.obj
 0001:0002ac42       $$$00007                   0042bc42 f   ke:mpipia.obj
 0001:0002ac6f       $$$00009                   0042bc6f f   ke:mpipia.obj
 0001:0002acd8       $$$00001                   0042bcd8 f   ke:sysstubs.obj
 0001:0002acec       $$$00003                   0042bcec f   ke:sysstubs.obj
 0001:0002ad00       $$$00005                   0042bd00 f   ke:sysstubs.obj
 0001:0002ad14       $$$00007                   0042bd14 f   ke:sysstubs.obj
 0001:0002ad28       $$$00009                   0042bd28 f   ke:sysstubs.obj
 0001:0002ad3c       $$$00011                   0042bd3c f   ke:sysstubs.obj
 0001:0002ad50       $$$00013                   0042bd50 f   ke:sysstubs.obj
 0001:0002ad64       $$$00015                   0042bd64 f   ke:sysstubs.obj
 0001:0002ad78       $$$00017                   0042bd78 f   ke:sysstubs.obj
 0001:0002ad8c       $$$00019                   0042bd8c f   ke:sysstubs.obj
 0001:0002ada0       $$$00021                   0042bda0 f   ke:sysstubs.obj
 0001:0002adb4       $$$00023                   0042bdb4 f   ke:sysstubs.obj
 0001:0002adc8       $$$00025                   0042bdc8 f   ke:sysstubs.obj
 0001:0002addc       $$$00027                   0042bddc f   ke:sysstubs.obj
 0001:0002adf0       $$$00029                   0042bdf0 f   ke:sysstubs.obj
 0001:0002ae04       $$$00031                   0042be04 f   ke:sysstubs.obj
 0001:0002ae18       $$$00033                   0042be18 f   ke:sysstubs.obj
 0001:0002ae2c       $$$00035                   0042be2c f   ke:sysstubs.obj
 0001:0002ae40       $$$00037                   0042be40 f   ke:sysstubs.obj
 0001:0002ae54       $$$00039                   0042be54 f   ke:sysstubs.obj
 0001:0002ae68       $$$00041                   0042be68 f   ke:sysstubs.obj
 0001:0002ae7c       $$$00043                   0042be7c f   ke:sysstubs.obj
 0001:0002ae90       $$$00045                   0042be90 f   ke:sysstubs.obj
 0001:0002aea4       $$$00047                   0042bea4 f   ke:sysstubs.obj
 0001:0002aeb8       $$$00049                   0042beb8 f   ke:sysstubs.obj
 0001:0002aecc       $$$00051                   0042becc f   ke:sysstubs.obj
 0001:0002aee0       $$$00053                   0042bee0 f   ke:sysstubs.obj
 0001:0002aef4       $$$00055                   0042bef4 f   ke:sysstubs.obj
 0001:0002af08       $$$00057                   0042bf08 f   ke:sysstubs.obj
 0001:0002af1c       $$$00059                   0042bf1c f   ke:sysstubs.obj
 0001:0002af30       $$$00061                   0042bf30 f   ke:sysstubs.obj
 0001:0002af44       $$$00063                   0042bf44 f   ke:sysstubs.obj
 0001:0002af58       $$$00065                   0042bf58 f   ke:sysstubs.obj
 0001:0002af6c       $$$00067                   0042bf6c f   ke:sysstubs.obj
 0001:0002af80       $$$00069                   0042bf80 f   ke:sysstubs.obj
 0001:0002af94       $$$00071                   0042bf94 f   ke:sysstubs.obj
 0001:0002afa8       $$$00073                   0042bfa8 f   ke:sysstubs.obj
 0001:0002afbc       $$$00075                   0042bfbc f   ke:sysstubs.obj
 0001:0002afd0       $$$00077                   0042bfd0 f   ke:sysstubs.obj
 0001:0002afe4       $$$00079                   0042bfe4 f   ke:sysstubs.obj
 0001:0002aff8       $$$00081                   0042bff8 f   ke:sysstubs.obj
 0001:0002b00c       $$$00083                   0042c00c f   ke:sysstubs.obj
 0001:0002b020       $$$00085                   0042c020 f   ke:sysstubs.obj
 0001:0002b034       $$$00087                   0042c034 f   ke:sysstubs.obj
 0001:0002b048       $$$00089                   0042c048 f   ke:sysstubs.obj
 0001:0002b05c       $$$00091                   0042c05c f   ke:sysstubs.obj
 0001:0002b070       $$$00093                   0042c070 f   ke:sysstubs.obj
 0001:0002b084       $$$00095                   0042c084 f   ke:sysstubs.obj
 0001:0002b098       $$$00097                   0042c098 f   ke:sysstubs.obj
 0001:0002b0ac       $$$00099                   0042c0ac f   ke:sysstubs.obj
 0001:0002b0c0       $$$00101                   0042c0c0 f   ke:sysstubs.obj
 0001:0002b0d4       $$$00103                   0042c0d4 f   ke:sysstubs.obj
 0001:0002b0e8       $$$00105                   0042c0e8 f   ke:sysstubs.obj
 0001:0002b0fc       $$$00107                   0042c0fc f   ke:sysstubs.obj
 0001:0002b110       $$$00109                   0042c110 f   ke:sysstubs.obj
 0001:0002b124       $$$00111                   0042c124 f   ke:sysstubs.obj
 0001:0002b138       $$$00113                   0042c138 f   ke:sysstubs.obj
 0001:0002b14c       $$$00115                   0042c14c f   ke:sysstubs.obj
 0001:0002b160       $$$00117                   0042c160 f   ke:sysstubs.obj
 0001:0002b174       $$$00119                   0042c174 f   ke:sysstubs.obj
 0001:0002b188       $$$00121                   0042c188 f   ke:sysstubs.obj
 0001:0002b19c       $$$00123                   0042c19c f   ke:sysstubs.obj
 0001:0002b1b0       $$$00125                   0042c1b0 f   ke:sysstubs.obj
 0001:0002b1c4       $$$00127                   0042c1c4 f   ke:sysstubs.obj
 0001:0002b1d8       $$$00129                   0042c1d8 f   ke:sysstubs.obj
 0001:0002b1ec       $$$00131                   0042c1ec f   ke:sysstubs.obj
 0001:0002b200       $$$00133                   0042c200 f   ke:sysstubs.obj
 0001:0002b214       $$$00135                   0042c214 f   ke:sysstubs.obj
 0001:0002b228       $$$00137                   0042c228 f   ke:sysstubs.obj
 0001:0002b23c       $$$00139                   0042c23c f   ke:sysstubs.obj
 0001:0002b250       $$$00141                   0042c250 f   ke:sysstubs.obj
 0001:0002b264       $$$00143                   0042c264 f   ke:sysstubs.obj
 0001:0002b278       $$$00145                   0042c278 f   ke:sysstubs.obj
 0001:0002b28c       $$$00147                   0042c28c f   ke:sysstubs.obj
 0001:0002b2a0       $$$00149                   0042c2a0 f   ke:sysstubs.obj
 0001:0002b2b4       $$$00151                   0042c2b4 f   ke:sysstubs.obj
 0001:0002b2c8       $$$00153                   0042c2c8 f   ke:sysstubs.obj
 0001:0002b2dc       $$$00155                   0042c2dc f   ke:sysstubs.obj
 0001:0002b2f0       $$$00157                   0042c2f0 f   ke:sysstubs.obj
 0001:0002b304       $$$00159                   0042c304 f   ke:sysstubs.obj
 0001:0002b318       $$$00161                   0042c318 f   ke:sysstubs.obj
 0001:0002b32c       $$$00163                   0042c32c f   ke:sysstubs.obj
 0001:0002b340       $$$00165                   0042c340 f   ke:sysstubs.obj
 0001:0002b354       $$$00167                   0042c354 f   ke:sysstubs.obj
 0001:0002b368       $$$00169                   0042c368 f   ke:sysstubs.obj
 0001:0002b37c       $$$00171                   0042c37c f   ke:sysstubs.obj
 0001:0002b38e       $$$00173                   0042c38e f   ke:sysstubs.obj
 0001:0002b3a4       $$$00175                   0042c3a4 f   ke:sysstubs.obj
 0001:0002b3b8       $$$00177                   0042c3b8 f   ke:sysstubs.obj
 0001:0002b3cc       $$$00179                   0042c3cc f   ke:sysstubs.obj
 0001:0002b3e0       $$$00181                   0042c3e0 f   ke:sysstubs.obj
 0001:0002b3f4       $$$00183                   0042c3f4 f   ke:sysstubs.obj
 0001:0002b408       $$$00185                   0042c408 f   ke:sysstubs.obj
 0001:0002b41c       $$$00187                   0042c41c f   ke:sysstubs.obj
 0001:0002b430       $$$00189                   0042c430 f   ke:sysstubs.obj
 0001:0002b444       $$$00191                   0042c444 f   ke:sysstubs.obj
 0001:0002b458       $$$00193                   0042c458 f   ke:sysstubs.obj
 0001:0002b46c       $$$00195                   0042c46c f   ke:sysstubs.obj
 0001:0002b480       $$$00197                   0042c480 f   ke:sysstubs.obj
 0001:0002b494       $$$00199                   0042c494 f   ke:sysstubs.obj
 0001:0002b4a6       $$$00201                   0042c4a6 f   ke:sysstubs.obj
 0001:0002b4bc       $$$00203                   0042c4bc f   ke:sysstubs.obj
 0001:0002b4d0       $$$00205                   0042c4d0 f   ke:sysstubs.obj
 0001:0002b4e4       $$$00207                   0042c4e4 f   ke:sysstubs.obj
 0001:0002b4f8       $$$00209                   0042c4f8 f   ke:sysstubs.obj
 0001:0002b50c       $$$00211                   0042c50c f   ke:sysstubs.obj
 0001:0002b520       $$$00213                   0042c520 f   ke:sysstubs.obj
 0001:0002b534       $$$00215                   0042c534 f   ke:sysstubs.obj
 0001:0002b548       $$$00217                   0042c548 f   ke:sysstubs.obj
 0001:0002b55c       $$$00219                   0042c55c f   ke:sysstubs.obj
 0001:0002b570       $$$00221                   0042c570 f   ke:sysstubs.obj
 0001:0002b584       $$$00223                   0042c584 f   ke:sysstubs.obj
 0001:0002b598       $$$00225                   0042c598 f   ke:sysstubs.obj
 0001:0002b5ac       $$$00227                   0042c5ac f   ke:sysstubs.obj
 0001:0002b5c0       $$$00229                   0042c5c0 f   ke:sysstubs.obj
 0001:0002b5d4       $$$00231                   0042c5d4 f   ke:sysstubs.obj
 0001:0002b5e8       $$$00233                   0042c5e8 f   ke:sysstubs.obj
 0001:0002b5fc       $$$00235                   0042c5fc f   ke:sysstubs.obj
 0001:0002b610       $$$00237                   0042c610 f   ke:sysstubs.obj
 0001:0002b624       $$$00239                   0042c624 f   ke:sysstubs.obj
 0001:0002b638       $$$00241                   0042c638 f   ke:sysstubs.obj
 0001:0002b64c       $$$00243                   0042c64c f   ke:sysstubs.obj
 0001:0002b660       $$$00245                   0042c660 f   ke:sysstubs.obj
 0001:0002b674       $$$00247                   0042c674 f   ke:sysstubs.obj
 0001:0002b688       $$$00249                   0042c688 f   ke:sysstubs.obj
 0001:0002b69c       $$$00251                   0042c69c f   ke:sysstubs.obj
 0001:0002b6b0       $$$00253                   0042c6b0 f   ke:sysstubs.obj
 0001:0002b6c4       $$$00255                   0042c6c4 f   ke:sysstubs.obj
 0001:0002b6d8       $$$00257                   0042c6d8 f   ke:sysstubs.obj
 0001:0002b6ec       $$$00259                   0042c6ec f   ke:sysstubs.obj
 0001:0002b700       $$$00261                   0042c700 f   ke:sysstubs.obj
 0001:0002b714       $$$00263                   0042c714 f   ke:sysstubs.obj
 0001:0002b728       $$$00265                   0042c728 f   ke:sysstubs.obj
 0001:0002b73c       $$$00267                   0042c73c f   ke:sysstubs.obj
 0001:0002b750       $$$00269                   0042c750 f   ke:sysstubs.obj
 0001:0002b764       $$$00271                   0042c764 f   ke:sysstubs.obj
 0001:0002b778       $$$00273                   0042c778 f   ke:sysstubs.obj
 0001:0002b78c       $$$00275                   0042c78c f   ke:sysstubs.obj
 0001:0002b7a0       $$$00277                   0042c7a0 f   ke:sysstubs.obj
 0001:0002b7b4       $$$00279                   0042c7b4 f   ke:sysstubs.obj
 0001:0002b7c8       $$$00281                   0042c7c8 f   ke:sysstubs.obj
 0001:0002b7dc       $$$00283                   0042c7dc f   ke:sysstubs.obj
 0001:0002b7f0       $$$00285                   0042c7f0 f   ke:sysstubs.obj
 0001:0002b804       $$$00287                   0042c804 f   ke:sysstubs.obj
 0001:0002b818       $$$00289                   0042c818 f   ke:sysstubs.obj
 0001:0002b82c       $$$00291                   0042c82c f   ke:sysstubs.obj
 0001:0002b840       $$$00293                   0042c840 f   ke:sysstubs.obj
 0001:0002b854       $$$00295                   0042c854 f   ke:sysstubs.obj
 0001:0002b868       $$$00297                   0042c868 f   ke:sysstubs.obj
 0001:0002b87c       $$$00299                   0042c87c f   ke:sysstubs.obj
 0001:0002b890       $$$00301                   0042c890 f   ke:sysstubs.obj
 0001:0002b8a4       $$$00303                   0042c8a4 f   ke:sysstubs.obj
 0001:0002b8b8       $$$00305                   0042c8b8 f   ke:sysstubs.obj
 0001:0002b8cc       $$$00307                   0042c8cc f   ke:sysstubs.obj
 0001:0002b8e0       $$$00309                   0042c8e0 f   ke:sysstubs.obj
 0001:0002b8f4       $$$00311                   0042c8f4 f   ke:sysstubs.obj
 0001:0002b908       $$$00313                   0042c908 f   ke:sysstubs.obj
 0001:0002b91c       $$$00315                   0042c91c f   ke:sysstubs.obj
 0001:0002b930       $$$00317                   0042c930 f   ke:sysstubs.obj
 0001:0002b944       $$$00319                   0042c944 f   ke:sysstubs.obj
 0001:0002b958       $$$00321                   0042c958 f   ke:sysstubs.obj
 0001:0002b96c       $$$00323                   0042c96c f   ke:sysstubs.obj
 0001:0002b980       $$$00325                   0042c980 f   ke:sysstubs.obj
 0001:0002b994       $$$00327                   0042c994 f   ke:sysstubs.obj
 0001:0002b9a8       $$$00329                   0042c9a8 f   ke:sysstubs.obj
 0001:0002b9bc       $$$00331                   0042c9bc f   ke:sysstubs.obj
 0001:0002b9d0       $$$00333                   0042c9d0 f   ke:sysstubs.obj
 0001:0002b9e4       $$$00335                   0042c9e4 f   ke:sysstubs.obj
 0001:0002b9f8       $$$00337                   0042c9f8 f   ke:sysstubs.obj
 0001:0002ba0c       $$$00339                   0042ca0c f   ke:sysstubs.obj
 0001:0002ba20       $$$00341                   0042ca20 f   ke:sysstubs.obj
 0001:0002ba34       $$$00343                   0042ca34 f   ke:sysstubs.obj
 0001:0002ba48       $$$00345                   0042ca48 f   ke:sysstubs.obj
 0001:0002ba5c       $$$00347                   0042ca5c f   ke:sysstubs.obj
 0001:0002ba70       $$$00349                   0042ca70 f   ke:sysstubs.obj
 0001:0002ba84       $$$00351                   0042ca84 f   ke:sysstubs.obj
 0001:0002ba98       $$$00353                   0042ca98 f   ke:sysstubs.obj
 0001:0002baac       $$$00355                   0042caac f   ke:sysstubs.obj
 0001:0002bac0       $$$00357                   0042cac0 f   ke:sysstubs.obj
 0001:0002bad4       $$$00359                   0042cad4 f   ke:sysstubs.obj
 0001:0002bae8       $$$00361                   0042cae8 f   ke:sysstubs.obj
 0001:0002bafc       $$$00363                   0042cafc f   ke:sysstubs.obj
 0001:0002bb10       $$$00365                   0042cb10 f   ke:sysstubs.obj
 0001:0002bb24       $$$00367                   0042cb24 f   ke:sysstubs.obj
 0001:0002bb38       $$$00369                   0042cb38 f   ke:sysstubs.obj
 0001:0002bb4c       $$$00371                   0042cb4c f   ke:sysstubs.obj
 0001:0002bb60       $$$00373                   0042cb60 f   ke:sysstubs.obj
 0001:0002bb74       $$$00375                   0042cb74 f   ke:sysstubs.obj
 0001:0002bb88       $$$00377                   0042cb88 f   ke:sysstubs.obj
 0001:0002bb9c       $$$00379                   0042cb9c f   ke:sysstubs.obj
 0001:0002bbb0       $$$00381                   0042cbb0 f   ke:sysstubs.obj
 0001:0002bbc4       $$$00383                   0042cbc4 f   ke:sysstubs.obj
 0001:0002bbd8       $$$00385                   0042cbd8 f   ke:sysstubs.obj
 0001:0002bbec       $$$00387                   0042cbec f   ke:sysstubs.obj
 0001:0002bc00       $$$00389                   0042cc00 f   ke:sysstubs.obj
 0001:0002bc14       $$$00391                   0042cc14 f   ke:sysstubs.obj
 0001:0002bc28       $$$00393                   0042cc28 f   ke:sysstubs.obj
 0001:0002bc3c       $$$00395                   0042cc3c f   ke:sysstubs.obj
 0001:0002bc50       $$$00397                   0042cc50 f   ke:sysstubs.obj
 0001:0002bc64       $$$00399                   0042cc64 f   ke:sysstubs.obj
 0001:0002bc78       $$$00401                   0042cc78 f   ke:sysstubs.obj
 0001:0002bc8c       $$$00403                   0042cc8c f   ke:sysstubs.obj
 0001:0002bca0       $$$00405                   0042cca0 f   ke:sysstubs.obj
 0001:0002bcb4       $$$00407                   0042ccb4 f   ke:sysstubs.obj
 0001:0002bcc8       $$$00409                   0042ccc8 f   ke:sysstubs.obj
 0001:0002bcdc       $$$00411                   0042ccdc f   ke:sysstubs.obj
 0001:0002bcf0       $$$00413                   0042ccf0 f   ke:sysstubs.obj
 0001:0002bd04       $$$00415                   0042cd04 f   ke:sysstubs.obj
 0001:0002bd18       $$$00417                   0042cd18 f   ke:sysstubs.obj
 0001:0002bd2c       $$$00419                   0042cd2c f   ke:sysstubs.obj
 0001:0002bd40       $$$00421                   0042cd40 f   ke:sysstubs.obj
 0001:0002bd54       $$$00423                   0042cd54 f   ke:sysstubs.obj
 0001:0002bd68       $$$00425                   0042cd68 f   ke:sysstubs.obj
 0001:0002bd7c       $$$00427                   0042cd7c f   ke:sysstubs.obj
 0001:0002bd90       $$$00429                   0042cd90 f   ke:sysstubs.obj
 0001:0002bda4       $$$00431                   0042cda4 f   ke:sysstubs.obj
 0001:0002bdb8       $$$00433                   0042cdb8 f   ke:sysstubs.obj
 0001:0002bdcc       $$$00435                   0042cdcc f   ke:sysstubs.obj
 0001:0002bde0       $$$00437                   0042cde0 f   ke:sysstubs.obj
 0001:0002bdf4       $$$00439                   0042cdf4 f   ke:sysstubs.obj
 0001:0002be08       $$$00441                   0042ce08 f   ke:sysstubs.obj
 0001:0002be1c       $$$00443                   0042ce1c f   ke:sysstubs.obj
 0001:0002be30       $$$00445                   0042ce30 f   ke:sysstubs.obj
 0001:0002be44       $$$00447                   0042ce44 f   ke:sysstubs.obj
 0001:0002be58       $$$00449                   0042ce58 f   ke:sysstubs.obj
 0001:0002be6c       $$$00451                   0042ce6c f   ke:sysstubs.obj
 0001:0002be80       $$$00453                   0042ce80 f   ke:sysstubs.obj
 0001:0002be94       $$$00455                   0042ce94 f   ke:sysstubs.obj
 0001:0002bea8       $$$00457                   0042cea8 f   ke:sysstubs.obj
 0001:0002bebc       $$$00459                   0042cebc f   ke:sysstubs.obj
 0001:0002bed0       $$$00461                   0042ced0 f   ke:sysstubs.obj
 0001:0002bee4       $$$00463                   0042cee4 f   ke:sysstubs.obj
 0001:0002bef8       $$$00465                   0042cef8 f   ke:sysstubs.obj
 0001:0002bf0c       $$$00467                   0042cf0c f   ke:sysstubs.obj
 0001:0002bf20       $$$00469                   0042cf20 f   ke:sysstubs.obj
 0001:0002bf34       $$$00471                   0042cf34 f   ke:sysstubs.obj
 0001:0002bf48       $$$00473                   0042cf48 f   ke:sysstubs.obj
 0001:0002bf5c       $$$00475                   0042cf5c f   ke:sysstubs.obj
 0001:0002bf70       $$$00477                   0042cf70 f   ke:sysstubs.obj
 0001:0002bf84       $$$00479                   0042cf84 f   ke:sysstubs.obj
 0001:0002bf98       $$$00481                   0042cf98 f   ke:sysstubs.obj
 0001:0002bfac       $$$00483                   0042cfac f   ke:sysstubs.obj
 0001:0002bfc0       $$$00485                   0042cfc0 f   ke:sysstubs.obj
 0001:0002bfd4       $$$00487                   0042cfd4 f   ke:sysstubs.obj
 0001:0002bfe8       $$$00489                   0042cfe8 f   ke:sysstubs.obj
 0001:0002bffc       $$$00491                   0042cffc f   ke:sysstubs.obj
 0001:0002c010       $$$00493                   0042d010 f   ke:sysstubs.obj
 0001:0002c024       $$$00495                   0042d024 f   ke:sysstubs.obj
 0001:0002c038       $$$00497                   0042d038 f   ke:sysstubs.obj
 0001:0002c04c       $$$00499                   0042d04c f   ke:sysstubs.obj
 0001:0002c060       $$$00501                   0042d060 f   ke:sysstubs.obj
 0001:0002c074       $$$00503                   0042d074 f   ke:sysstubs.obj
 0001:0002c088       $$$00505                   0042d088 f   ke:sysstubs.obj
 0001:0002c09c       $$$00507                   0042d09c f   ke:sysstubs.obj
 0001:0002c0b0       $$$00509                   0042d0b0 f   ke:sysstubs.obj
 0001:0002c0c4       $$$00511                   0042d0c4 f   ke:sysstubs.obj
 0001:0002c0d8       $$$00513                   0042d0d8 f   ke:sysstubs.obj
 0001:0002c0ec       $$$00515                   0042d0ec f   ke:sysstubs.obj
 0001:0002c100       $$$00517                   0042d100 f   ke:sysstubs.obj
 0001:0002c114       $$$00519                   0042d114 f   ke:sysstubs.obj
 0001:0002c128       $$$00521                   0042d128 f   ke:sysstubs.obj
 0001:0002c13c       $$$00523                   0042d13c f   ke:sysstubs.obj
 0001:0002c150       $$$00525                   0042d150 f   ke:sysstubs.obj
 0001:0002c164       $$$00527                   0042d164 f   ke:sysstubs.obj
 0001:0002c178       $$$00529                   0042d178 f   ke:sysstubs.obj
 0001:0002c18c       $$$00531                   0042d18c f   ke:sysstubs.obj
 0001:0002c1a0       $$$00533                   0042d1a0 f   ke:sysstubs.obj
 0001:0002c1b4       $$$00535                   0042d1b4 f   ke:sysstubs.obj
 0001:0002c1c8       $$$00537                   0042d1c8 f   ke:sysstubs.obj
 0001:0002c1da       $$$00539                   0042d1da f   ke:sysstubs.obj
 0001:0002c1f0       $$$00541                   0042d1f0 f   ke:sysstubs.obj
 0001:0002c204       $$$00543                   0042d204 f   ke:sysstubs.obj
 0001:0002c218       $$$00545                   0042d218 f   ke:sysstubs.obj
 0001:0002c22c       $$$00547                   0042d22c f   ke:sysstubs.obj
 0001:0002c240       $$$00549                   0042d240 f   ke:sysstubs.obj
 0001:0002c254       $$$00551                   0042d254 f   ke:sysstubs.obj
 0001:0002c268       $$$00553                   0042d268 f   ke:sysstubs.obj
 0001:0002c27c       $$$00555                   0042d27c f   ke:sysstubs.obj
 0001:0002c290       $$$00557                   0042d290 f   ke:sysstubs.obj
 0001:0002c2a4       $$$00559                   0042d2a4 f   ke:sysstubs.obj
 0001:0002c2b8       $$$00561                   0042d2b8 f   ke:sysstubs.obj
 0001:0002c2cc       $$$00563                   0042d2cc f   ke:sysstubs.obj
 0001:0002c2e0       $$$00565                   0042d2e0 f   ke:sysstubs.obj
 0001:0002c2f4       $$$00567                   0042d2f4 f   ke:sysstubs.obj
 0001:0002c308       $$$00569                   0042d308 f   ke:sysstubs.obj
 0001:0002c31c       $$$00571                   0042d31c f   ke:sysstubs.obj
 0001:0002c330       $$$00573                   0042d330 f   ke:sysstubs.obj
 0001:0002c344       $$$00575                   0042d344 f   ke:sysstubs.obj
 0001:0002c358       $$$00577                   0042d358 f   ke:sysstubs.obj
 0001:0002c36a       $$$00579                   0042d36a f   ke:sysstubs.obj
 0001:0002c380       $$$00581                   0042d380 f   ke:sysstubs.obj
 0001:0002c394       $$$00583                   0042d394 f   ke:sysstubs.obj
 0001:0002c3a8       $$$00585                   0042d3a8 f   ke:sysstubs.obj
 0001:0002c3bc       $$$00587                   0042d3bc f   ke:sysstubs.obj
 0001:0002c3ce       $$$00589                   0042d3ce f   ke:sysstubs.obj
 0001:0002c3e2       $$$00591                   0042d3e2 f   ke:sysstubs.obj
 0001:0002c3f8       $$$00593                   0042d3f8 f   ke:sysstubs.obj
 0001:0002da88       $$$00001                   0042ea88 f   ke:procstat.obj
 0001:0002dab0       $$$00003                   0042eab0 f   ke:procstat.obj
 0001:0002db44       $$$00005                   0042eb44 f   ke:procstat.obj
 0001:0002db72       $$$00007                   0042eb72 f   ke:procstat.obj
 0001:0002e808       $$$00001                   0042f808 f   ke:callout.obj
 0001:0002e906       $$$00003                   0042f906 f   ke:callout.obj
 0001:0002e982       $$$00005                   0042f982 f   ke:callout.obj
 0001:0002e994       $$$00007                   0042f994 f   ke:callout.obj
 0001:0002ee2c       $$$00001                   0042fe2c f   ke:int.obj
 0001:0002ee2d       $$$00003                   0042fe2d f   ke:int.obj
 0001:0002fe90       $$$00020                   00430e90 f   ke:cpu.obj
 0001:0002fe93       $$$00022                   00430e93 f   ke:cpu.obj
 0001:0002fe97       $$$00024                   00430e97 f   ke:cpu.obj
 0001:0002fea9       $$$00026                   00430ea9 f   ke:cpu.obj
 0001:000302a0       $$$00001                   004312a0 f   ke:emxcptn.obj
 0001:00030306       stnpx_30                   00431306 f   ke:emxcptn.obj
 0001:0003030e       $$$00004                   0043130e f   ke:emxcptn.obj
 0001:000304a8       npxts_30                   004314a8 f   ke:emxcptn.obj
 0001:000304b1       $$$00007                   004314b1 f   ke:emxcptn.obj
 0001:00031484       $$$00001                   00432484 f   ke:zero.obj
 0001:000314a8       $$$00003                   004324a8 f   ke:zero.obj
 0001:00031529       $$$00005                   00432529 f   ke:zero.obj
 0001:00060d98       $$$00001                   00461d98 f   ntosrtl:debug2.obj
 0001:00060d9a       $$$00003                   00461d9a f   ntosrtl:debug2.obj
 0001:00060d9e       $$$00005                   00461d9e f   ntosrtl:debug2.obj
 0001:000610a0       $$$00001                   004620a0 f   ntosrtl:ioaccess.obj
 0001:000610a9       $$$00003                   004620a9 f   ntosrtl:ioaccess.obj
 0001:000610b6       $$$00005                   004620b6 f   ntosrtl:ioaccess.obj
 0001:000610c1       $$$00007                   004620c1 f   ntosrtl:ioaccess.obj
 0001:000610dd       $$$00009                   004620dd f   ntosrtl:ioaccess.obj
 0001:000610fa       $$$00011                   004620fa f   ntosrtl:ioaccess.obj
 0001:00061115       $$$00013                   00462115 f   ntosrtl:ioaccess.obj
 0001:0006112a       $$$00015                   0046212a f   ntosrtl:ioaccess.obj
 0001:0006113f       $$$00017                   0046213f f   ntosrtl:ioaccess.obj
 0001:00061152       $$$00019                   00462152 f   ntosrtl:ioaccess.obj
 0001:00061172       $$$00021                   00462172 f   ntosrtl:ioaccess.obj
 0001:00061193       $$$00023                   00462193 f   ntosrtl:ioaccess.obj
 0001:0006308c       _FindNodeOrParent@12       0046408c f   ntosrtl:gentable.obj
 0001:000638dc       $$$00001                   004648dc f   ntosrtl:stkwalk.obj
 0001:00063bf4       $$$00001                   00464bf4 f   ntosrtl:stringsp.obj
 0001:00063c2c       $$$00003                   00464c2c f   ntosrtl:stringsp.obj
 0001:00063c64       $$$00005                   00464c64 f   ntosrtl:stringsp.obj
 0001:00065860       _TimeToDaysAndFraction@12  00466860 f   ntosrtl:time.obj
 0001:0006c980       _IopValidateSectionSize@8  0046d980 f   ntoswrk:DUMPCTL.obj
 0001:0006c9ae       _IopGetMaxValidSectionSize@8 0046d9ae f   ntoswrk:DUMPCTL.obj
 0001:00071610       $$$00001                   00472610 f   ntoswrk:exsup.obj
 0001:00071630       $$$00003                   00472630 f   ntoswrk:exsup.obj
 0001:00071630       __unwind_handler           00472630 f   ntoswrk:exsup.obj
 0001:0007166b       $$$00005                   0047266b f   ntoswrk:exsup.obj
 0001:000716db       $$$00007                   004726db f   ntoswrk:exsup.obj
 0001:00071725       $$$00011                   00472725 f   ntoswrk:exsup.obj
 0001:00071c38       $$$00001                   00472c38 f   ntoswrk:exsup2.obj
 0001:00071ce6       $$$00003                   00472ce6 f   ntoswrk:exsup2.obj
 0001:00071df1       $$$00003                   00472df1 f   ntoswrk:exsup3.obj
 0001:00071df6       _xtoa@16                   00472df6 f   ntoswrk:xtoa.obj
 0001:00071e6e       _xtow@16                   00472e6e f   ntoswrk:xtow.obj
 0001:00072ef0       _shortsort                 00473ef0 f   ntoswrk:qsort.obj
 0001:00073390       _$$$00001                  00474390 f   ntoswrk:strchr.obj
 0001:000787eb       _strtoxl                   004797eb f   ntoswrk:strtol.obj
 0001:000789f6       _wcstoxl                   004799f6 f   ntoswrk:wcstol.obj
 0001:0007bc03       _$$$00003                  0047cc03 f   ntoswrk:87disp.obj
 0001:0007bf07       _write_char                0047cf07 f   ntoswrk:output.obj
 0001:0007bf3f       _write_multi_char          0047cf3f f   ntoswrk:output.obj
 0001:0007bf6a       _write_string              0047cf6a f   ntoswrk:output.obj
 0001:0007c979       _write_char                0047d979 f   ntoswrk:woutput.obj
 0001:0007c9a9       _write_multi_char          0047d9a9 f   ntoswrk:woutput.obj
 0001:0007c9d5       _write_string              0047d9d5 f   ntoswrk:woutput.obj
 0001:00080898       $$$00001                   00481898 f   ex:intrlfst.obj
 0001:000808a4       $$$00003                   004818a4 f   ex:intrlfst.obj
 0001:000808cf       $$$00005                   004818cf f   ex:intrlfst.obj
 0001:00080907       $$$00007                   00481907 f   ex:intrlfst.obj
 0001:00080940       $$$00009                   00481940 f   ex:intrlfst.obj
 0001:00080974       $$$00011                   00481974 f   ex:intrlfst.obj
 0001:000809a4       $$$00013                   004819a4 f   ex:intrlfst.obj
 0001:000809d9       $$$00015                   004819d9 f   ex:intrlfst.obj
 0001:000809e7       $$$00017                   004819e7 f   ex:intrlfst.obj
 0001:000809f3       $$$00019                   004819f3 f   ex:intrlfst.obj
 0001:000809f9       $$$00021                   004819f9 f   ex:intrlfst.obj
 0001:00080a07       $$$00023                   00481a07 f   ex:intrlfst.obj
 0001:00080a13       $$$00025                   00481a13 f   ex:intrlfst.obj
 0001:00080a1f       $$$00027                   00481a1f f   ex:intrlfst.obj
 0001:00080a3c       $$$00029                   00481a3c f   ex:intrlfst.obj
 0001:00080a58       $$$00031                   00481a58 f   ex:intrlfst.obj
 0001:00080a64       $$$00001                   00481a64 f   ex:intrlock.obj
 0001:00080ab3       $$$00003                   00481ab3 f   ex:intrlock.obj
 0001:00080ae7       $$$00005                   00481ae7 f   ex:intrlock.obj
 0001:00080b29       $$$00007                   00481b29 f   ex:intrlock.obj
 0001:00080b6d       $$$00009                   00481b6d f   ex:intrlock.obj
 0001:00080bb9       $$$00011                   00481bb9 f   ex:intrlock.obj
 0001:00080bf4       $$$00013                   00481bf4 f   ex:intrlock.obj
 0001:00080c29       $$$00015                   00481c29 f   ex:intrlock.obj
 0001:00080c3d       $$$00017                   00481c3d f   ex:intrlock.obj
 0001:00080c51       $$$00019                   00481c51 f   ex:intrlock.obj
 0001:00080c61       $$$00021                   00481c61 f   ex:intrlock.obj
 0001:00080c75       $$$00023                   00481c75 f   ex:intrlock.obj
 0001:00080c89       $$$00025                   00481c89 f   ex:intrlock.obj
 0001:00080ca0       $$$00001                   00481ca0 f   ke:spinlock.obj
 0001:00080cb4       $$$00003                   00481cb4 f   ke:spinlock.obj
 0001:00080ce0       $$$00005                   00481ce0 f   ke:spinlock.obj
 0001:00080ce5       $$$00007                   00481ce5 f   ke:spinlock.obj
 0001:00080d00       $$$00009                   00481d00 f   ke:spinlock.obj
 0001:00080d20       $$$00011                   00481d20 f   ke:spinlock.obj
 0001:00080d28       $$$00013                   00481d28 f   ke:spinlock.obj
 0001:00080d6c       $$$00015                   00481d6c f   ke:spinlock.obj
 0001:00080d83       $$$00017                   00481d83 f   ke:spinlock.obj
 0001:00080da0       $$$00019                   00481da0 f   ke:spinlock.obj
 0001:00080db0       $$$00021                   00481db0 f   ke:spinlock.obj
 0001:00080dd8       $$$00023                   00481dd8 f   ke:spinlock.obj
 0001:00080ddc       $$$00025                   00481ddc f   ke:spinlock.obj
 0001:00080e10       $$$00027                   00481e10 f   ke:spinlock.obj
 0001:00081627       $$$00418                   00482627 f   ke:trap.obj
 0001:00081632       $$$00419                   00482632 f   ke:trap.obj
 0001:000817f5       $$$00421                   004827f5 f   ke:trap.obj
 0001:00081c37       $$$00423                   00482c37 f   ke:trap.obj
 0001:00081de9       $$$00425                   00482de9 f   ke:trap.obj
 0001:00081ef9       $$$00427                   00482ef9 f   ke:trap.obj
 0001:00082023       $$$00429                   00483023 f   ke:trap.obj
 0001:000821d0       $$$00431                   004831d0 f   ke:trap.obj
 0001:000822f8       $$$00433                   004832f8 f   ke:trap.obj
 0001:000823a9       KiRestoreBaseFrame         004833a9 f   ke:trap.obj
 0001:0008240e       $$$00436                   0048340e f   ke:trap.obj
 0001:0008257c       $$$00438                   0048357c f   ke:trap.obj
 0001:000828ba       $$$00441                   004838ba f   ke:trap.obj
 0001:000829e3       $$$00443                   004839e3 f   ke:trap.obj
 0001:00082b61       $$$00445                   00483b61 f   ke:trap.obj
 0001:00082cc1       $$$00447                   00483cc1 f   ke:trap.obj
 0001:00082e28       $$$00449                   00483e28 f   ke:trap.obj
 0001:00083480       Kt6_ExceptionHandler       00484480 f   ke:trap.obj
 0001:000834a8       $$$00452                   004844a8 f   ke:trap.obj
 0001:000838b9       $$$00455                   004848b9 f   ke:trap.obj
 0001:000839dd       $$$00457                   004849dd f   ke:trap.obj
 0001:00083b1d       $$$00459                   00484b1d f   ke:trap.obj
 0001:00083d08       $$$00461                   00484d08 f   ke:trap.obj
 0001:0008402a       Ktd_ExceptionHandler       0048502a f   ke:trap.obj
 0001:00084056       $$$00465                   00485056 f   ke:trap.obj
 0001:00084720       $$$00467                   00485720 f   ke:trap.obj
 0001:00084adf       $$$00469                   00485adf f   ke:trap.obj
 0001:00084c01       $$$00471                   00485c01 f   ke:trap.obj
 0001:00084d43       $$$00473                   00485d43 f   ke:trap.obj
 0001:00084ead       $$$00475                   00485ead f   ke:trap.obj
 0001:00085120       $$$00477                   00486120 f   ke:trap.obj
 0001:0008513f       $$$00479                   0048613f f   ke:trap.obj
 0001:00085208       $$$00482                   00486208 f   ke:trap.obj
 0001:00085250       $$$00484                   00486250 f   ke:trap.obj
 0001:00085293       $$$00486                   00486293 f   ke:trap.obj
 0001:000852c8       $$$00001                   004862c8 f   ke:spindbg.obj
 0001:000852d0       $$$00001                   004862d0 f   ke:i386pcr.obj
 0001:000852d7       $$$00003                   004862d7 f   ke:i386pcr.obj
 0001:000852e6       $$$00005                   004862e6 f   ke:i386pcr.obj
 0001:000852f1       $$$00007                   004862f1 f   ke:i386pcr.obj
 0001:00085344       $$$00001                   00486344 f   ke:clockint.obj
 0001:00085472       $$$00003                   00486472 f   ke:clockint.obj
 0001:000855a3       $$$00005                   004865a3 f   ke:clockint.obj
 0001:000855ac       $$$00007                   004865ac f   ke:clockint.obj
 0001:00085750       $$$00001                   00486750 f   ke:intsup.obj
 0001:00085790       $$$00003                   00486790 f   ke:intsup.obj
 0001:000857c5       $$$00005                   004867c5 f   ke:intsup.obj
 0001:000858d0       $$$00007                   004868d0 f   ke:intsup.obj
 0001:00085980       $$$00009                   00486980 f   ke:intsup.obj
 0001:00085a30       $$$00011                   00486a30 f   ke:intsup.obj
 0001:00085a47       _KiShutUpAssembler         00486a47 f   ke:intsup.obj
 0001:00085be0       $$$00001                   00486be0 f   ke:ctxswap.obj
 0001:00085be8       $$$00003                   00486be8 f   ke:ctxswap.obj
 0001:00085c30       $$$00005                   00486c30 f   ke:ctxswap.obj
 0001:00085e8e       $$$00008                   00486e8e f   ke:ctxswap.obj
 0001:00085eab       $$$00010                   00486eab f   ke:ctxswap.obj
 0001:00085ead       $$$00023                   00486ead f   ke:ctxswap.obj
 0001:00085f26       $$$00025                   00486f26 f   ke:ctxswap.obj
 0001:0008601c       $$$00027                   0048701c f   ke:ctxswap.obj
 0001:00086050       $$$00069                   00487050 f   ke:instemul.obj
 0001:0008607c       $$$00001                   0048707c f   ke:timindex.obj
 0001:0008617f       scr_fault                  0048717f f   ke:emv86.obj
 0001:0008618c       $$$00001                   0048718c f   ke:threadbg.obj
 0001:000861bc       $$$00001                   004871bc f   ntosrtl:slist.obj
 0001:000861bc       $$$00003                   004871bc f   ntosrtl:slist.obj
 0001:000861db       $$$00005                   004871db f   ntosrtl:slist.obj
 0001:000861dc       $$$00009                   004871dc f   ntosrtl:slist.obj
 0001:000861dc       $$$00007                   004871dc f   ntosrtl:slist.obj
 0001:000861f9       $$$00011                   004871f9 f   ntosrtl:slist.obj
 0001:000861ff       $$$00013                   004871ff f   ntosrtl:slist.obj
 0001:00086200       $$$00015                   00487200 f   ntosrtl:slist.obj
 0001:0008621e       $$$00017                   0048721e f   ntosrtl:slist.obj
 0001:00086248       $$$00019                   00487248 f   ntosrtl:slist.obj
 0001:00086251       $$$00021                   00487251 f   ntosrtl:slist.obj
 0001:00086270       $$$00023                   00487270 f   ntosrtl:slist.obj
 0001:000862a0       $$$00001                   004872a0 f   ntosrtl:movemem.obj
 0001:000862e7       $$$00003                   004872e7 f   ntosrtl:movemem.obj
 0001:00086311       $$$00005                   00487311 f   ntosrtl:movemem.obj
 0001:00086351       $$$00007                   00487351 f   ntosrtl:movemem.obj
 0001:00086387       $$$00009                   00487387 f   ntosrtl:movemem.obj
 0001:000863a6       $$$00011                   004873a6 f   ntosrtl:movemem.obj
 0001:000863d4       $$$00013                   004873d4 f   ntosrtl:movemem.obj
 0001:00086423       $$$00015                   00487423 f   ntosrtl:movemem.obj
 0001:00086667       $$$00017                   00487667 f   ntosrtl:movemem.obj
 0001:00086680       $$$00001                   00487680 f   ntosrtl:largeint.obj
 0001:00086693       $$$00003                   00487693 f   ntosrtl:largeint.obj
 0001:0008669f       $$$00005                   0048769f f   ntosrtl:largeint.obj
 0001:000866ab       $$$00007                   004876ab f   ntosrtl:largeint.obj
 0001:000866c9       $$$00009                   004876c9 f   ntosrtl:largeint.obj
 0001:00086726       $$$00011                   00487726 f   ntosrtl:largeint.obj
 0001:000867b6       $$$00013                   004877b6 f   ntosrtl:largeint.obj
 0001:0008680e       $$$00015                   0048780e f   ntosrtl:largeint.obj
 0001:00086837       $$$00017                   00487837 f   ntosrtl:largeint.obj
 0001:0008685f       $$$00019                   0048785f f   ntosrtl:largeint.obj
 0001:0008688c       $$$00021                   0048788c f   ntosrtl:largeint.obj
 0001:0008689e       $$$00023                   0048789e f   ntosrtl:largeint.obj
 0001:000868b3       $$$00025                   004878b3 f   ntosrtl:largeint.obj
 0001:000868bc       $$$00027                   004878bc f   ntosrtl:largeint.obj
 0001:000868cc       $$$00001                   004878cc f   ke:ldtsup2.obj
 0001:000868fe       $$$00003                   004878fe f   ke:ldtsup2.obj
 0001:00086914       $$$00001                   00487914 f   ntosrtl:raise.obj
 0001:00086968       $$$00003                   00487968 f   ntosrtl:raise.obj
 0001:000869cc       $$$00001                   004879cc f   ntosrtl:xcptmisc.obj
 0001:000869d3       $$$00003                   004879d3 f   ntosrtl:xcptmisc.obj
 0001:000869d9       $$$00005                   004879d9 f   ntosrtl:xcptmisc.obj
 0001:00086a06       $$$00007                   00487a06 f   ntosrtl:xcptmisc.obj
 0001:00086a42       $$$00009                   00487a42 f   ntosrtl:xcptmisc.obj
 0001:00086a42       ExceptionHandler@16        00487a42 f   ntosrtl:xcptmisc.obj
 0001:00086a69       $$$00011                   00487a69 f   ntosrtl:xcptmisc.obj
 0001:00086a69       UnwindHandler@16           00487a69 f   ntosrtl:xcptmisc.obj
 0001:00086a90       $$$00013                   00487a90 f   ntosrtl:xcptmisc.obj
 0001:00086aa0       $$$00015                   00487aa0 f   ntosrtl:xcptmisc.obj
 0001:00086ace       $$$00017                   00487ace f   ntosrtl:xcptmisc.obj
 0001:00086b5b       $$$00019                   00487b5b f   ntosrtl:xcptmisc.obj
 0001:00086b82       $$$00021                   00487b82 f   ntosrtl:xcptmisc.obj
 0007:000654f6       _ScanHexFormat             0050f4f6 f   ntosrtl:guid.obj
 0007:0009f10c       _ExpWatchExpirationDataWork@4 0054910c f   ntoswrk:SYSTIME.obj
 0007:0009f7fa       _ExpWatchLicenseInfoWork@4 005497fa f   ntoswrk:EXSCAN.obj
 0007:0009fa82       _ExpWatchProductTypeWork@4 00549a82 f   ntoswrk:EXSCAN.obj
 0007:0009fcda       _ExpWatchSystemPrefixWork@4 00549cda f   ntoswrk:EXSCAN.obj
 0007:000eb4c0       $$$00001                   005954c0 f   ke:instemul.obj
 0007:000eb4cc       $$$00003                   005954cc f   ke:instemul.obj
 0007:000eb4d8       $$$00005                   005954d8 f   ke:instemul.obj
 0007:000eb4e4       $$$00007                   005954e4 f   ke:instemul.obj
 0007:000eb4f0       $$$00009                   005954f0 f   ke:instemul.obj
 0007:000eb4fc       $$$00011                   005954fc f   ke:instemul.obj
 0007:000eb508       $$$00013                   00595508 f   ke:instemul.obj
 0007:000eb514       $$$00015                   00595514 f   ke:instemul.obj
 0007:000eb520       $$$00017                   00595520 f   ke:instemul.obj
 0007:000eb52c       $$$00019                   0059552c f   ke:instemul.obj
 0007:000eb538       $$$00021                   00595538 f   ke:instemul.obj
 0007:000eb544       $$$00023                   00595544 f   ke:instemul.obj
 0007:000eb956       CheckVdmFlags              00595956 f   ke:instemul.obj
 0007:000eba0e       GetVirtualBits_Handler     00595a0e f   ke:instemul.obj
 0007:000eba16       SetVirtualBits             00595a16 f   ke:instemul.obj
 0007:000eba78       SetVirtualBits_Handler     00595a78 f   ke:instemul.obj
 0007:000eba7e       $$$00049                   00595a7e f   ke:instemul.obj
 0007:000ebc84       $$$00051                   00595c84 f   ke:instemul.obj
 0007:000ebe21       VdmSegNotPres_ExceptionHandler 00595e21 f   ke:instemul.obj
 0007:000ebe2a       $$$00054                   00595e2a f   ke:instemul.obj
 0007:000ebfa9       PushIntExceptionHandler    00595fa9 f   ke:instemul.obj
 0007:000ec166       SwitchToHandlerStack_fault 00596166 f   ke:instemul.obj
 0007:000ec1df       GetHandlerAddress_fault    005961df f   ke:instemul.obj
 0007:000ec513       perr1_fault                00596513 f   ke:instemul.obj
 0007:000ec524       perr_fault                 00596524 f   ke:instemul.obj
 0007:000ec53c       $$$00001                   0059653c f   ke:emv86.obj
 0007:000ec547       $$$00003                   00596547 f   ke:emv86.obj
 0007:000ec552       $$$00005                   00596552 f   ke:emv86.obj
 0007:000ec55d       $$$00007                   0059655d f   ke:emv86.obj
 0007:000ec568       $$$00009                   00596568 f   ke:emv86.obj
 0007:000ec570       $$$00011                   00596570 f   ke:emv86.obj
 0007:000ec578       $$$00013                   00596578 f   ke:emv86.obj
 0007:000ec580       $$$00015                   00596580 f   ke:emv86.obj
 0007:000ec588       $$$00017                   00596588 f   ke:emv86.obj
 0007:000ec590       $$$00019                   00596590 f   ke:emv86.obj
 0007:000ec598       $$$00021                   00596598 f   ke:emv86.obj
 0007:000ec5a0       $$$00023                   005965a0 f   ke:emv86.obj
 0007:000ec90b       oinnvuserrefs              0059690b f   ke:emv86.obj
 0007:000ec977       oinnvuserrefs_fault        00596977 f   ke:emv86.obj
 0007:000ecce6       diafault                   00596ce6 f   ke:emv86.obj
 0007:000ecd08       $$$00001                   00596d08 f   lpc:lpcmove.obj
 0008:0000cf00       _z_hash_map_init@0         005a4f00 f   ntoswrk:XENCODE.obj
 0008:0000cfb0       _z_hash_insert@4           005a4fb0 f   ntoswrk:XENCODE.obj
 0008:0000d040       _tag_write_finish@4        005a5040 f   ntoswrk:XENCODE.obj
 0008:0000d080       _encode0_pass1@4           005a5080 f   ntoswrk:XENCODE.obj
 0008:0000d280       _encode1_pass1@4           005a5280 f   ntoswrk:XENCODE.obj
 0008:0000d4d0       _encode2_pass1@4           005a54d0 f   ntoswrk:XENCODE.obj
 0008:0000d800       _encodeN_pass1@4           005a5800 f   ntoswrk:XENCODE.obj
 0008:0000db80       _encode_pass1_progress@20  005a5b80 f   ntoswrk:XENCODE.obj
 0014:00005158       _NameToOrdinal@20          005ed158 f   init:initos.obj
 0014:000086ac       $$$00001                   005f06ac f   ke:newsysbg.obj
 0014:000089b6       $$$00003                   005f09b6 f   ke:newsysbg.obj
 0014:000089d4       $$$00001                   005f09d4 f   ke:trap.obj
 0014:00008b54       $$$00002                   005f0b54 f   ke:trap.obj
 0014:00008b5c       $$$00004                   005f0b5c f   ke:trap.obj
 0014:00008b64       $$$00006                   005f0b64 f   ke:trap.obj
 0014:00008b6c       $$$00008                   005f0b6c f   ke:trap.obj
 0014:00008b74       $$$00010                   005f0b74 f   ke:trap.obj
 0014:00008b7c       $$$00012                   005f0b7c f   ke:trap.obj
 0014:00008b84       $$$00014                   005f0b84 f   ke:trap.obj
 0014:00008b8c       $$$00016                   005f0b8c f   ke:trap.obj
 0014:00008b94       $$$00018                   005f0b94 f   ke:trap.obj
 0014:00008b9c       $$$00020                   005f0b9c f   ke:trap.obj
 0014:00008ba4       $$$00022                   005f0ba4 f   ke:trap.obj
 0014:00008bac       $$$00024                   005f0bac f   ke:trap.obj
 0014:00008bb4       $$$00026                   005f0bb4 f   ke:trap.obj
 0014:00008bbc       $$$00028                   005f0bbc f   ke:trap.obj
 0014:00008bc4       $$$00030                   005f0bc4 f   ke:trap.obj
 0014:00008bcc       $$$00032                   005f0bcc f   ke:trap.obj
 0014:00008bd4       $$$00034                   005f0bd4 f   ke:trap.obj
 0014:00008bdc       $$$00036                   005f0bdc f   ke:trap.obj
 0014:00008be4       $$$00038                   005f0be4 f   ke:trap.obj
 0014:00008bec       $$$00040                   005f0bec f   ke:trap.obj
 0014:00008bf4       $$$00042                   005f0bf4 f   ke:trap.obj
 0014:00008bfc       $$$00044                   005f0bfc f   ke:trap.obj
 0014:00008c04       $$$00046                   005f0c04 f   ke:trap.obj
 0014:00008c0c       $$$00048                   005f0c0c f   ke:trap.obj
 0014:00008c14       $$$00050                   005f0c14 f   ke:trap.obj
 0014:00008c1c       $$$00052                   005f0c1c f   ke:trap.obj
 0014:00008c24       $$$00054                   005f0c24 f   ke:trap.obj
 0014:00008c2c       $$$00056                   005f0c2c f   ke:trap.obj
 0014:00008c34       $$$00058                   005f0c34 f   ke:trap.obj
 0014:00008c3c       $$$00060                   005f0c3c f   ke:trap.obj
 0014:00008c44       $$$00062                   005f0c44 f   ke:trap.obj
 0014:00008c4c       $$$00064                   005f0c4c f   ke:trap.obj
 0014:00008c54       $$$00066                   005f0c54 f   ke:trap.obj
 0014:00008c5c       $$$00068                   005f0c5c f   ke:trap.obj
 0014:00008c64       $$$00070                   005f0c64 f   ke:trap.obj
 0014:00008c6c       $$$00072                   005f0c6c f   ke:trap.obj
 0014:00008c74       $$$00074                   005f0c74 f   ke:trap.obj
 0014:00008c7c       $$$00076                   005f0c7c f   ke:trap.obj
 0014:00008c84       $$$00078                   005f0c84 f   ke:trap.obj
 0014:00008c8c       $$$00080                   005f0c8c f   ke:trap.obj
 0014:00008c94       $$$00082                   005f0c94 f   ke:trap.obj
 0014:00008c9c       $$$00084                   005f0c9c f   ke:trap.obj
 0014:00008ca4       $$$00086                   005f0ca4 f   ke:trap.obj
 0014:00008cac       $$$00088                   005f0cac f   ke:trap.obj
 0014:00008cb4       $$$00090                   005f0cb4 f   ke:trap.obj
 0014:00008cbc       $$$00092                   005f0cbc f   ke:trap.obj
 0014:00008cc4       $$$00094                   005f0cc4 f   ke:trap.obj
 0014:00008ccc       $$$00096                   005f0ccc f   ke:trap.obj
 0014:00008cd4       $$$00098                   005f0cd4 f   ke:trap.obj
 0014:00008cdc       $$$00100                   005f0cdc f   ke:trap.obj
 0014:00008ce4       $$$00102                   005f0ce4 f   ke:trap.obj
 0014:00008cec       $$$00104                   005f0cec f   ke:trap.obj
 0014:00008cf4       $$$00106                   005f0cf4 f   ke:trap.obj
 0014:00008cfc       $$$00108                   005f0cfc f   ke:trap.obj
 0014:00008d04       $$$00110                   005f0d04 f   ke:trap.obj
 0014:00008d0c       $$$00112                   005f0d0c f   ke:trap.obj
 0014:00008d14       $$$00114                   005f0d14 f   ke:trap.obj
 0014:00008d1c       $$$00116                   005f0d1c f   ke:trap.obj
 0014:00008d24       $$$00118                   005f0d24 f   ke:trap.obj
 0014:00008d2c       $$$00120                   005f0d2c f   ke:trap.obj
 0014:00008d34       $$$00122                   005f0d34 f   ke:trap.obj
 0014:00008d3c       $$$00124                   005f0d3c f   ke:trap.obj
 0014:00008d44       $$$00126                   005f0d44 f   ke:trap.obj
 0014:00008d4c       $$$00128                   005f0d4c f   ke:trap.obj
 0014:00008d54       $$$00130                   005f0d54 f   ke:trap.obj
 0014:00008d5c       $$$00132                   005f0d5c f   ke:trap.obj
 0014:00008d64       $$$00134                   005f0d64 f   ke:trap.obj
 0014:00008d6c       $$$00136                   005f0d6c f   ke:trap.obj
 0014:00008d74       $$$00138                   005f0d74 f   ke:trap.obj
 0014:00008d7c       $$$00140                   005f0d7c f   ke:trap.obj
 0014:00008d84       $$$00142                   005f0d84 f   ke:trap.obj
 0014:00008d8c       $$$00144                   005f0d8c f   ke:trap.obj
 0014:00008d94       $$$00146                   005f0d94 f   ke:trap.obj
 0014:00008d9c       $$$00148                   005f0d9c f   ke:trap.obj
 0014:00008da4       $$$00150                   005f0da4 f   ke:trap.obj
 0014:00008dac       $$$00152                   005f0dac f   ke:trap.obj
 0014:00008db4       $$$00154                   005f0db4 f   ke:trap.obj
 0014:00008dbc       $$$00156                   005f0dbc f   ke:trap.obj
 0014:00008dc4       $$$00158                   005f0dc4 f   ke:trap.obj
 0014:00008dcc       $$$00160                   005f0dcc f   ke:trap.obj
 0014:00008dd4       $$$00162                   005f0dd4 f   ke:trap.obj
 0014:00008ddc       $$$00164                   005f0ddc f   ke:trap.obj
 0014:00008de4       $$$00166                   005f0de4 f   ke:trap.obj
 0014:00008dec       $$$00168                   005f0dec f   ke:trap.obj
 0014:00008df4       $$$00170                   005f0df4 f   ke:trap.obj
 0014:00008dfc       $$$00172                   005f0dfc f   ke:trap.obj
 0014:00008e04       $$$00174                   005f0e04 f   ke:trap.obj
 0014:00008e0c       $$$00176                   005f0e0c f   ke:trap.obj
 0014:00008e14       $$$00178                   005f0e14 f   ke:trap.obj
 0014:00008e1c       $$$00180                   005f0e1c f   ke:trap.obj
 0014:00008e24       $$$00182                   005f0e24 f   ke:trap.obj
 0014:00008e2c       $$$00184                   005f0e2c f   ke:trap.obj
 0014:00008e34       $$$00186                   005f0e34 f   ke:trap.obj
 0014:00008e3c       $$$00188                   005f0e3c f   ke:trap.obj
 0014:00008e44       $$$00190                   005f0e44 f   ke:trap.obj
 0014:00008e4c       $$$00192                   005f0e4c f   ke:trap.obj
 0014:00008e54       $$$00194                   005f0e54 f   ke:trap.obj
 0014:00008e5c       $$$00196                   005f0e5c f   ke:trap.obj
 0014:00008e64       $$$00198                   005f0e64 f   ke:trap.obj
 0014:00008e6c       $$$00200                   005f0e6c f   ke:trap.obj
 0014:00008e74       $$$00202                   005f0e74 f   ke:trap.obj
 0014:00008e7c       $$$00204                   005f0e7c f   ke:trap.obj
 0014:00008e84       $$$00206                   005f0e84 f   ke:trap.obj
 0014:00008e8c       $$$00208                   005f0e8c f   ke:trap.obj
 0014:00008e94       $$$00210                   005f0e94 f   ke:trap.obj
 0014:00008e9c       $$$00212                   005f0e9c f   ke:trap.obj
 0014:00008ea4       $$$00214                   005f0ea4 f   ke:trap.obj
 0014:00008eac       $$$00216                   005f0eac f   ke:trap.obj
 0014:00008eb4       $$$00218                   005f0eb4 f   ke:trap.obj
 0014:00008ebc       $$$00220                   005f0ebc f   ke:trap.obj
 0014:00008ec4       $$$00222                   005f0ec4 f   ke:trap.obj
 0014:00008ecc       $$$00224                   005f0ecc f   ke:trap.obj
 0014:00008ed4       $$$00226                   005f0ed4 f   ke:trap.obj
 0014:00008edc       $$$00228                   005f0edc f   ke:trap.obj
 0014:00008ee4       $$$00230                   005f0ee4 f   ke:trap.obj
 0014:00008eec       $$$00232                   005f0eec f   ke:trap.obj
 0014:00008ef4       $$$00234                   005f0ef4 f   ke:trap.obj
 0014:00008efc       $$$00236                   005f0efc f   ke:trap.obj
 0014:00008f04       $$$00238                   005f0f04 f   ke:trap.obj
 0014:00008f0c       $$$00240                   005f0f0c f   ke:trap.obj
 0014:00008f14       $$$00242                   005f0f14 f   ke:trap.obj
 0014:00008f1c       $$$00244                   005f0f1c f   ke:trap.obj
 0014:00008f24       $$$00246                   005f0f24 f   ke:trap.obj
 0014:00008f2c       $$$00248                   005f0f2c f   ke:trap.obj
 0014:00008f34       $$$00250                   005f0f34 f   ke:trap.obj
 0014:00008f3c       $$$00252                   005f0f3c f   ke:trap.obj
 0014:00008f44       $$$00254                   005f0f44 f   ke:trap.obj
 0014:00008f4c       $$$00256                   005f0f4c f   ke:trap.obj
 0014:00008f54       $$$00258                   005f0f54 f   ke:trap.obj
 0014:00008f5c       $$$00260                   005f0f5c f   ke:trap.obj
 0014:00008f64       $$$00262                   005f0f64 f   ke:trap.obj
 0014:00008f6c       $$$00264                   005f0f6c f   ke:trap.obj
 0014:00008f74       $$$00266                   005f0f74 f   ke:trap.obj
 0014:00008f7c       $$$00268                   005f0f7c f   ke:trap.obj
 0014:00008f84       $$$00270                   005f0f84 f   ke:trap.obj
 0014:00008f8c       $$$00272                   005f0f8c f   ke:trap.obj
 0014:00008f94       $$$00274                   005f0f94 f   ke:trap.obj
 0014:00008f9c       $$$00276                   005f0f9c f   ke:trap.obj
 0014:00008fa4       $$$00278                   005f0fa4 f   ke:trap.obj
 0014:00008fac       $$$00280                   005f0fac f   ke:trap.obj
 0014:00008fb4       $$$00282                   005f0fb4 f   ke:trap.obj
 0014:00008fbc       $$$00284                   005f0fbc f   ke:trap.obj
 0014:00008fc4       $$$00286                   005f0fc4 f   ke:trap.obj
 0014:00008fcc       $$$00288                   005f0fcc f   ke:trap.obj
 0014:00008fd4       $$$00290                   005f0fd4 f   ke:trap.obj
 0014:00008fdc       $$$00292                   005f0fdc f   ke:trap.obj
 0014:00008fe4       $$$00294                   005f0fe4 f   ke:trap.obj
 0014:00008fec       $$$00296                   005f0fec f   ke:trap.obj
 0014:00008ff4       $$$00298                   005f0ff4 f   ke:trap.obj
 0014:00008ffc       $$$00300                   005f0ffc f   ke:trap.obj
 0014:00009004       $$$00302                   005f1004 f   ke:trap.obj
 0014:0000900c       $$$00304                   005f100c f   ke:trap.obj
 0014:00009014       $$$00306                   005f1014 f   ke:trap.obj
 0014:0000901c       $$$00308                   005f101c f   ke:trap.obj
 0014:00009024       $$$00310                   005f1024 f   ke:trap.obj
 0014:0000902c       $$$00312                   005f102c f   ke:trap.obj
 0014:00009034       $$$00314                   005f1034 f   ke:trap.obj
 0014:0000903c       $$$00316                   005f103c f   ke:trap.obj
 0014:00009044       $$$00318                   005f1044 f   ke:trap.obj
 0014:0000904c       $$$00320                   005f104c f   ke:trap.obj
 0014:00009054       $$$00322                   005f1054 f   ke:trap.obj
 0014:0000905c       $$$00324                   005f105c f   ke:trap.obj
 0014:00009064       $$$00326                   005f1064 f   ke:trap.obj
 0014:0000906c       $$$00328                   005f106c f   ke:trap.obj
 0014:00009074       $$$00330                   005f1074 f   ke:trap.obj
 0014:0000907c       $$$00332                   005f107c f   ke:trap.obj
 0014:00009084       $$$00334                   005f1084 f   ke:trap.obj
 0014:0000908c       $$$00336                   005f108c f   ke:trap.obj
 0014:00009094       $$$00338                   005f1094 f   ke:trap.obj
 0014:0000909c       $$$00340                   005f109c f   ke:trap.obj
 0014:000090a4       $$$00342                   005f10a4 f   ke:trap.obj
 0014:000090ac       $$$00344                   005f10ac f   ke:trap.obj
 0014:000090b4       $$$00346                   005f10b4 f   ke:trap.obj
 0014:000090bc       $$$00348                   005f10bc f   ke:trap.obj
 0014:000090c4       $$$00350                   005f10c4 f   ke:trap.obj
 0014:000090cc       $$$00352                   005f10cc f   ke:trap.obj
 0014:000090d4       $$$00354                   005f10d4 f   ke:trap.obj
 0014:000090dc       $$$00356                   005f10dc f   ke:trap.obj
 0014:000090e4       $$$00358                   005f10e4 f   ke:trap.obj
 0014:000090ec       $$$00360                   005f10ec f   ke:trap.obj
 0014:000090f4       $$$00362                   005f10f4 f   ke:trap.obj
 0014:000090fc       $$$00364                   005f10fc f   ke:trap.obj
 0014:00009104       $$$00366                   005f1104 f   ke:trap.obj
 0014:0000910c       $$$00368                   005f110c f   ke:trap.obj
 0014:00009114       $$$00370                   005f1114 f   ke:trap.obj
 0014:0000911c       $$$00372                   005f111c f   ke:trap.obj
 0014:00009124       $$$00374                   005f1124 f   ke:trap.obj
 0014:0000912c       $$$00376                   005f112c f   ke:trap.obj
 0014:00009134       $$$00378                   005f1134 f   ke:trap.obj
 0014:0000913c       $$$00380                   005f113c f   ke:trap.obj
 0014:00009144       $$$00382                   005f1144 f   ke:trap.obj
 0014:0000914c       $$$00384                   005f114c f   ke:trap.obj
 0014:00009154       $$$00386                   005f1154 f   ke:trap.obj
 0014:0000915c       $$$00388                   005f115c f   ke:trap.obj
 0014:00009164       $$$00390                   005f1164 f   ke:trap.obj
 0014:0000916c       $$$00392                   005f116c f   ke:trap.obj
 0014:00009174       $$$00394                   005f1174 f   ke:trap.obj
 0014:0000917c       $$$00396                   005f117c f   ke:trap.obj
 0014:00009184       $$$00398                   005f1184 f   ke:trap.obj
 0014:0000918c       $$$00400                   005f118c f   ke:trap.obj
 0014:00009194       $$$00402                   005f1194 f   ke:trap.obj
 0014:0000919c       $$$00404                   005f119c f   ke:trap.obj
 0014:000091a4       $$$00406                   005f11a4 f   ke:trap.obj
 0014:000091ac       $$$00408                   005f11ac f   ke:trap.obj
 0014:000091b4       $$$00410                   005f11b4 f   ke:trap.obj
 0014:000091bc       $$$00412                   005f11bc f   ke:trap.obj
 0014:000091c4       $$$00414                   005f11c4 f   ke:trap.obj
 0014:000091cc       $$$00416                   005f11cc f   ke:trap.obj
 0014:00009750       $$$00013                   005f1750 f   ke:ctxswap.obj
 0014:000097ae       $$$00015                   005f17ae f   ke:ctxswap.obj
 0014:000097bc       $$$00017                   005f17bc f   ke:ctxswap.obj
 0014:000097ca       $$$00019                   005f17ca f   ke:ctxswap.obj
 0014:00009802       $$$00021                   005f1802 f   ke:ctxswap.obj
 0014:0000ae38       _KiCloneDescriptor@12      005f2e38 f   ke:allproc.obj
 0014:0000b0aa       _KiCloneSelector@16        005f30aa f   ke:allproc.obj
 0014:0000b328       $$$00001                   005f3328 f   ke:cpu.obj
 0014:0000b47a       CpuIdTrap6Handler          005f347a f   ke:cpu.obj
 0014:0000b528       Temporary486Int6           005f3528 f   ke:cpu.obj
 0014:0000b588       Check386B0                 005f3588 f   ke:cpu.obj
 0014:0000b5c3       TemporaryInt6              005f35c3 f   ke:cpu.obj
 0014:0000b5cb       Check386D1                 005f35cb f   ke:cpu.obj
 0014:0000b612       TemporaryInt1              005f3612 f   ke:cpu.obj
 0014:0000b622       MultiplyTest               005f3622 f   ke:cpu.obj
 0014:0000b634       Multiply                   005f3634 f   ke:cpu.obj
 0014:0000b650       $$$00016                   005f3650 f   ke:cpu.obj
 0014:0000b68f       $$$00018                   005f368f f   ke:cpu.obj
 0014:00017496       _ExpSingleStringCheck@4    005ff496 f   ntoswrk:EXSCAN.obj
 0014:000174c0       _ExpStringCheck@100        005ff4c0 f   ntoswrk:EXSCAN.obj
 0014:00017876       _ExpWatchProductTypeInitialization@0 005ff876 f   ntoswrk:EXSCAN.obj
